
thesis.elf:     file format elf32-littlearm

Sections:
Idx Name          Size      VMA       LMA       File off  Algn
  0 .isr_vector   00000188  08000000  08000000  00010000  2**0
                  CONTENTS, ALLOC, LOAD, READONLY, DATA
  1 .text         0000636c  08000188  08000188  00010188  2**3
                  CONTENTS, ALLOC, LOAD, READONLY, CODE
  2 .rodata       00000078  080064f4  080064f4  000164f4  2**2
                  CONTENTS, ALLOC, LOAD, READONLY, DATA
  3 .init_array   00000004  0800656c  0800656c  0001656c  2**2
                  CONTENTS, ALLOC, LOAD, DATA
  4 .fini_array   00000004  08006570  08006570  00016570  2**2
                  CONTENTS, ALLOC, LOAD, DATA
  5 .data         00007e30  20000000  08006574  00020000  2**2
                  CONTENTS, ALLOC, LOAD, DATA
  6 .ccmram       00000000  10000000  10000000  00027e30  2**0
                  CONTENTS
  7 .bss          000010a4  20007e30  20007e30  00027e30  2**2
                  ALLOC
  8 ._user_heap_stack 00000400  20008ed4  20008ed4  00027e30  2**0
                  ALLOC
  9 .ARM.attributes 00000030  00000000  00000000  00027e30  2**0
                  CONTENTS, READONLY
 10 .debug_info   0001cd8c  00000000  00000000  00027e60  2**0
                  CONTENTS, READONLY, DEBUGGING
 11 .debug_abbrev 000039d7  00000000  00000000  00044bec  2**0
                  CONTENTS, READONLY, DEBUGGING
 12 .debug_aranges 00001170  00000000  00000000  000485c8  2**3
                  CONTENTS, READONLY, DEBUGGING
 13 .debug_ranges 00000f98  00000000  00000000  00049738  2**3
                  CONTENTS, READONLY, DEBUGGING
 14 .debug_line   00007563  00000000  00000000  0004a6d0  2**0
                  CONTENTS, READONLY, DEBUGGING
 15 .debug_str    0000608b  00000000  00000000  00051c33  2**0
                  CONTENTS, READONLY, DEBUGGING
 16 .comment      0000007c  00000000  00000000  00057cbe  2**0
                  CONTENTS, READONLY
 17 .debug_frame  000048a4  00000000  00000000  00057d3c  2**2
                  CONTENTS, READONLY, DEBUGGING
 18 .stabstr      0000003f  00000000  00000000  0005c5e0  2**0
                  CONTENTS, READONLY, DEBUGGING

Disassembly of section .text:

08000188 <__do_global_dtors_aux>:
 8000188:	b510      	push	{r4, lr}
 800018a:	4c05      	ldr	r4, [pc, #20]	; (80001a0 <__do_global_dtors_aux+0x18>)
 800018c:	7823      	ldrb	r3, [r4, #0]
 800018e:	b933      	cbnz	r3, 800019e <__do_global_dtors_aux+0x16>
 8000190:	4b04      	ldr	r3, [pc, #16]	; (80001a4 <__do_global_dtors_aux+0x1c>)
 8000192:	b113      	cbz	r3, 800019a <__do_global_dtors_aux+0x12>
 8000194:	4804      	ldr	r0, [pc, #16]	; (80001a8 <__do_global_dtors_aux+0x20>)
 8000196:	f3af 8000 	nop.w
 800019a:	2301      	movs	r3, #1
 800019c:	7023      	strb	r3, [r4, #0]
 800019e:	bd10      	pop	{r4, pc}
 80001a0:	20007e30 	.word	0x20007e30
 80001a4:	00000000 	.word	0x00000000
 80001a8:	080064dc 	.word	0x080064dc

080001ac <frame_dummy>:
 80001ac:	b508      	push	{r3, lr}
 80001ae:	4b03      	ldr	r3, [pc, #12]	; (80001bc <frame_dummy+0x10>)
 80001b0:	b11b      	cbz	r3, 80001ba <frame_dummy+0xe>
 80001b2:	4903      	ldr	r1, [pc, #12]	; (80001c0 <frame_dummy+0x14>)
 80001b4:	4803      	ldr	r0, [pc, #12]	; (80001c4 <frame_dummy+0x18>)
 80001b6:	f3af 8000 	nop.w
 80001ba:	bd08      	pop	{r3, pc}
 80001bc:	00000000 	.word	0x00000000
 80001c0:	20007e34 	.word	0x20007e34
 80001c4:	080064dc 	.word	0x080064dc

080001c8 <__aeabi_drsub>:
 80001c8:	f081 4100 	eor.w	r1, r1, #2147483648	; 0x80000000
 80001cc:	e002      	b.n	80001d4 <__adddf3>
 80001ce:	bf00      	nop

080001d0 <__aeabi_dsub>:
 80001d0:	f083 4300 	eor.w	r3, r3, #2147483648	; 0x80000000

080001d4 <__adddf3>:
 80001d4:	b530      	push	{r4, r5, lr}
 80001d6:	ea4f 0441 	mov.w	r4, r1, lsl #1
 80001da:	ea4f 0543 	mov.w	r5, r3, lsl #1
 80001de:	ea94 0f05 	teq	r4, r5
 80001e2:	bf08      	it	eq
 80001e4:	ea90 0f02 	teqeq	r0, r2
 80001e8:	bf1f      	itttt	ne
 80001ea:	ea54 0c00 	orrsne.w	ip, r4, r0
 80001ee:	ea55 0c02 	orrsne.w	ip, r5, r2
 80001f2:	ea7f 5c64 	mvnsne.w	ip, r4, asr #21
 80001f6:	ea7f 5c65 	mvnsne.w	ip, r5, asr #21
 80001fa:	f000 80e2 	beq.w	80003c2 <__adddf3+0x1ee>
 80001fe:	ea4f 5454 	mov.w	r4, r4, lsr #21
 8000202:	ebd4 5555 	rsbs	r5, r4, r5, lsr #21
 8000206:	bfb8      	it	lt
 8000208:	426d      	neglt	r5, r5
 800020a:	dd0c      	ble.n	8000226 <__adddf3+0x52>
 800020c:	442c      	add	r4, r5
 800020e:	ea80 0202 	eor.w	r2, r0, r2
 8000212:	ea81 0303 	eor.w	r3, r1, r3
 8000216:	ea82 0000 	eor.w	r0, r2, r0
 800021a:	ea83 0101 	eor.w	r1, r3, r1
 800021e:	ea80 0202 	eor.w	r2, r0, r2
 8000222:	ea81 0303 	eor.w	r3, r1, r3
 8000226:	2d36      	cmp	r5, #54	; 0x36
 8000228:	bf88      	it	hi
 800022a:	bd30      	pophi	{r4, r5, pc}
 800022c:	f011 4f00 	tst.w	r1, #2147483648	; 0x80000000
 8000230:	ea4f 3101 	mov.w	r1, r1, lsl #12
 8000234:	f44f 1c80 	mov.w	ip, #1048576	; 0x100000
 8000238:	ea4c 3111 	orr.w	r1, ip, r1, lsr #12
 800023c:	d002      	beq.n	8000244 <__adddf3+0x70>
 800023e:	4240      	negs	r0, r0
 8000240:	eb61 0141 	sbc.w	r1, r1, r1, lsl #1
 8000244:	f013 4f00 	tst.w	r3, #2147483648	; 0x80000000
 8000248:	ea4f 3303 	mov.w	r3, r3, lsl #12
 800024c:	ea4c 3313 	orr.w	r3, ip, r3, lsr #12
 8000250:	d002      	beq.n	8000258 <__adddf3+0x84>
 8000252:	4252      	negs	r2, r2
 8000254:	eb63 0343 	sbc.w	r3, r3, r3, lsl #1
 8000258:	ea94 0f05 	teq	r4, r5
 800025c:	f000 80a7 	beq.w	80003ae <__adddf3+0x1da>
 8000260:	f1a4 0401 	sub.w	r4, r4, #1
 8000264:	f1d5 0e20 	rsbs	lr, r5, #32
 8000268:	db0d      	blt.n	8000286 <__adddf3+0xb2>
 800026a:	fa02 fc0e 	lsl.w	ip, r2, lr
 800026e:	fa22 f205 	lsr.w	r2, r2, r5
 8000272:	1880      	adds	r0, r0, r2
 8000274:	f141 0100 	adc.w	r1, r1, #0
 8000278:	fa03 f20e 	lsl.w	r2, r3, lr
 800027c:	1880      	adds	r0, r0, r2
 800027e:	fa43 f305 	asr.w	r3, r3, r5
 8000282:	4159      	adcs	r1, r3
 8000284:	e00e      	b.n	80002a4 <__adddf3+0xd0>
 8000286:	f1a5 0520 	sub.w	r5, r5, #32
 800028a:	f10e 0e20 	add.w	lr, lr, #32
 800028e:	2a01      	cmp	r2, #1
 8000290:	fa03 fc0e 	lsl.w	ip, r3, lr
 8000294:	bf28      	it	cs
 8000296:	f04c 0c02 	orrcs.w	ip, ip, #2
 800029a:	fa43 f305 	asr.w	r3, r3, r5
 800029e:	18c0      	adds	r0, r0, r3
 80002a0:	eb51 71e3 	adcs.w	r1, r1, r3, asr #31
 80002a4:	f001 4500 	and.w	r5, r1, #2147483648	; 0x80000000
 80002a8:	d507      	bpl.n	80002ba <__adddf3+0xe6>
 80002aa:	f04f 0e00 	mov.w	lr, #0
 80002ae:	f1dc 0c00 	rsbs	ip, ip, #0
 80002b2:	eb7e 0000 	sbcs.w	r0, lr, r0
 80002b6:	eb6e 0101 	sbc.w	r1, lr, r1
 80002ba:	f5b1 1f80 	cmp.w	r1, #1048576	; 0x100000
 80002be:	d31b      	bcc.n	80002f8 <__adddf3+0x124>
 80002c0:	f5b1 1f00 	cmp.w	r1, #2097152	; 0x200000
 80002c4:	d30c      	bcc.n	80002e0 <__adddf3+0x10c>
 80002c6:	0849      	lsrs	r1, r1, #1
 80002c8:	ea5f 0030 	movs.w	r0, r0, rrx
 80002cc:	ea4f 0c3c 	mov.w	ip, ip, rrx
 80002d0:	f104 0401 	add.w	r4, r4, #1
 80002d4:	ea4f 5244 	mov.w	r2, r4, lsl #21
 80002d8:	f512 0f80 	cmn.w	r2, #4194304	; 0x400000
 80002dc:	f080 809a 	bcs.w	8000414 <__adddf3+0x240>
 80002e0:	f1bc 4f00 	cmp.w	ip, #2147483648	; 0x80000000
 80002e4:	bf08      	it	eq
 80002e6:	ea5f 0c50 	movseq.w	ip, r0, lsr #1
 80002ea:	f150 0000 	adcs.w	r0, r0, #0
 80002ee:	eb41 5104 	adc.w	r1, r1, r4, lsl #20
 80002f2:	ea41 0105 	orr.w	r1, r1, r5
 80002f6:	bd30      	pop	{r4, r5, pc}
 80002f8:	ea5f 0c4c 	movs.w	ip, ip, lsl #1
 80002fc:	4140      	adcs	r0, r0
 80002fe:	eb41 0101 	adc.w	r1, r1, r1
 8000302:	f411 1f80 	tst.w	r1, #1048576	; 0x100000
 8000306:	f1a4 0401 	sub.w	r4, r4, #1
 800030a:	d1e9      	bne.n	80002e0 <__adddf3+0x10c>
 800030c:	f091 0f00 	teq	r1, #0
 8000310:	bf04      	itt	eq
 8000312:	4601      	moveq	r1, r0
 8000314:	2000      	moveq	r0, #0
 8000316:	fab1 f381 	clz	r3, r1
 800031a:	bf08      	it	eq
 800031c:	3320      	addeq	r3, #32
 800031e:	f1a3 030b 	sub.w	r3, r3, #11
 8000322:	f1b3 0220 	subs.w	r2, r3, #32
 8000326:	da0c      	bge.n	8000342 <__adddf3+0x16e>
 8000328:	320c      	adds	r2, #12
 800032a:	dd08      	ble.n	800033e <__adddf3+0x16a>
 800032c:	f102 0c14 	add.w	ip, r2, #20
 8000330:	f1c2 020c 	rsb	r2, r2, #12
 8000334:	fa01 f00c 	lsl.w	r0, r1, ip
 8000338:	fa21 f102 	lsr.w	r1, r1, r2
 800033c:	e00c      	b.n	8000358 <__adddf3+0x184>
 800033e:	f102 0214 	add.w	r2, r2, #20
 8000342:	bfd8      	it	le
 8000344:	f1c2 0c20 	rsble	ip, r2, #32
 8000348:	fa01 f102 	lsl.w	r1, r1, r2
 800034c:	fa20 fc0c 	lsr.w	ip, r0, ip
 8000350:	bfdc      	itt	le
 8000352:	ea41 010c 	orrle.w	r1, r1, ip
 8000356:	4090      	lslle	r0, r2
 8000358:	1ae4      	subs	r4, r4, r3
 800035a:	bfa2      	ittt	ge
 800035c:	eb01 5104 	addge.w	r1, r1, r4, lsl #20
 8000360:	4329      	orrge	r1, r5
 8000362:	bd30      	popge	{r4, r5, pc}
 8000364:	ea6f 0404 	mvn.w	r4, r4
 8000368:	3c1f      	subs	r4, #31
 800036a:	da1c      	bge.n	80003a6 <__adddf3+0x1d2>
 800036c:	340c      	adds	r4, #12
 800036e:	dc0e      	bgt.n	800038e <__adddf3+0x1ba>
 8000370:	f104 0414 	add.w	r4, r4, #20
 8000374:	f1c4 0220 	rsb	r2, r4, #32
 8000378:	fa20 f004 	lsr.w	r0, r0, r4
 800037c:	fa01 f302 	lsl.w	r3, r1, r2
 8000380:	ea40 0003 	orr.w	r0, r0, r3
 8000384:	fa21 f304 	lsr.w	r3, r1, r4
 8000388:	ea45 0103 	orr.w	r1, r5, r3
 800038c:	bd30      	pop	{r4, r5, pc}
 800038e:	f1c4 040c 	rsb	r4, r4, #12
 8000392:	f1c4 0220 	rsb	r2, r4, #32
 8000396:	fa20 f002 	lsr.w	r0, r0, r2
 800039a:	fa01 f304 	lsl.w	r3, r1, r4
 800039e:	ea40 0003 	orr.w	r0, r0, r3
 80003a2:	4629      	mov	r1, r5
 80003a4:	bd30      	pop	{r4, r5, pc}
 80003a6:	fa21 f004 	lsr.w	r0, r1, r4
 80003aa:	4629      	mov	r1, r5
 80003ac:	bd30      	pop	{r4, r5, pc}
 80003ae:	f094 0f00 	teq	r4, #0
 80003b2:	f483 1380 	eor.w	r3, r3, #1048576	; 0x100000
 80003b6:	bf06      	itte	eq
 80003b8:	f481 1180 	eoreq.w	r1, r1, #1048576	; 0x100000
 80003bc:	3401      	addeq	r4, #1
 80003be:	3d01      	subne	r5, #1
 80003c0:	e74e      	b.n	8000260 <__adddf3+0x8c>
 80003c2:	ea7f 5c64 	mvns.w	ip, r4, asr #21
 80003c6:	bf18      	it	ne
 80003c8:	ea7f 5c65 	mvnsne.w	ip, r5, asr #21
 80003cc:	d029      	beq.n	8000422 <__adddf3+0x24e>
 80003ce:	ea94 0f05 	teq	r4, r5
 80003d2:	bf08      	it	eq
 80003d4:	ea90 0f02 	teqeq	r0, r2
 80003d8:	d005      	beq.n	80003e6 <__adddf3+0x212>
 80003da:	ea54 0c00 	orrs.w	ip, r4, r0
 80003de:	bf04      	itt	eq
 80003e0:	4619      	moveq	r1, r3
 80003e2:	4610      	moveq	r0, r2
 80003e4:	bd30      	pop	{r4, r5, pc}
 80003e6:	ea91 0f03 	teq	r1, r3
 80003ea:	bf1e      	ittt	ne
 80003ec:	2100      	movne	r1, #0
 80003ee:	2000      	movne	r0, #0
 80003f0:	bd30      	popne	{r4, r5, pc}
 80003f2:	ea5f 5c54 	movs.w	ip, r4, lsr #21
 80003f6:	d105      	bne.n	8000404 <__adddf3+0x230>
 80003f8:	0040      	lsls	r0, r0, #1
 80003fa:	4149      	adcs	r1, r1
 80003fc:	bf28      	it	cs
 80003fe:	f041 4100 	orrcs.w	r1, r1, #2147483648	; 0x80000000
 8000402:	bd30      	pop	{r4, r5, pc}
 8000404:	f514 0480 	adds.w	r4, r4, #4194304	; 0x400000
 8000408:	bf3c      	itt	cc
 800040a:	f501 1180 	addcc.w	r1, r1, #1048576	; 0x100000
 800040e:	bd30      	popcc	{r4, r5, pc}
 8000410:	f001 4500 	and.w	r5, r1, #2147483648	; 0x80000000
 8000414:	f045 41fe 	orr.w	r1, r5, #2130706432	; 0x7f000000
 8000418:	f441 0170 	orr.w	r1, r1, #15728640	; 0xf00000
 800041c:	f04f 0000 	mov.w	r0, #0
 8000420:	bd30      	pop	{r4, r5, pc}
 8000422:	ea7f 5c64 	mvns.w	ip, r4, asr #21
 8000426:	bf1a      	itte	ne
 8000428:	4619      	movne	r1, r3
 800042a:	4610      	movne	r0, r2
 800042c:	ea7f 5c65 	mvnseq.w	ip, r5, asr #21
 8000430:	bf1c      	itt	ne
 8000432:	460b      	movne	r3, r1
 8000434:	4602      	movne	r2, r0
 8000436:	ea50 3401 	orrs.w	r4, r0, r1, lsl #12
 800043a:	bf06      	itte	eq
 800043c:	ea52 3503 	orrseq.w	r5, r2, r3, lsl #12
 8000440:	ea91 0f03 	teqeq	r1, r3
 8000444:	f441 2100 	orrne.w	r1, r1, #524288	; 0x80000
 8000448:	bd30      	pop	{r4, r5, pc}
 800044a:	bf00      	nop

0800044c <__aeabi_ui2d>:
 800044c:	f090 0f00 	teq	r0, #0
 8000450:	bf04      	itt	eq
 8000452:	2100      	moveq	r1, #0
 8000454:	4770      	bxeq	lr
 8000456:	b530      	push	{r4, r5, lr}
 8000458:	f44f 6480 	mov.w	r4, #1024	; 0x400
 800045c:	f104 0432 	add.w	r4, r4, #50	; 0x32
 8000460:	f04f 0500 	mov.w	r5, #0
 8000464:	f04f 0100 	mov.w	r1, #0
 8000468:	e750      	b.n	800030c <__adddf3+0x138>
 800046a:	bf00      	nop

0800046c <__aeabi_i2d>:
 800046c:	f090 0f00 	teq	r0, #0
 8000470:	bf04      	itt	eq
 8000472:	2100      	moveq	r1, #0
 8000474:	4770      	bxeq	lr
 8000476:	b530      	push	{r4, r5, lr}
 8000478:	f44f 6480 	mov.w	r4, #1024	; 0x400
 800047c:	f104 0432 	add.w	r4, r4, #50	; 0x32
 8000480:	f010 4500 	ands.w	r5, r0, #2147483648	; 0x80000000
 8000484:	bf48      	it	mi
 8000486:	4240      	negmi	r0, r0
 8000488:	f04f 0100 	mov.w	r1, #0
 800048c:	e73e      	b.n	800030c <__adddf3+0x138>
 800048e:	bf00      	nop

08000490 <__aeabi_f2d>:
 8000490:	0042      	lsls	r2, r0, #1
 8000492:	ea4f 01e2 	mov.w	r1, r2, asr #3
 8000496:	ea4f 0131 	mov.w	r1, r1, rrx
 800049a:	ea4f 7002 	mov.w	r0, r2, lsl #28
 800049e:	bf1f      	itttt	ne
 80004a0:	f012 437f 	andsne.w	r3, r2, #4278190080	; 0xff000000
 80004a4:	f093 4f7f 	teqne	r3, #4278190080	; 0xff000000
 80004a8:	f081 5160 	eorne.w	r1, r1, #939524096	; 0x38000000
 80004ac:	4770      	bxne	lr
 80004ae:	f092 0f00 	teq	r2, #0
 80004b2:	bf14      	ite	ne
 80004b4:	f093 4f7f 	teqne	r3, #4278190080	; 0xff000000
 80004b8:	4770      	bxeq	lr
 80004ba:	b530      	push	{r4, r5, lr}
 80004bc:	f44f 7460 	mov.w	r4, #896	; 0x380
 80004c0:	f001 4500 	and.w	r5, r1, #2147483648	; 0x80000000
 80004c4:	f021 4100 	bic.w	r1, r1, #2147483648	; 0x80000000
 80004c8:	e720      	b.n	800030c <__adddf3+0x138>
 80004ca:	bf00      	nop

080004cc <__aeabi_ul2d>:
 80004cc:	ea50 0201 	orrs.w	r2, r0, r1
 80004d0:	bf08      	it	eq
 80004d2:	4770      	bxeq	lr
 80004d4:	b530      	push	{r4, r5, lr}
 80004d6:	f04f 0500 	mov.w	r5, #0
 80004da:	e00a      	b.n	80004f2 <__aeabi_l2d+0x16>

080004dc <__aeabi_l2d>:
 80004dc:	ea50 0201 	orrs.w	r2, r0, r1
 80004e0:	bf08      	it	eq
 80004e2:	4770      	bxeq	lr
 80004e4:	b530      	push	{r4, r5, lr}
 80004e6:	f011 4500 	ands.w	r5, r1, #2147483648	; 0x80000000
 80004ea:	d502      	bpl.n	80004f2 <__aeabi_l2d+0x16>
 80004ec:	4240      	negs	r0, r0
 80004ee:	eb61 0141 	sbc.w	r1, r1, r1, lsl #1
 80004f2:	f44f 6480 	mov.w	r4, #1024	; 0x400
 80004f6:	f104 0432 	add.w	r4, r4, #50	; 0x32
 80004fa:	ea5f 5c91 	movs.w	ip, r1, lsr #22
 80004fe:	f43f aedc 	beq.w	80002ba <__adddf3+0xe6>
 8000502:	f04f 0203 	mov.w	r2, #3
 8000506:	ea5f 0cdc 	movs.w	ip, ip, lsr #3
 800050a:	bf18      	it	ne
 800050c:	3203      	addne	r2, #3
 800050e:	ea5f 0cdc 	movs.w	ip, ip, lsr #3
 8000512:	bf18      	it	ne
 8000514:	3203      	addne	r2, #3
 8000516:	eb02 02dc 	add.w	r2, r2, ip, lsr #3
 800051a:	f1c2 0320 	rsb	r3, r2, #32
 800051e:	fa00 fc03 	lsl.w	ip, r0, r3
 8000522:	fa20 f002 	lsr.w	r0, r0, r2
 8000526:	fa01 fe03 	lsl.w	lr, r1, r3
 800052a:	ea40 000e 	orr.w	r0, r0, lr
 800052e:	fa21 f102 	lsr.w	r1, r1, r2
 8000532:	4414      	add	r4, r2
 8000534:	e6c1      	b.n	80002ba <__adddf3+0xe6>
 8000536:	bf00      	nop

08000538 <__aeabi_dmul>:
 8000538:	b570      	push	{r4, r5, r6, lr}
 800053a:	f04f 0cff 	mov.w	ip, #255	; 0xff
 800053e:	f44c 6ce0 	orr.w	ip, ip, #1792	; 0x700
 8000542:	ea1c 5411 	ands.w	r4, ip, r1, lsr #20
 8000546:	bf1d      	ittte	ne
 8000548:	ea1c 5513 	andsne.w	r5, ip, r3, lsr #20
 800054c:	ea94 0f0c 	teqne	r4, ip
 8000550:	ea95 0f0c 	teqne	r5, ip
 8000554:	f000 f8de 	bleq	8000714 <__aeabi_dmul+0x1dc>
 8000558:	442c      	add	r4, r5
 800055a:	ea81 0603 	eor.w	r6, r1, r3
 800055e:	ea21 514c 	bic.w	r1, r1, ip, lsl #21
 8000562:	ea23 534c 	bic.w	r3, r3, ip, lsl #21
 8000566:	ea50 3501 	orrs.w	r5, r0, r1, lsl #12
 800056a:	bf18      	it	ne
 800056c:	ea52 3503 	orrsne.w	r5, r2, r3, lsl #12
 8000570:	f441 1180 	orr.w	r1, r1, #1048576	; 0x100000
 8000574:	f443 1380 	orr.w	r3, r3, #1048576	; 0x100000
 8000578:	d038      	beq.n	80005ec <__aeabi_dmul+0xb4>
 800057a:	fba0 ce02 	umull	ip, lr, r0, r2
 800057e:	f04f 0500 	mov.w	r5, #0
 8000582:	fbe1 e502 	umlal	lr, r5, r1, r2
 8000586:	f006 4200 	and.w	r2, r6, #2147483648	; 0x80000000
 800058a:	fbe0 e503 	umlal	lr, r5, r0, r3
 800058e:	f04f 0600 	mov.w	r6, #0
 8000592:	fbe1 5603 	umlal	r5, r6, r1, r3
 8000596:	f09c 0f00 	teq	ip, #0
 800059a:	bf18      	it	ne
 800059c:	f04e 0e01 	orrne.w	lr, lr, #1
 80005a0:	f1a4 04ff 	sub.w	r4, r4, #255	; 0xff
 80005a4:	f5b6 7f00 	cmp.w	r6, #512	; 0x200
 80005a8:	f564 7440 	sbc.w	r4, r4, #768	; 0x300
 80005ac:	d204      	bcs.n	80005b8 <__aeabi_dmul+0x80>
 80005ae:	ea5f 0e4e 	movs.w	lr, lr, lsl #1
 80005b2:	416d      	adcs	r5, r5
 80005b4:	eb46 0606 	adc.w	r6, r6, r6
 80005b8:	ea42 21c6 	orr.w	r1, r2, r6, lsl #11
 80005bc:	ea41 5155 	orr.w	r1, r1, r5, lsr #21
 80005c0:	ea4f 20c5 	mov.w	r0, r5, lsl #11
 80005c4:	ea40 505e 	orr.w	r0, r0, lr, lsr #21
 80005c8:	ea4f 2ece 	mov.w	lr, lr, lsl #11
 80005cc:	f1b4 0cfd 	subs.w	ip, r4, #253	; 0xfd
 80005d0:	bf88      	it	hi
 80005d2:	f5bc 6fe0 	cmphi.w	ip, #1792	; 0x700
 80005d6:	d81e      	bhi.n	8000616 <__aeabi_dmul+0xde>
 80005d8:	f1be 4f00 	cmp.w	lr, #2147483648	; 0x80000000
 80005dc:	bf08      	it	eq
 80005de:	ea5f 0e50 	movseq.w	lr, r0, lsr #1
 80005e2:	f150 0000 	adcs.w	r0, r0, #0
 80005e6:	eb41 5104 	adc.w	r1, r1, r4, lsl #20
 80005ea:	bd70      	pop	{r4, r5, r6, pc}
 80005ec:	f006 4600 	and.w	r6, r6, #2147483648	; 0x80000000
 80005f0:	ea46 0101 	orr.w	r1, r6, r1
 80005f4:	ea40 0002 	orr.w	r0, r0, r2
 80005f8:	ea81 0103 	eor.w	r1, r1, r3
 80005fc:	ebb4 045c 	subs.w	r4, r4, ip, lsr #1
 8000600:	bfc2      	ittt	gt
 8000602:	ebd4 050c 	rsbsgt	r5, r4, ip
 8000606:	ea41 5104 	orrgt.w	r1, r1, r4, lsl #20
 800060a:	bd70      	popgt	{r4, r5, r6, pc}
 800060c:	f441 1180 	orr.w	r1, r1, #1048576	; 0x100000
 8000610:	f04f 0e00 	mov.w	lr, #0
 8000614:	3c01      	subs	r4, #1
 8000616:	f300 80ab 	bgt.w	8000770 <__aeabi_dmul+0x238>
 800061a:	f114 0f36 	cmn.w	r4, #54	; 0x36
 800061e:	bfde      	ittt	le
 8000620:	2000      	movle	r0, #0
 8000622:	f001 4100 	andle.w	r1, r1, #2147483648	; 0x80000000
 8000626:	bd70      	pople	{r4, r5, r6, pc}
 8000628:	f1c4 0400 	rsb	r4, r4, #0
 800062c:	3c20      	subs	r4, #32
 800062e:	da35      	bge.n	800069c <__aeabi_dmul+0x164>
 8000630:	340c      	adds	r4, #12
 8000632:	dc1b      	bgt.n	800066c <__aeabi_dmul+0x134>
 8000634:	f104 0414 	add.w	r4, r4, #20
 8000638:	f1c4 0520 	rsb	r5, r4, #32
 800063c:	fa00 f305 	lsl.w	r3, r0, r5
 8000640:	fa20 f004 	lsr.w	r0, r0, r4
 8000644:	fa01 f205 	lsl.w	r2, r1, r5
 8000648:	ea40 0002 	orr.w	r0, r0, r2
 800064c:	f001 4200 	and.w	r2, r1, #2147483648	; 0x80000000
 8000650:	f021 4100 	bic.w	r1, r1, #2147483648	; 0x80000000
 8000654:	eb10 70d3 	adds.w	r0, r0, r3, lsr #31
 8000658:	fa21 f604 	lsr.w	r6, r1, r4
 800065c:	eb42 0106 	adc.w	r1, r2, r6
 8000660:	ea5e 0e43 	orrs.w	lr, lr, r3, lsl #1
 8000664:	bf08      	it	eq
 8000666:	ea20 70d3 	biceq.w	r0, r0, r3, lsr #31
 800066a:	bd70      	pop	{r4, r5, r6, pc}
 800066c:	f1c4 040c 	rsb	r4, r4, #12
 8000670:	f1c4 0520 	rsb	r5, r4, #32
 8000674:	fa00 f304 	lsl.w	r3, r0, r4
 8000678:	fa20 f005 	lsr.w	r0, r0, r5
 800067c:	fa01 f204 	lsl.w	r2, r1, r4
 8000680:	ea40 0002 	orr.w	r0, r0, r2
 8000684:	f001 4100 	and.w	r1, r1, #2147483648	; 0x80000000
 8000688:	eb10 70d3 	adds.w	r0, r0, r3, lsr #31
 800068c:	f141 0100 	adc.w	r1, r1, #0
 8000690:	ea5e 0e43 	orrs.w	lr, lr, r3, lsl #1
 8000694:	bf08      	it	eq
 8000696:	ea20 70d3 	biceq.w	r0, r0, r3, lsr #31
 800069a:	bd70      	pop	{r4, r5, r6, pc}
 800069c:	f1c4 0520 	rsb	r5, r4, #32
 80006a0:	fa00 f205 	lsl.w	r2, r0, r5
 80006a4:	ea4e 0e02 	orr.w	lr, lr, r2
 80006a8:	fa20 f304 	lsr.w	r3, r0, r4
 80006ac:	fa01 f205 	lsl.w	r2, r1, r5
 80006b0:	ea43 0302 	orr.w	r3, r3, r2
 80006b4:	fa21 f004 	lsr.w	r0, r1, r4
 80006b8:	f001 4100 	and.w	r1, r1, #2147483648	; 0x80000000
 80006bc:	fa21 f204 	lsr.w	r2, r1, r4
 80006c0:	ea20 0002 	bic.w	r0, r0, r2
 80006c4:	eb00 70d3 	add.w	r0, r0, r3, lsr #31
 80006c8:	ea5e 0e43 	orrs.w	lr, lr, r3, lsl #1
 80006cc:	bf08      	it	eq
 80006ce:	ea20 70d3 	biceq.w	r0, r0, r3, lsr #31
 80006d2:	bd70      	pop	{r4, r5, r6, pc}
 80006d4:	f094 0f00 	teq	r4, #0
 80006d8:	d10f      	bne.n	80006fa <__aeabi_dmul+0x1c2>
 80006da:	f001 4600 	and.w	r6, r1, #2147483648	; 0x80000000
 80006de:	0040      	lsls	r0, r0, #1
 80006e0:	eb41 0101 	adc.w	r1, r1, r1
 80006e4:	f411 1f80 	tst.w	r1, #1048576	; 0x100000
 80006e8:	bf08      	it	eq
 80006ea:	3c01      	subeq	r4, #1
 80006ec:	d0f7      	beq.n	80006de <__aeabi_dmul+0x1a6>
 80006ee:	ea41 0106 	orr.w	r1, r1, r6
 80006f2:	f095 0f00 	teq	r5, #0
 80006f6:	bf18      	it	ne
 80006f8:	4770      	bxne	lr
 80006fa:	f003 4600 	and.w	r6, r3, #2147483648	; 0x80000000
 80006fe:	0052      	lsls	r2, r2, #1
 8000700:	eb43 0303 	adc.w	r3, r3, r3
 8000704:	f413 1f80 	tst.w	r3, #1048576	; 0x100000
 8000708:	bf08      	it	eq
 800070a:	3d01      	subeq	r5, #1
 800070c:	d0f7      	beq.n	80006fe <__aeabi_dmul+0x1c6>
 800070e:	ea43 0306 	orr.w	r3, r3, r6
 8000712:	4770      	bx	lr
 8000714:	ea94 0f0c 	teq	r4, ip
 8000718:	ea0c 5513 	and.w	r5, ip, r3, lsr #20
 800071c:	bf18      	it	ne
 800071e:	ea95 0f0c 	teqne	r5, ip
 8000722:	d00c      	beq.n	800073e <__aeabi_dmul+0x206>
 8000724:	ea50 0641 	orrs.w	r6, r0, r1, lsl #1
 8000728:	bf18      	it	ne
 800072a:	ea52 0643 	orrsne.w	r6, r2, r3, lsl #1
 800072e:	d1d1      	bne.n	80006d4 <__aeabi_dmul+0x19c>
 8000730:	ea81 0103 	eor.w	r1, r1, r3
 8000734:	f001 4100 	and.w	r1, r1, #2147483648	; 0x80000000
 8000738:	f04f 0000 	mov.w	r0, #0
 800073c:	bd70      	pop	{r4, r5, r6, pc}
 800073e:	ea50 0641 	orrs.w	r6, r0, r1, lsl #1
 8000742:	bf06      	itte	eq
 8000744:	4610      	moveq	r0, r2
 8000746:	4619      	moveq	r1, r3
 8000748:	ea52 0643 	orrsne.w	r6, r2, r3, lsl #1
 800074c:	d019      	beq.n	8000782 <__aeabi_dmul+0x24a>
 800074e:	ea94 0f0c 	teq	r4, ip
 8000752:	d102      	bne.n	800075a <__aeabi_dmul+0x222>
 8000754:	ea50 3601 	orrs.w	r6, r0, r1, lsl #12
 8000758:	d113      	bne.n	8000782 <__aeabi_dmul+0x24a>
 800075a:	ea95 0f0c 	teq	r5, ip
 800075e:	d105      	bne.n	800076c <__aeabi_dmul+0x234>
 8000760:	ea52 3603 	orrs.w	r6, r2, r3, lsl #12
 8000764:	bf1c      	itt	ne
 8000766:	4610      	movne	r0, r2
 8000768:	4619      	movne	r1, r3
 800076a:	d10a      	bne.n	8000782 <__aeabi_dmul+0x24a>
 800076c:	ea81 0103 	eor.w	r1, r1, r3
 8000770:	f001 4100 	and.w	r1, r1, #2147483648	; 0x80000000
 8000774:	f041 41fe 	orr.w	r1, r1, #2130706432	; 0x7f000000
 8000778:	f441 0170 	orr.w	r1, r1, #15728640	; 0xf00000
 800077c:	f04f 0000 	mov.w	r0, #0
 8000780:	bd70      	pop	{r4, r5, r6, pc}
 8000782:	f041 41fe 	orr.w	r1, r1, #2130706432	; 0x7f000000
 8000786:	f441 0178 	orr.w	r1, r1, #16252928	; 0xf80000
 800078a:	bd70      	pop	{r4, r5, r6, pc}

0800078c <__aeabi_ddiv>:
 800078c:	b570      	push	{r4, r5, r6, lr}
 800078e:	f04f 0cff 	mov.w	ip, #255	; 0xff
 8000792:	f44c 6ce0 	orr.w	ip, ip, #1792	; 0x700
 8000796:	ea1c 5411 	ands.w	r4, ip, r1, lsr #20
 800079a:	bf1d      	ittte	ne
 800079c:	ea1c 5513 	andsne.w	r5, ip, r3, lsr #20
 80007a0:	ea94 0f0c 	teqne	r4, ip
 80007a4:	ea95 0f0c 	teqne	r5, ip
 80007a8:	f000 f8a7 	bleq	80008fa <__aeabi_ddiv+0x16e>
 80007ac:	eba4 0405 	sub.w	r4, r4, r5
 80007b0:	ea81 0e03 	eor.w	lr, r1, r3
 80007b4:	ea52 3503 	orrs.w	r5, r2, r3, lsl #12
 80007b8:	ea4f 3101 	mov.w	r1, r1, lsl #12
 80007bc:	f000 8088 	beq.w	80008d0 <__aeabi_ddiv+0x144>
 80007c0:	ea4f 3303 	mov.w	r3, r3, lsl #12
 80007c4:	f04f 5580 	mov.w	r5, #268435456	; 0x10000000
 80007c8:	ea45 1313 	orr.w	r3, r5, r3, lsr #4
 80007cc:	ea43 6312 	orr.w	r3, r3, r2, lsr #24
 80007d0:	ea4f 2202 	mov.w	r2, r2, lsl #8
 80007d4:	ea45 1511 	orr.w	r5, r5, r1, lsr #4
 80007d8:	ea45 6510 	orr.w	r5, r5, r0, lsr #24
 80007dc:	ea4f 2600 	mov.w	r6, r0, lsl #8
 80007e0:	f00e 4100 	and.w	r1, lr, #2147483648	; 0x80000000
 80007e4:	429d      	cmp	r5, r3
 80007e6:	bf08      	it	eq
 80007e8:	4296      	cmpeq	r6, r2
 80007ea:	f144 04fd 	adc.w	r4, r4, #253	; 0xfd
 80007ee:	f504 7440 	add.w	r4, r4, #768	; 0x300
 80007f2:	d202      	bcs.n	80007fa <__aeabi_ddiv+0x6e>
 80007f4:	085b      	lsrs	r3, r3, #1
 80007f6:	ea4f 0232 	mov.w	r2, r2, rrx
 80007fa:	1ab6      	subs	r6, r6, r2
 80007fc:	eb65 0503 	sbc.w	r5, r5, r3
 8000800:	085b      	lsrs	r3, r3, #1
 8000802:	ea4f 0232 	mov.w	r2, r2, rrx
 8000806:	f44f 1080 	mov.w	r0, #1048576	; 0x100000
 800080a:	f44f 2c00 	mov.w	ip, #524288	; 0x80000
 800080e:	ebb6 0e02 	subs.w	lr, r6, r2
 8000812:	eb75 0e03 	sbcs.w	lr, r5, r3
 8000816:	bf22      	ittt	cs
 8000818:	1ab6      	subcs	r6, r6, r2
 800081a:	4675      	movcs	r5, lr
 800081c:	ea40 000c 	orrcs.w	r0, r0, ip
 8000820:	085b      	lsrs	r3, r3, #1
 8000822:	ea4f 0232 	mov.w	r2, r2, rrx
 8000826:	ebb6 0e02 	subs.w	lr, r6, r2
 800082a:	eb75 0e03 	sbcs.w	lr, r5, r3
 800082e:	bf22      	ittt	cs
 8000830:	1ab6      	subcs	r6, r6, r2
 8000832:	4675      	movcs	r5, lr
 8000834:	ea40 005c 	orrcs.w	r0, r0, ip, lsr #1
 8000838:	085b      	lsrs	r3, r3, #1
 800083a:	ea4f 0232 	mov.w	r2, r2, rrx
 800083e:	ebb6 0e02 	subs.w	lr, r6, r2
 8000842:	eb75 0e03 	sbcs.w	lr, r5, r3
 8000846:	bf22      	ittt	cs
 8000848:	1ab6      	subcs	r6, r6, r2
 800084a:	4675      	movcs	r5, lr
 800084c:	ea40 009c 	orrcs.w	r0, r0, ip, lsr #2
 8000850:	085b      	lsrs	r3, r3, #1
 8000852:	ea4f 0232 	mov.w	r2, r2, rrx
 8000856:	ebb6 0e02 	subs.w	lr, r6, r2
 800085a:	eb75 0e03 	sbcs.w	lr, r5, r3
 800085e:	bf22      	ittt	cs
 8000860:	1ab6      	subcs	r6, r6, r2
 8000862:	4675      	movcs	r5, lr
 8000864:	ea40 00dc 	orrcs.w	r0, r0, ip, lsr #3
 8000868:	ea55 0e06 	orrs.w	lr, r5, r6
 800086c:	d018      	beq.n	80008a0 <__aeabi_ddiv+0x114>
 800086e:	ea4f 1505 	mov.w	r5, r5, lsl #4
 8000872:	ea45 7516 	orr.w	r5, r5, r6, lsr #28
 8000876:	ea4f 1606 	mov.w	r6, r6, lsl #4
 800087a:	ea4f 03c3 	mov.w	r3, r3, lsl #3
 800087e:	ea43 7352 	orr.w	r3, r3, r2, lsr #29
 8000882:	ea4f 02c2 	mov.w	r2, r2, lsl #3
 8000886:	ea5f 1c1c 	movs.w	ip, ip, lsr #4
 800088a:	d1c0      	bne.n	800080e <__aeabi_ddiv+0x82>
 800088c:	f411 1f80 	tst.w	r1, #1048576	; 0x100000
 8000890:	d10b      	bne.n	80008aa <__aeabi_ddiv+0x11e>
 8000892:	ea41 0100 	orr.w	r1, r1, r0
 8000896:	f04f 0000 	mov.w	r0, #0
 800089a:	f04f 4c00 	mov.w	ip, #2147483648	; 0x80000000
 800089e:	e7b6      	b.n	800080e <__aeabi_ddiv+0x82>
 80008a0:	f411 1f80 	tst.w	r1, #1048576	; 0x100000
 80008a4:	bf04      	itt	eq
 80008a6:	4301      	orreq	r1, r0
 80008a8:	2000      	moveq	r0, #0
 80008aa:	f1b4 0cfd 	subs.w	ip, r4, #253	; 0xfd
 80008ae:	bf88      	it	hi
 80008b0:	f5bc 6fe0 	cmphi.w	ip, #1792	; 0x700
 80008b4:	f63f aeaf 	bhi.w	8000616 <__aeabi_dmul+0xde>
 80008b8:	ebb5 0c03 	subs.w	ip, r5, r3
 80008bc:	bf04      	itt	eq
 80008be:	ebb6 0c02 	subseq.w	ip, r6, r2
 80008c2:	ea5f 0c50 	movseq.w	ip, r0, lsr #1
 80008c6:	f150 0000 	adcs.w	r0, r0, #0
 80008ca:	eb41 5104 	adc.w	r1, r1, r4, lsl #20
 80008ce:	bd70      	pop	{r4, r5, r6, pc}
 80008d0:	f00e 4e00 	and.w	lr, lr, #2147483648	; 0x80000000
 80008d4:	ea4e 3111 	orr.w	r1, lr, r1, lsr #12
 80008d8:	eb14 045c 	adds.w	r4, r4, ip, lsr #1
 80008dc:	bfc2      	ittt	gt
 80008de:	ebd4 050c 	rsbsgt	r5, r4, ip
 80008e2:	ea41 5104 	orrgt.w	r1, r1, r4, lsl #20
 80008e6:	bd70      	popgt	{r4, r5, r6, pc}
 80008e8:	f441 1180 	orr.w	r1, r1, #1048576	; 0x100000
 80008ec:	f04f 0e00 	mov.w	lr, #0
 80008f0:	3c01      	subs	r4, #1
 80008f2:	e690      	b.n	8000616 <__aeabi_dmul+0xde>
 80008f4:	ea45 0e06 	orr.w	lr, r5, r6
 80008f8:	e68d      	b.n	8000616 <__aeabi_dmul+0xde>
 80008fa:	ea0c 5513 	and.w	r5, ip, r3, lsr #20
 80008fe:	ea94 0f0c 	teq	r4, ip
 8000902:	bf08      	it	eq
 8000904:	ea95 0f0c 	teqeq	r5, ip
 8000908:	f43f af3b 	beq.w	8000782 <__aeabi_dmul+0x24a>
 800090c:	ea94 0f0c 	teq	r4, ip
 8000910:	d10a      	bne.n	8000928 <__aeabi_ddiv+0x19c>
 8000912:	ea50 3401 	orrs.w	r4, r0, r1, lsl #12
 8000916:	f47f af34 	bne.w	8000782 <__aeabi_dmul+0x24a>
 800091a:	ea95 0f0c 	teq	r5, ip
 800091e:	f47f af25 	bne.w	800076c <__aeabi_dmul+0x234>
 8000922:	4610      	mov	r0, r2
 8000924:	4619      	mov	r1, r3
 8000926:	e72c      	b.n	8000782 <__aeabi_dmul+0x24a>
 8000928:	ea95 0f0c 	teq	r5, ip
 800092c:	d106      	bne.n	800093c <__aeabi_ddiv+0x1b0>
 800092e:	ea52 3503 	orrs.w	r5, r2, r3, lsl #12
 8000932:	f43f aefd 	beq.w	8000730 <__aeabi_dmul+0x1f8>
 8000936:	4610      	mov	r0, r2
 8000938:	4619      	mov	r1, r3
 800093a:	e722      	b.n	8000782 <__aeabi_dmul+0x24a>
 800093c:	ea50 0641 	orrs.w	r6, r0, r1, lsl #1
 8000940:	bf18      	it	ne
 8000942:	ea52 0643 	orrsne.w	r6, r2, r3, lsl #1
 8000946:	f47f aec5 	bne.w	80006d4 <__aeabi_dmul+0x19c>
 800094a:	ea50 0441 	orrs.w	r4, r0, r1, lsl #1
 800094e:	f47f af0d 	bne.w	800076c <__aeabi_dmul+0x234>
 8000952:	ea52 0543 	orrs.w	r5, r2, r3, lsl #1
 8000956:	f47f aeeb 	bne.w	8000730 <__aeabi_dmul+0x1f8>
 800095a:	e712      	b.n	8000782 <__aeabi_dmul+0x24a>

0800095c <__gedf2>:
 800095c:	f04f 3cff 	mov.w	ip, #4294967295
 8000960:	e006      	b.n	8000970 <__cmpdf2+0x4>
 8000962:	bf00      	nop

08000964 <__ledf2>:
 8000964:	f04f 0c01 	mov.w	ip, #1
 8000968:	e002      	b.n	8000970 <__cmpdf2+0x4>
 800096a:	bf00      	nop

0800096c <__cmpdf2>:
 800096c:	f04f 0c01 	mov.w	ip, #1
 8000970:	f84d cd04 	str.w	ip, [sp, #-4]!
 8000974:	ea4f 0c41 	mov.w	ip, r1, lsl #1
 8000978:	ea7f 5c6c 	mvns.w	ip, ip, asr #21
 800097c:	ea4f 0c43 	mov.w	ip, r3, lsl #1
 8000980:	bf18      	it	ne
 8000982:	ea7f 5c6c 	mvnsne.w	ip, ip, asr #21
 8000986:	d01b      	beq.n	80009c0 <__cmpdf2+0x54>
 8000988:	b001      	add	sp, #4
 800098a:	ea50 0c41 	orrs.w	ip, r0, r1, lsl #1
 800098e:	bf0c      	ite	eq
 8000990:	ea52 0c43 	orrseq.w	ip, r2, r3, lsl #1
 8000994:	ea91 0f03 	teqne	r1, r3
 8000998:	bf02      	ittt	eq
 800099a:	ea90 0f02 	teqeq	r0, r2
 800099e:	2000      	moveq	r0, #0
 80009a0:	4770      	bxeq	lr
 80009a2:	f110 0f00 	cmn.w	r0, #0
 80009a6:	ea91 0f03 	teq	r1, r3
 80009aa:	bf58      	it	pl
 80009ac:	4299      	cmppl	r1, r3
 80009ae:	bf08      	it	eq
 80009b0:	4290      	cmpeq	r0, r2
 80009b2:	bf2c      	ite	cs
 80009b4:	17d8      	asrcs	r0, r3, #31
 80009b6:	ea6f 70e3 	mvncc.w	r0, r3, asr #31
 80009ba:	f040 0001 	orr.w	r0, r0, #1
 80009be:	4770      	bx	lr
 80009c0:	ea4f 0c41 	mov.w	ip, r1, lsl #1
 80009c4:	ea7f 5c6c 	mvns.w	ip, ip, asr #21
 80009c8:	d102      	bne.n	80009d0 <__cmpdf2+0x64>
 80009ca:	ea50 3c01 	orrs.w	ip, r0, r1, lsl #12
 80009ce:	d107      	bne.n	80009e0 <__cmpdf2+0x74>
 80009d0:	ea4f 0c43 	mov.w	ip, r3, lsl #1
 80009d4:	ea7f 5c6c 	mvns.w	ip, ip, asr #21
 80009d8:	d1d6      	bne.n	8000988 <__cmpdf2+0x1c>
 80009da:	ea52 3c03 	orrs.w	ip, r2, r3, lsl #12
 80009de:	d0d3      	beq.n	8000988 <__cmpdf2+0x1c>
 80009e0:	f85d 0b04 	ldr.w	r0, [sp], #4
 80009e4:	4770      	bx	lr
 80009e6:	bf00      	nop

080009e8 <__aeabi_cdrcmple>:
 80009e8:	4684      	mov	ip, r0
 80009ea:	4610      	mov	r0, r2
 80009ec:	4662      	mov	r2, ip
 80009ee:	468c      	mov	ip, r1
 80009f0:	4619      	mov	r1, r3
 80009f2:	4663      	mov	r3, ip
 80009f4:	e000      	b.n	80009f8 <__aeabi_cdcmpeq>
 80009f6:	bf00      	nop

080009f8 <__aeabi_cdcmpeq>:
 80009f8:	b501      	push	{r0, lr}
 80009fa:	f7ff ffb7 	bl	800096c <__cmpdf2>
 80009fe:	2800      	cmp	r0, #0
 8000a00:	bf48      	it	mi
 8000a02:	f110 0f00 	cmnmi.w	r0, #0
 8000a06:	bd01      	pop	{r0, pc}

08000a08 <__aeabi_dcmpeq>:
 8000a08:	f84d ed08 	str.w	lr, [sp, #-8]!
 8000a0c:	f7ff fff4 	bl	80009f8 <__aeabi_cdcmpeq>
 8000a10:	bf0c      	ite	eq
 8000a12:	2001      	moveq	r0, #1
 8000a14:	2000      	movne	r0, #0
 8000a16:	f85d fb08 	ldr.w	pc, [sp], #8
 8000a1a:	bf00      	nop

08000a1c <__aeabi_dcmplt>:
 8000a1c:	f84d ed08 	str.w	lr, [sp, #-8]!
 8000a20:	f7ff ffea 	bl	80009f8 <__aeabi_cdcmpeq>
 8000a24:	bf34      	ite	cc
 8000a26:	2001      	movcc	r0, #1
 8000a28:	2000      	movcs	r0, #0
 8000a2a:	f85d fb08 	ldr.w	pc, [sp], #8
 8000a2e:	bf00      	nop

08000a30 <__aeabi_dcmple>:
 8000a30:	f84d ed08 	str.w	lr, [sp, #-8]!
 8000a34:	f7ff ffe0 	bl	80009f8 <__aeabi_cdcmpeq>
 8000a38:	bf94      	ite	ls
 8000a3a:	2001      	movls	r0, #1
 8000a3c:	2000      	movhi	r0, #0
 8000a3e:	f85d fb08 	ldr.w	pc, [sp], #8
 8000a42:	bf00      	nop

08000a44 <__aeabi_dcmpge>:
 8000a44:	f84d ed08 	str.w	lr, [sp, #-8]!
 8000a48:	f7ff ffce 	bl	80009e8 <__aeabi_cdrcmple>
 8000a4c:	bf94      	ite	ls
 8000a4e:	2001      	movls	r0, #1
 8000a50:	2000      	movhi	r0, #0
 8000a52:	f85d fb08 	ldr.w	pc, [sp], #8
 8000a56:	bf00      	nop

08000a58 <__aeabi_dcmpgt>:
 8000a58:	f84d ed08 	str.w	lr, [sp, #-8]!
 8000a5c:	f7ff ffc4 	bl	80009e8 <__aeabi_cdrcmple>
 8000a60:	bf34      	ite	cc
 8000a62:	2001      	movcc	r0, #1
 8000a64:	2000      	movcs	r0, #0
 8000a66:	f85d fb08 	ldr.w	pc, [sp], #8
 8000a6a:	bf00      	nop

08000a6c <__aeabi_d2uiz>:
 8000a6c:	004a      	lsls	r2, r1, #1
 8000a6e:	d211      	bcs.n	8000a94 <__aeabi_d2uiz+0x28>
 8000a70:	f512 1200 	adds.w	r2, r2, #2097152	; 0x200000
 8000a74:	d211      	bcs.n	8000a9a <__aeabi_d2uiz+0x2e>
 8000a76:	d50d      	bpl.n	8000a94 <__aeabi_d2uiz+0x28>
 8000a78:	f46f 7378 	mvn.w	r3, #992	; 0x3e0
 8000a7c:	ebb3 5262 	subs.w	r2, r3, r2, asr #21
 8000a80:	d40e      	bmi.n	8000aa0 <__aeabi_d2uiz+0x34>
 8000a82:	ea4f 23c1 	mov.w	r3, r1, lsl #11
 8000a86:	f043 4300 	orr.w	r3, r3, #2147483648	; 0x80000000
 8000a8a:	ea43 5350 	orr.w	r3, r3, r0, lsr #21
 8000a8e:	fa23 f002 	lsr.w	r0, r3, r2
 8000a92:	4770      	bx	lr
 8000a94:	f04f 0000 	mov.w	r0, #0
 8000a98:	4770      	bx	lr
 8000a9a:	ea50 3001 	orrs.w	r0, r0, r1, lsl #12
 8000a9e:	d102      	bne.n	8000aa6 <__aeabi_d2uiz+0x3a>
 8000aa0:	f04f 30ff 	mov.w	r0, #4294967295
 8000aa4:	4770      	bx	lr
 8000aa6:	f04f 0000 	mov.w	r0, #0
 8000aaa:	4770      	bx	lr

08000aac <NVIC_PriorityGroupConfig>:
  * @note   When the NVIC_PriorityGroup_0 is selected, IRQ pre-emption is no more possible. 
  *         The pending IRQ priority will be managed only by the subpriority. 
  * @retval None
  */
void NVIC_PriorityGroupConfig(uint32_t NVIC_PriorityGroup)
{
 8000aac:	b480      	push	{r7}
 8000aae:	b083      	sub	sp, #12
 8000ab0:	af00      	add	r7, sp, #0
 8000ab2:	6078      	str	r0, [r7, #4]
  /* Check the parameters */
  assert_param(IS_NVIC_PRIORITY_GROUP(NVIC_PriorityGroup));
  
  /* Set the PRIGROUP[10:8] bits according to NVIC_PriorityGroup value */
  SCB->AIRCR = AIRCR_VECTKEY_MASK | NVIC_PriorityGroup;
 8000ab4:	4a06      	ldr	r2, [pc, #24]	; (8000ad0 <NVIC_PriorityGroupConfig+0x24>)
 8000ab6:	687b      	ldr	r3, [r7, #4]
 8000ab8:	f043 63bf 	orr.w	r3, r3, #100139008	; 0x5f80000
 8000abc:	f443 3300 	orr.w	r3, r3, #131072	; 0x20000
 8000ac0:	60d3      	str	r3, [r2, #12]
}
 8000ac2:	bf00      	nop
 8000ac4:	370c      	adds	r7, #12
 8000ac6:	46bd      	mov	sp, r7
 8000ac8:	f85d 7b04 	ldr.w	r7, [sp], #4
 8000acc:	4770      	bx	lr
 8000ace:	bf00      	nop
 8000ad0:	e000ed00 	.word	0xe000ed00

08000ad4 <NVIC_Init>:
  * @param  NVIC_InitStruct: pointer to a NVIC_InitTypeDef structure that contains
  *         the configuration information for the specified NVIC peripheral.
  * @retval None
  */
void NVIC_Init(NVIC_InitTypeDef* NVIC_InitStruct)
{
 8000ad4:	b480      	push	{r7}
 8000ad6:	b085      	sub	sp, #20
 8000ad8:	af00      	add	r7, sp, #0
 8000ada:	6078      	str	r0, [r7, #4]
  uint8_t tmppriority = 0x00, tmppre = 0x00, tmpsub = 0x0F;
 8000adc:	2300      	movs	r3, #0
 8000ade:	73fb      	strb	r3, [r7, #15]
 8000ae0:	2300      	movs	r3, #0
 8000ae2:	73bb      	strb	r3, [r7, #14]
 8000ae4:	230f      	movs	r3, #15
 8000ae6:	737b      	strb	r3, [r7, #13]
  /* Check the parameters */
  assert_param(IS_FUNCTIONAL_STATE(NVIC_InitStruct->NVIC_IRQChannelCmd));
  assert_param(IS_NVIC_PREEMPTION_PRIORITY(NVIC_InitStruct->NVIC_IRQChannelPreemptionPriority));  
  assert_param(IS_NVIC_SUB_PRIORITY(NVIC_InitStruct->NVIC_IRQChannelSubPriority));
    
  if (NVIC_InitStruct->NVIC_IRQChannelCmd != DISABLE)
 8000ae8:	687b      	ldr	r3, [r7, #4]
 8000aea:	78db      	ldrb	r3, [r3, #3]
 8000aec:	2b00      	cmp	r3, #0
 8000aee:	d039      	beq.n	8000b64 <NVIC_Init+0x90>
  {
    /* Compute the Corresponding IRQ Priority --------------------------------*/    
    tmppriority = (0x700 - ((SCB->AIRCR) & (uint32_t)0x700))>> 0x08;
 8000af0:	4b27      	ldr	r3, [pc, #156]	; (8000b90 <NVIC_Init+0xbc>)
 8000af2:	68db      	ldr	r3, [r3, #12]
 8000af4:	43db      	mvns	r3, r3
 8000af6:	0a1b      	lsrs	r3, r3, #8
 8000af8:	b2db      	uxtb	r3, r3
 8000afa:	f003 0307 	and.w	r3, r3, #7
 8000afe:	73fb      	strb	r3, [r7, #15]
    tmppre = (0x4 - tmppriority);
 8000b00:	7bfb      	ldrb	r3, [r7, #15]
 8000b02:	f1c3 0304 	rsb	r3, r3, #4
 8000b06:	73bb      	strb	r3, [r7, #14]
    tmpsub = tmpsub >> tmppriority;
 8000b08:	7b7a      	ldrb	r2, [r7, #13]
 8000b0a:	7bfb      	ldrb	r3, [r7, #15]
 8000b0c:	fa42 f303 	asr.w	r3, r2, r3
 8000b10:	737b      	strb	r3, [r7, #13]

    tmppriority = NVIC_InitStruct->NVIC_IRQChannelPreemptionPriority << tmppre;
 8000b12:	687b      	ldr	r3, [r7, #4]
 8000b14:	785b      	ldrb	r3, [r3, #1]
 8000b16:	461a      	mov	r2, r3
 8000b18:	7bbb      	ldrb	r3, [r7, #14]
 8000b1a:	fa02 f303 	lsl.w	r3, r2, r3
 8000b1e:	73fb      	strb	r3, [r7, #15]
    tmppriority |=  (uint8_t)(NVIC_InitStruct->NVIC_IRQChannelSubPriority & tmpsub);
 8000b20:	687b      	ldr	r3, [r7, #4]
 8000b22:	789a      	ldrb	r2, [r3, #2]
 8000b24:	7b7b      	ldrb	r3, [r7, #13]
 8000b26:	4013      	ands	r3, r2
 8000b28:	b2da      	uxtb	r2, r3
 8000b2a:	7bfb      	ldrb	r3, [r7, #15]
 8000b2c:	4313      	orrs	r3, r2
 8000b2e:	73fb      	strb	r3, [r7, #15]
        
    tmppriority = tmppriority << 0x04;
 8000b30:	7bfb      	ldrb	r3, [r7, #15]
 8000b32:	011b      	lsls	r3, r3, #4
 8000b34:	73fb      	strb	r3, [r7, #15]
        
    NVIC->IP[NVIC_InitStruct->NVIC_IRQChannel] = tmppriority;
 8000b36:	4a17      	ldr	r2, [pc, #92]	; (8000b94 <NVIC_Init+0xc0>)
 8000b38:	687b      	ldr	r3, [r7, #4]
 8000b3a:	781b      	ldrb	r3, [r3, #0]
 8000b3c:	4413      	add	r3, r2
 8000b3e:	7bfa      	ldrb	r2, [r7, #15]
 8000b40:	f883 2300 	strb.w	r2, [r3, #768]	; 0x300
    
    /* Enable the Selected IRQ Channels --------------------------------------*/
    NVIC->ISER[NVIC_InitStruct->NVIC_IRQChannel >> 0x05] =
 8000b44:	4a13      	ldr	r2, [pc, #76]	; (8000b94 <NVIC_Init+0xc0>)
 8000b46:	687b      	ldr	r3, [r7, #4]
 8000b48:	781b      	ldrb	r3, [r3, #0]
 8000b4a:	095b      	lsrs	r3, r3, #5
 8000b4c:	b2db      	uxtb	r3, r3
 8000b4e:	4618      	mov	r0, r3
      (uint32_t)0x01 << (NVIC_InitStruct->NVIC_IRQChannel & (uint8_t)0x1F);
 8000b50:	687b      	ldr	r3, [r7, #4]
 8000b52:	781b      	ldrb	r3, [r3, #0]
 8000b54:	f003 031f 	and.w	r3, r3, #31
 8000b58:	2101      	movs	r1, #1
 8000b5a:	fa01 f303 	lsl.w	r3, r1, r3
    NVIC->ISER[NVIC_InitStruct->NVIC_IRQChannel >> 0x05] =
 8000b5e:	f842 3020 	str.w	r3, [r2, r0, lsl #2]
  {
    /* Disable the Selected IRQ Channels -------------------------------------*/
    NVIC->ICER[NVIC_InitStruct->NVIC_IRQChannel >> 0x05] =
      (uint32_t)0x01 << (NVIC_InitStruct->NVIC_IRQChannel & (uint8_t)0x1F);
  }
}
 8000b62:	e00f      	b.n	8000b84 <NVIC_Init+0xb0>
    NVIC->ICER[NVIC_InitStruct->NVIC_IRQChannel >> 0x05] =
 8000b64:	490b      	ldr	r1, [pc, #44]	; (8000b94 <NVIC_Init+0xc0>)
 8000b66:	687b      	ldr	r3, [r7, #4]
 8000b68:	781b      	ldrb	r3, [r3, #0]
 8000b6a:	095b      	lsrs	r3, r3, #5
 8000b6c:	b2db      	uxtb	r3, r3
 8000b6e:	4618      	mov	r0, r3
      (uint32_t)0x01 << (NVIC_InitStruct->NVIC_IRQChannel & (uint8_t)0x1F);
 8000b70:	687b      	ldr	r3, [r7, #4]
 8000b72:	781b      	ldrb	r3, [r3, #0]
 8000b74:	f003 031f 	and.w	r3, r3, #31
 8000b78:	2201      	movs	r2, #1
 8000b7a:	409a      	lsls	r2, r3
    NVIC->ICER[NVIC_InitStruct->NVIC_IRQChannel >> 0x05] =
 8000b7c:	f100 0320 	add.w	r3, r0, #32
 8000b80:	f841 2023 	str.w	r2, [r1, r3, lsl #2]
}
 8000b84:	bf00      	nop
 8000b86:	3714      	adds	r7, #20
 8000b88:	46bd      	mov	sp, r7
 8000b8a:	f85d 7b04 	ldr.w	r7, [sp], #4
 8000b8e:	4770      	bx	lr
 8000b90:	e000ed00 	.word	0xe000ed00
 8000b94:	e000e100 	.word	0xe000e100

08000b98 <ADC_Init>:
  * @param  ADC_InitStruct: pointer to an ADC_InitTypeDef structure that contains
  *         the configuration information for the specified ADC peripheral.
  * @retval None
  */
void ADC_Init(ADC_TypeDef* ADCx, ADC_InitTypeDef* ADC_InitStruct)
{
 8000b98:	b480      	push	{r7}
 8000b9a:	b085      	sub	sp, #20
 8000b9c:	af00      	add	r7, sp, #0
 8000b9e:	6078      	str	r0, [r7, #4]
 8000ba0:	6039      	str	r1, [r7, #0]
  uint32_t tmpreg1 = 0;
 8000ba2:	2300      	movs	r3, #0
 8000ba4:	60fb      	str	r3, [r7, #12]
  uint8_t tmpreg2 = 0;
 8000ba6:	2300      	movs	r3, #0
 8000ba8:	72fb      	strb	r3, [r7, #11]
  assert_param(IS_ADC_DATA_ALIGN(ADC_InitStruct->ADC_DataAlign)); 
  assert_param(IS_ADC_REGULAR_LENGTH(ADC_InitStruct->ADC_NbrOfConversion));
  
  /*---------------------------- ADCx CR1 Configuration -----------------*/
  /* Get the ADCx CR1 value */
  tmpreg1 = ADCx->CR1;
 8000baa:	687b      	ldr	r3, [r7, #4]
 8000bac:	685b      	ldr	r3, [r3, #4]
 8000bae:	60fb      	str	r3, [r7, #12]
  
  /* Clear RES and SCAN bits */
  tmpreg1 &= CR1_CLEAR_MASK;
 8000bb0:	68fb      	ldr	r3, [r7, #12]
 8000bb2:	f023 7340 	bic.w	r3, r3, #50331648	; 0x3000000
 8000bb6:	f423 7380 	bic.w	r3, r3, #256	; 0x100
 8000bba:	60fb      	str	r3, [r7, #12]
  
  /* Configure ADCx: scan conversion mode and resolution */
  /* Set SCAN bit according to ADC_ScanConvMode value */
  /* Set RES bit according to ADC_Resolution value */ 
  tmpreg1 |= (uint32_t)(((uint32_t)ADC_InitStruct->ADC_ScanConvMode << 8) | \
 8000bbc:	683b      	ldr	r3, [r7, #0]
 8000bbe:	791b      	ldrb	r3, [r3, #4]
 8000bc0:	021a      	lsls	r2, r3, #8
                                   ADC_InitStruct->ADC_Resolution);
 8000bc2:	683b      	ldr	r3, [r7, #0]
 8000bc4:	681b      	ldr	r3, [r3, #0]
  tmpreg1 |= (uint32_t)(((uint32_t)ADC_InitStruct->ADC_ScanConvMode << 8) | \
 8000bc6:	4313      	orrs	r3, r2
 8000bc8:	68fa      	ldr	r2, [r7, #12]
 8000bca:	4313      	orrs	r3, r2
 8000bcc:	60fb      	str	r3, [r7, #12]
  /* Write to ADCx CR1 */
  ADCx->CR1 = tmpreg1;
 8000bce:	687b      	ldr	r3, [r7, #4]
 8000bd0:	68fa      	ldr	r2, [r7, #12]
 8000bd2:	605a      	str	r2, [r3, #4]
  /*---------------------------- ADCx CR2 Configuration -----------------*/
  /* Get the ADCx CR2 value */
  tmpreg1 = ADCx->CR2;
 8000bd4:	687b      	ldr	r3, [r7, #4]
 8000bd6:	689b      	ldr	r3, [r3, #8]
 8000bd8:	60fb      	str	r3, [r7, #12]
  
  /* Clear CONT, ALIGN, EXTEN and EXTSEL bits */
  tmpreg1 &= CR2_CLEAR_MASK;
 8000bda:	68fa      	ldr	r2, [r7, #12]
 8000bdc:	4b18      	ldr	r3, [pc, #96]	; (8000c40 <ADC_Init+0xa8>)
 8000bde:	4013      	ands	r3, r2
 8000be0:	60fb      	str	r3, [r7, #12]
     continuous conversion mode */
  /* Set ALIGN bit according to ADC_DataAlign value */
  /* Set EXTEN bits according to ADC_ExternalTrigConvEdge value */ 
  /* Set EXTSEL bits according to ADC_ExternalTrigConv value */
  /* Set CONT bit according to ADC_ContinuousConvMode value */
  tmpreg1 |= (uint32_t)(ADC_InitStruct->ADC_DataAlign | \
 8000be2:	683b      	ldr	r3, [r7, #0]
 8000be4:	691a      	ldr	r2, [r3, #16]
                        ADC_InitStruct->ADC_ExternalTrigConv | 
 8000be6:	683b      	ldr	r3, [r7, #0]
 8000be8:	68db      	ldr	r3, [r3, #12]
  tmpreg1 |= (uint32_t)(ADC_InitStruct->ADC_DataAlign | \
 8000bea:	431a      	orrs	r2, r3
                        ADC_InitStruct->ADC_ExternalTrigConvEdge | \
 8000bec:	683b      	ldr	r3, [r7, #0]
 8000bee:	689b      	ldr	r3, [r3, #8]
                        ADC_InitStruct->ADC_ExternalTrigConv | 
 8000bf0:	431a      	orrs	r2, r3
                        ((uint32_t)ADC_InitStruct->ADC_ContinuousConvMode << 1));
 8000bf2:	683b      	ldr	r3, [r7, #0]
 8000bf4:	795b      	ldrb	r3, [r3, #5]
 8000bf6:	005b      	lsls	r3, r3, #1
  tmpreg1 |= (uint32_t)(ADC_InitStruct->ADC_DataAlign | \
 8000bf8:	4313      	orrs	r3, r2
 8000bfa:	68fa      	ldr	r2, [r7, #12]
 8000bfc:	4313      	orrs	r3, r2
 8000bfe:	60fb      	str	r3, [r7, #12]
                        
  /* Write to ADCx CR2 */
  ADCx->CR2 = tmpreg1;
 8000c00:	687b      	ldr	r3, [r7, #4]
 8000c02:	68fa      	ldr	r2, [r7, #12]
 8000c04:	609a      	str	r2, [r3, #8]
  /*---------------------------- ADCx SQR1 Configuration -----------------*/
  /* Get the ADCx SQR1 value */
  tmpreg1 = ADCx->SQR1;
 8000c06:	687b      	ldr	r3, [r7, #4]
 8000c08:	6adb      	ldr	r3, [r3, #44]	; 0x2c
 8000c0a:	60fb      	str	r3, [r7, #12]
  
  /* Clear L bits */
  tmpreg1 &= SQR1_L_RESET;
 8000c0c:	68fb      	ldr	r3, [r7, #12]
 8000c0e:	f423 0370 	bic.w	r3, r3, #15728640	; 0xf00000
 8000c12:	60fb      	str	r3, [r7, #12]
  
  /* Configure ADCx: regular channel sequence length */
  /* Set L bits according to ADC_NbrOfConversion value */
  tmpreg2 |= (uint8_t)(ADC_InitStruct->ADC_NbrOfConversion - (uint8_t)1);
 8000c14:	683b      	ldr	r3, [r7, #0]
 8000c16:	7d1b      	ldrb	r3, [r3, #20]
 8000c18:	3b01      	subs	r3, #1
 8000c1a:	b2da      	uxtb	r2, r3
 8000c1c:	7afb      	ldrb	r3, [r7, #11]
 8000c1e:	4313      	orrs	r3, r2
 8000c20:	72fb      	strb	r3, [r7, #11]
  tmpreg1 |= ((uint32_t)tmpreg2 << 20);
 8000c22:	7afb      	ldrb	r3, [r7, #11]
 8000c24:	051b      	lsls	r3, r3, #20
 8000c26:	68fa      	ldr	r2, [r7, #12]
 8000c28:	4313      	orrs	r3, r2
 8000c2a:	60fb      	str	r3, [r7, #12]
  
  /* Write to ADCx SQR1 */
  ADCx->SQR1 = tmpreg1;
 8000c2c:	687b      	ldr	r3, [r7, #4]
 8000c2e:	68fa      	ldr	r2, [r7, #12]
 8000c30:	62da      	str	r2, [r3, #44]	; 0x2c
}
 8000c32:	bf00      	nop
 8000c34:	3714      	adds	r7, #20
 8000c36:	46bd      	mov	sp, r7
 8000c38:	f85d 7b04 	ldr.w	r7, [sp], #4
 8000c3c:	4770      	bx	lr
 8000c3e:	bf00      	nop
 8000c40:	c0fff7fd 	.word	0xc0fff7fd

08000c44 <ADC_CommonInit>:
  * @param  ADC_CommonInitStruct: pointer to an ADC_CommonInitTypeDef structure 
  *         that contains the configuration information for  All ADCs peripherals.
  * @retval None
  */
void ADC_CommonInit(ADC_CommonInitTypeDef* ADC_CommonInitStruct)
{
 8000c44:	b480      	push	{r7}
 8000c46:	b085      	sub	sp, #20
 8000c48:	af00      	add	r7, sp, #0
 8000c4a:	6078      	str	r0, [r7, #4]
  uint32_t tmpreg1 = 0;
 8000c4c:	2300      	movs	r3, #0
 8000c4e:	60fb      	str	r3, [r7, #12]
  assert_param(IS_ADC_PRESCALER(ADC_CommonInitStruct->ADC_Prescaler));
  assert_param(IS_ADC_DMA_ACCESS_MODE(ADC_CommonInitStruct->ADC_DMAAccessMode));
  assert_param(IS_ADC_SAMPLING_DELAY(ADC_CommonInitStruct->ADC_TwoSamplingDelay));
  /*---------------------------- ADC CCR Configuration -----------------*/
  /* Get the ADC CCR value */
  tmpreg1 = ADC->CCR;
 8000c50:	4b0e      	ldr	r3, [pc, #56]	; (8000c8c <ADC_CommonInit+0x48>)
 8000c52:	685b      	ldr	r3, [r3, #4]
 8000c54:	60fb      	str	r3, [r7, #12]
  
  /* Clear MULTI, DELAY, DMA and ADCPRE bits */
  tmpreg1 &= CR_CLEAR_MASK;
 8000c56:	68fa      	ldr	r2, [r7, #12]
 8000c58:	4b0d      	ldr	r3, [pc, #52]	; (8000c90 <ADC_CommonInit+0x4c>)
 8000c5a:	4013      	ands	r3, r2
 8000c5c:	60fb      	str	r3, [r7, #12]
     and DMA access mode for multimode */
  /* Set MULTI bits according to ADC_Mode value */
  /* Set ADCPRE bits according to ADC_Prescaler value */
  /* Set DMA bits according to ADC_DMAAccessMode value */
  /* Set DELAY bits according to ADC_TwoSamplingDelay value */    
  tmpreg1 |= (uint32_t)(ADC_CommonInitStruct->ADC_Mode | 
 8000c5e:	687b      	ldr	r3, [r7, #4]
 8000c60:	681a      	ldr	r2, [r3, #0]
                        ADC_CommonInitStruct->ADC_Prescaler | 
 8000c62:	687b      	ldr	r3, [r7, #4]
 8000c64:	685b      	ldr	r3, [r3, #4]
  tmpreg1 |= (uint32_t)(ADC_CommonInitStruct->ADC_Mode | 
 8000c66:	431a      	orrs	r2, r3
                        ADC_CommonInitStruct->ADC_DMAAccessMode | 
 8000c68:	687b      	ldr	r3, [r7, #4]
 8000c6a:	689b      	ldr	r3, [r3, #8]
                        ADC_CommonInitStruct->ADC_Prescaler | 
 8000c6c:	431a      	orrs	r2, r3
                        ADC_CommonInitStruct->ADC_TwoSamplingDelay);
 8000c6e:	687b      	ldr	r3, [r7, #4]
 8000c70:	68db      	ldr	r3, [r3, #12]
                        ADC_CommonInitStruct->ADC_DMAAccessMode | 
 8000c72:	4313      	orrs	r3, r2
  tmpreg1 |= (uint32_t)(ADC_CommonInitStruct->ADC_Mode | 
 8000c74:	68fa      	ldr	r2, [r7, #12]
 8000c76:	4313      	orrs	r3, r2
 8000c78:	60fb      	str	r3, [r7, #12]
                        
  /* Write to ADC CCR */
  ADC->CCR = tmpreg1;
 8000c7a:	4a04      	ldr	r2, [pc, #16]	; (8000c8c <ADC_CommonInit+0x48>)
 8000c7c:	68fb      	ldr	r3, [r7, #12]
 8000c7e:	6053      	str	r3, [r2, #4]
}
 8000c80:	bf00      	nop
 8000c82:	3714      	adds	r7, #20
 8000c84:	46bd      	mov	sp, r7
 8000c86:	f85d 7b04 	ldr.w	r7, [sp], #4
 8000c8a:	4770      	bx	lr
 8000c8c:	40012300 	.word	0x40012300
 8000c90:	fffc30e0 	.word	0xfffc30e0

08000c94 <ADC_Cmd>:
  * @param  NewState: new state of the ADCx peripheral. 
  *          This parameter can be: ENABLE or DISABLE.
  * @retval None
  */
void ADC_Cmd(ADC_TypeDef* ADCx, FunctionalState NewState)
{
 8000c94:	b480      	push	{r7}
 8000c96:	b083      	sub	sp, #12
 8000c98:	af00      	add	r7, sp, #0
 8000c9a:	6078      	str	r0, [r7, #4]
 8000c9c:	460b      	mov	r3, r1
 8000c9e:	70fb      	strb	r3, [r7, #3]
  /* Check the parameters */
  assert_param(IS_ADC_ALL_PERIPH(ADCx));
  assert_param(IS_FUNCTIONAL_STATE(NewState));
  if (NewState != DISABLE)
 8000ca0:	78fb      	ldrb	r3, [r7, #3]
 8000ca2:	2b00      	cmp	r3, #0
 8000ca4:	d006      	beq.n	8000cb4 <ADC_Cmd+0x20>
  {
    /* Set the ADON bit to wake up the ADC from power down mode */
    ADCx->CR2 |= (uint32_t)ADC_CR2_ADON;
 8000ca6:	687b      	ldr	r3, [r7, #4]
 8000ca8:	689b      	ldr	r3, [r3, #8]
 8000caa:	f043 0201 	orr.w	r2, r3, #1
 8000cae:	687b      	ldr	r3, [r7, #4]
 8000cb0:	609a      	str	r2, [r3, #8]
  else
  {
    /* Disable the selected ADC peripheral */
    ADCx->CR2 &= (uint32_t)(~ADC_CR2_ADON);
  }
}
 8000cb2:	e005      	b.n	8000cc0 <ADC_Cmd+0x2c>
    ADCx->CR2 &= (uint32_t)(~ADC_CR2_ADON);
 8000cb4:	687b      	ldr	r3, [r7, #4]
 8000cb6:	689b      	ldr	r3, [r3, #8]
 8000cb8:	f023 0201 	bic.w	r2, r3, #1
 8000cbc:	687b      	ldr	r3, [r7, #4]
 8000cbe:	609a      	str	r2, [r3, #8]
}
 8000cc0:	bf00      	nop
 8000cc2:	370c      	adds	r7, #12
 8000cc4:	46bd      	mov	sp, r7
 8000cc6:	f85d 7b04 	ldr.w	r7, [sp], #4
 8000cca:	4770      	bx	lr

08000ccc <ADC_RegularChannelConfig>:
  *            @arg ADC_SampleTime_144Cycles: Sample time equal to 144 cycles	
  *            @arg ADC_SampleTime_480Cycles: Sample time equal to 480 cycles	
  * @retval None
  */
void ADC_RegularChannelConfig(ADC_TypeDef* ADCx, uint8_t ADC_Channel, uint8_t Rank, uint8_t ADC_SampleTime)
{
 8000ccc:	b480      	push	{r7}
 8000cce:	b085      	sub	sp, #20
 8000cd0:	af00      	add	r7, sp, #0
 8000cd2:	6078      	str	r0, [r7, #4]
 8000cd4:	4608      	mov	r0, r1
 8000cd6:	4611      	mov	r1, r2
 8000cd8:	461a      	mov	r2, r3
 8000cda:	4603      	mov	r3, r0
 8000cdc:	70fb      	strb	r3, [r7, #3]
 8000cde:	460b      	mov	r3, r1
 8000ce0:	70bb      	strb	r3, [r7, #2]
 8000ce2:	4613      	mov	r3, r2
 8000ce4:	707b      	strb	r3, [r7, #1]
  uint32_t tmpreg1 = 0, tmpreg2 = 0;
 8000ce6:	2300      	movs	r3, #0
 8000ce8:	60fb      	str	r3, [r7, #12]
 8000cea:	2300      	movs	r3, #0
 8000cec:	60bb      	str	r3, [r7, #8]
  assert_param(IS_ADC_CHANNEL(ADC_Channel));
  assert_param(IS_ADC_REGULAR_RANK(Rank));
  assert_param(IS_ADC_SAMPLE_TIME(ADC_SampleTime));
  
  /* if ADC_Channel_10 ... ADC_Channel_18 is selected */
  if (ADC_Channel > ADC_Channel_9)
 8000cee:	78fb      	ldrb	r3, [r7, #3]
 8000cf0:	2b09      	cmp	r3, #9
 8000cf2:	d923      	bls.n	8000d3c <ADC_RegularChannelConfig+0x70>
  {
    /* Get the old register value */
    tmpreg1 = ADCx->SMPR1;
 8000cf4:	687b      	ldr	r3, [r7, #4]
 8000cf6:	68db      	ldr	r3, [r3, #12]
 8000cf8:	60fb      	str	r3, [r7, #12]
    
    /* Calculate the mask to clear */
    tmpreg2 = SMPR1_SMP_SET << (3 * (ADC_Channel - 10));
 8000cfa:	78fb      	ldrb	r3, [r7, #3]
 8000cfc:	f1a3 020a 	sub.w	r2, r3, #10
 8000d00:	4613      	mov	r3, r2
 8000d02:	005b      	lsls	r3, r3, #1
 8000d04:	4413      	add	r3, r2
 8000d06:	2207      	movs	r2, #7
 8000d08:	fa02 f303 	lsl.w	r3, r2, r3
 8000d0c:	60bb      	str	r3, [r7, #8]
    
    /* Clear the old sample time */
    tmpreg1 &= ~tmpreg2;
 8000d0e:	68bb      	ldr	r3, [r7, #8]
 8000d10:	43db      	mvns	r3, r3
 8000d12:	68fa      	ldr	r2, [r7, #12]
 8000d14:	4013      	ands	r3, r2
 8000d16:	60fb      	str	r3, [r7, #12]
    
    /* Calculate the mask to set */
    tmpreg2 = (uint32_t)ADC_SampleTime << (3 * (ADC_Channel - 10));
 8000d18:	7879      	ldrb	r1, [r7, #1]
 8000d1a:	78fb      	ldrb	r3, [r7, #3]
 8000d1c:	f1a3 020a 	sub.w	r2, r3, #10
 8000d20:	4613      	mov	r3, r2
 8000d22:	005b      	lsls	r3, r3, #1
 8000d24:	4413      	add	r3, r2
 8000d26:	fa01 f303 	lsl.w	r3, r1, r3
 8000d2a:	60bb      	str	r3, [r7, #8]
    
    /* Set the new sample time */
    tmpreg1 |= tmpreg2;
 8000d2c:	68fa      	ldr	r2, [r7, #12]
 8000d2e:	68bb      	ldr	r3, [r7, #8]
 8000d30:	4313      	orrs	r3, r2
 8000d32:	60fb      	str	r3, [r7, #12]
    
    /* Store the new register value */
    ADCx->SMPR1 = tmpreg1;
 8000d34:	687b      	ldr	r3, [r7, #4]
 8000d36:	68fa      	ldr	r2, [r7, #12]
 8000d38:	60da      	str	r2, [r3, #12]
 8000d3a:	e01e      	b.n	8000d7a <ADC_RegularChannelConfig+0xae>
  }
  else /* ADC_Channel include in ADC_Channel_[0..9] */
  {
    /* Get the old register value */
    tmpreg1 = ADCx->SMPR2;
 8000d3c:	687b      	ldr	r3, [r7, #4]
 8000d3e:	691b      	ldr	r3, [r3, #16]
 8000d40:	60fb      	str	r3, [r7, #12]
    
    /* Calculate the mask to clear */
    tmpreg2 = SMPR2_SMP_SET << (3 * ADC_Channel);
 8000d42:	78fa      	ldrb	r2, [r7, #3]
 8000d44:	4613      	mov	r3, r2
 8000d46:	005b      	lsls	r3, r3, #1
 8000d48:	4413      	add	r3, r2
 8000d4a:	2207      	movs	r2, #7
 8000d4c:	fa02 f303 	lsl.w	r3, r2, r3
 8000d50:	60bb      	str	r3, [r7, #8]
    
    /* Clear the old sample time */
    tmpreg1 &= ~tmpreg2;
 8000d52:	68bb      	ldr	r3, [r7, #8]
 8000d54:	43db      	mvns	r3, r3
 8000d56:	68fa      	ldr	r2, [r7, #12]
 8000d58:	4013      	ands	r3, r2
 8000d5a:	60fb      	str	r3, [r7, #12]
    
    /* Calculate the mask to set */
    tmpreg2 = (uint32_t)ADC_SampleTime << (3 * ADC_Channel);
 8000d5c:	7879      	ldrb	r1, [r7, #1]
 8000d5e:	78fa      	ldrb	r2, [r7, #3]
 8000d60:	4613      	mov	r3, r2
 8000d62:	005b      	lsls	r3, r3, #1
 8000d64:	4413      	add	r3, r2
 8000d66:	fa01 f303 	lsl.w	r3, r1, r3
 8000d6a:	60bb      	str	r3, [r7, #8]
    
    /* Set the new sample time */
    tmpreg1 |= tmpreg2;
 8000d6c:	68fa      	ldr	r2, [r7, #12]
 8000d6e:	68bb      	ldr	r3, [r7, #8]
 8000d70:	4313      	orrs	r3, r2
 8000d72:	60fb      	str	r3, [r7, #12]
    
    /* Store the new register value */
    ADCx->SMPR2 = tmpreg1;
 8000d74:	687b      	ldr	r3, [r7, #4]
 8000d76:	68fa      	ldr	r2, [r7, #12]
 8000d78:	611a      	str	r2, [r3, #16]
  }
  /* For Rank 1 to 6 */
  if (Rank < 7)
 8000d7a:	78bb      	ldrb	r3, [r7, #2]
 8000d7c:	2b06      	cmp	r3, #6
 8000d7e:	d821      	bhi.n	8000dc4 <ADC_RegularChannelConfig+0xf8>
  {
    /* Get the old register value */
    tmpreg1 = ADCx->SQR3;
 8000d80:	687b      	ldr	r3, [r7, #4]
 8000d82:	6b5b      	ldr	r3, [r3, #52]	; 0x34
 8000d84:	60fb      	str	r3, [r7, #12]
    
    /* Calculate the mask to clear */
    tmpreg2 = SQR3_SQ_SET << (5 * (Rank - 1));
 8000d86:	78bb      	ldrb	r3, [r7, #2]
 8000d88:	1e5a      	subs	r2, r3, #1
 8000d8a:	4613      	mov	r3, r2
 8000d8c:	009b      	lsls	r3, r3, #2
 8000d8e:	4413      	add	r3, r2
 8000d90:	221f      	movs	r2, #31
 8000d92:	fa02 f303 	lsl.w	r3, r2, r3
 8000d96:	60bb      	str	r3, [r7, #8]
    
    /* Clear the old SQx bits for the selected rank */
    tmpreg1 &= ~tmpreg2;
 8000d98:	68bb      	ldr	r3, [r7, #8]
 8000d9a:	43db      	mvns	r3, r3
 8000d9c:	68fa      	ldr	r2, [r7, #12]
 8000d9e:	4013      	ands	r3, r2
 8000da0:	60fb      	str	r3, [r7, #12]
    
    /* Calculate the mask to set */
    tmpreg2 = (uint32_t)ADC_Channel << (5 * (Rank - 1));
 8000da2:	78f9      	ldrb	r1, [r7, #3]
 8000da4:	78bb      	ldrb	r3, [r7, #2]
 8000da6:	1e5a      	subs	r2, r3, #1
 8000da8:	4613      	mov	r3, r2
 8000daa:	009b      	lsls	r3, r3, #2
 8000dac:	4413      	add	r3, r2
 8000dae:	fa01 f303 	lsl.w	r3, r1, r3
 8000db2:	60bb      	str	r3, [r7, #8]
    
    /* Set the SQx bits for the selected rank */
    tmpreg1 |= tmpreg2;
 8000db4:	68fa      	ldr	r2, [r7, #12]
 8000db6:	68bb      	ldr	r3, [r7, #8]
 8000db8:	4313      	orrs	r3, r2
 8000dba:	60fb      	str	r3, [r7, #12]
    
    /* Store the new register value */
    ADCx->SQR3 = tmpreg1;
 8000dbc:	687b      	ldr	r3, [r7, #4]
 8000dbe:	68fa      	ldr	r2, [r7, #12]
 8000dc0:	635a      	str	r2, [r3, #52]	; 0x34
    tmpreg1 |= tmpreg2;
    
    /* Store the new register value */
    ADCx->SQR1 = tmpreg1;
  }
}
 8000dc2:	e047      	b.n	8000e54 <ADC_RegularChannelConfig+0x188>
  else if (Rank < 13)
 8000dc4:	78bb      	ldrb	r3, [r7, #2]
 8000dc6:	2b0c      	cmp	r3, #12
 8000dc8:	d821      	bhi.n	8000e0e <ADC_RegularChannelConfig+0x142>
    tmpreg1 = ADCx->SQR2;
 8000dca:	687b      	ldr	r3, [r7, #4]
 8000dcc:	6b1b      	ldr	r3, [r3, #48]	; 0x30
 8000dce:	60fb      	str	r3, [r7, #12]
    tmpreg2 = SQR2_SQ_SET << (5 * (Rank - 7));
 8000dd0:	78bb      	ldrb	r3, [r7, #2]
 8000dd2:	1fda      	subs	r2, r3, #7
 8000dd4:	4613      	mov	r3, r2
 8000dd6:	009b      	lsls	r3, r3, #2
 8000dd8:	4413      	add	r3, r2
 8000dda:	221f      	movs	r2, #31
 8000ddc:	fa02 f303 	lsl.w	r3, r2, r3
 8000de0:	60bb      	str	r3, [r7, #8]
    tmpreg1 &= ~tmpreg2;
 8000de2:	68bb      	ldr	r3, [r7, #8]
 8000de4:	43db      	mvns	r3, r3
 8000de6:	68fa      	ldr	r2, [r7, #12]
 8000de8:	4013      	ands	r3, r2
 8000dea:	60fb      	str	r3, [r7, #12]
    tmpreg2 = (uint32_t)ADC_Channel << (5 * (Rank - 7));
 8000dec:	78f9      	ldrb	r1, [r7, #3]
 8000dee:	78bb      	ldrb	r3, [r7, #2]
 8000df0:	1fda      	subs	r2, r3, #7
 8000df2:	4613      	mov	r3, r2
 8000df4:	009b      	lsls	r3, r3, #2
 8000df6:	4413      	add	r3, r2
 8000df8:	fa01 f303 	lsl.w	r3, r1, r3
 8000dfc:	60bb      	str	r3, [r7, #8]
    tmpreg1 |= tmpreg2;
 8000dfe:	68fa      	ldr	r2, [r7, #12]
 8000e00:	68bb      	ldr	r3, [r7, #8]
 8000e02:	4313      	orrs	r3, r2
 8000e04:	60fb      	str	r3, [r7, #12]
    ADCx->SQR2 = tmpreg1;
 8000e06:	687b      	ldr	r3, [r7, #4]
 8000e08:	68fa      	ldr	r2, [r7, #12]
 8000e0a:	631a      	str	r2, [r3, #48]	; 0x30
}
 8000e0c:	e022      	b.n	8000e54 <ADC_RegularChannelConfig+0x188>
    tmpreg1 = ADCx->SQR1;
 8000e0e:	687b      	ldr	r3, [r7, #4]
 8000e10:	6adb      	ldr	r3, [r3, #44]	; 0x2c
 8000e12:	60fb      	str	r3, [r7, #12]
    tmpreg2 = SQR1_SQ_SET << (5 * (Rank - 13));
 8000e14:	78bb      	ldrb	r3, [r7, #2]
 8000e16:	f1a3 020d 	sub.w	r2, r3, #13
 8000e1a:	4613      	mov	r3, r2
 8000e1c:	009b      	lsls	r3, r3, #2
 8000e1e:	4413      	add	r3, r2
 8000e20:	221f      	movs	r2, #31
 8000e22:	fa02 f303 	lsl.w	r3, r2, r3
 8000e26:	60bb      	str	r3, [r7, #8]
    tmpreg1 &= ~tmpreg2;
 8000e28:	68bb      	ldr	r3, [r7, #8]
 8000e2a:	43db      	mvns	r3, r3
 8000e2c:	68fa      	ldr	r2, [r7, #12]
 8000e2e:	4013      	ands	r3, r2
 8000e30:	60fb      	str	r3, [r7, #12]
    tmpreg2 = (uint32_t)ADC_Channel << (5 * (Rank - 13));
 8000e32:	78f9      	ldrb	r1, [r7, #3]
 8000e34:	78bb      	ldrb	r3, [r7, #2]
 8000e36:	f1a3 020d 	sub.w	r2, r3, #13
 8000e3a:	4613      	mov	r3, r2
 8000e3c:	009b      	lsls	r3, r3, #2
 8000e3e:	4413      	add	r3, r2
 8000e40:	fa01 f303 	lsl.w	r3, r1, r3
 8000e44:	60bb      	str	r3, [r7, #8]
    tmpreg1 |= tmpreg2;
 8000e46:	68fa      	ldr	r2, [r7, #12]
 8000e48:	68bb      	ldr	r3, [r7, #8]
 8000e4a:	4313      	orrs	r3, r2
 8000e4c:	60fb      	str	r3, [r7, #12]
    ADCx->SQR1 = tmpreg1;
 8000e4e:	687b      	ldr	r3, [r7, #4]
 8000e50:	68fa      	ldr	r2, [r7, #12]
 8000e52:	62da      	str	r2, [r3, #44]	; 0x2c
}
 8000e54:	bf00      	nop
 8000e56:	3714      	adds	r7, #20
 8000e58:	46bd      	mov	sp, r7
 8000e5a:	f85d 7b04 	ldr.w	r7, [sp], #4
 8000e5e:	4770      	bx	lr

08000e60 <ADC_SoftwareStartConv>:
  * @brief  Enables the selected ADC software start conversion of the regular channels.
  * @param  ADCx: where x can be 1, 2 or 3 to select the ADC peripheral.
  * @retval None
  */
void ADC_SoftwareStartConv(ADC_TypeDef* ADCx)
{
 8000e60:	b480      	push	{r7}
 8000e62:	b083      	sub	sp, #12
 8000e64:	af00      	add	r7, sp, #0
 8000e66:	6078      	str	r0, [r7, #4]
  /* Check the parameters */
  assert_param(IS_ADC_ALL_PERIPH(ADCx));
  
  /* Enable the selected ADC conversion for regular group */
  ADCx->CR2 |= (uint32_t)ADC_CR2_SWSTART;
 8000e68:	687b      	ldr	r3, [r7, #4]
 8000e6a:	689b      	ldr	r3, [r3, #8]
 8000e6c:	f043 4280 	orr.w	r2, r3, #1073741824	; 0x40000000
 8000e70:	687b      	ldr	r3, [r7, #4]
 8000e72:	609a      	str	r2, [r3, #8]
}
 8000e74:	bf00      	nop
 8000e76:	370c      	adds	r7, #12
 8000e78:	46bd      	mov	sp, r7
 8000e7a:	f85d 7b04 	ldr.w	r7, [sp], #4
 8000e7e:	4770      	bx	lr

08000e80 <ADC_GetConversionValue>:
  * @brief  Returns the last ADCx conversion result data for regular channel.
  * @param  ADCx: where x can be 1, 2 or 3 to select the ADC peripheral.
  * @retval The Data conversion value.
  */
uint16_t ADC_GetConversionValue(ADC_TypeDef* ADCx)
{
 8000e80:	b480      	push	{r7}
 8000e82:	b083      	sub	sp, #12
 8000e84:	af00      	add	r7, sp, #0
 8000e86:	6078      	str	r0, [r7, #4]
  /* Check the parameters */
  assert_param(IS_ADC_ALL_PERIPH(ADCx));
  
  /* Return the selected ADC conversion value */
  return (uint16_t) ADCx->DR;
 8000e88:	687b      	ldr	r3, [r7, #4]
 8000e8a:	6cdb      	ldr	r3, [r3, #76]	; 0x4c
 8000e8c:	b29b      	uxth	r3, r3
}
 8000e8e:	4618      	mov	r0, r3
 8000e90:	370c      	adds	r7, #12
 8000e92:	46bd      	mov	sp, r7
 8000e94:	f85d 7b04 	ldr.w	r7, [sp], #4
 8000e98:	4770      	bx	lr

08000e9a <ADC_ITConfig>:
  * @param  NewState: new state of the specified ADC interrupts.
  *          This parameter can be: ENABLE or DISABLE.
  * @retval None
  */
void ADC_ITConfig(ADC_TypeDef* ADCx, uint16_t ADC_IT, FunctionalState NewState)  
{
 8000e9a:	b480      	push	{r7}
 8000e9c:	b085      	sub	sp, #20
 8000e9e:	af00      	add	r7, sp, #0
 8000ea0:	6078      	str	r0, [r7, #4]
 8000ea2:	460b      	mov	r3, r1
 8000ea4:	807b      	strh	r3, [r7, #2]
 8000ea6:	4613      	mov	r3, r2
 8000ea8:	707b      	strb	r3, [r7, #1]
  uint32_t itmask = 0;
 8000eaa:	2300      	movs	r3, #0
 8000eac:	60fb      	str	r3, [r7, #12]
  assert_param(IS_ADC_ALL_PERIPH(ADCx));
  assert_param(IS_FUNCTIONAL_STATE(NewState));
  assert_param(IS_ADC_IT(ADC_IT)); 

  /* Get the ADC IT index */
  itmask = (uint8_t)ADC_IT;
 8000eae:	887b      	ldrh	r3, [r7, #2]
 8000eb0:	b2db      	uxtb	r3, r3
 8000eb2:	60fb      	str	r3, [r7, #12]
  itmask = (uint32_t)0x01 << itmask;    
 8000eb4:	2201      	movs	r2, #1
 8000eb6:	68fb      	ldr	r3, [r7, #12]
 8000eb8:	fa02 f303 	lsl.w	r3, r2, r3
 8000ebc:	60fb      	str	r3, [r7, #12]

  if (NewState != DISABLE)
 8000ebe:	787b      	ldrb	r3, [r7, #1]
 8000ec0:	2b00      	cmp	r3, #0
 8000ec2:	d006      	beq.n	8000ed2 <ADC_ITConfig+0x38>
  {
    /* Enable the selected ADC interrupts */
    ADCx->CR1 |= itmask;
 8000ec4:	687b      	ldr	r3, [r7, #4]
 8000ec6:	685a      	ldr	r2, [r3, #4]
 8000ec8:	68fb      	ldr	r3, [r7, #12]
 8000eca:	431a      	orrs	r2, r3
 8000ecc:	687b      	ldr	r3, [r7, #4]
 8000ece:	605a      	str	r2, [r3, #4]
  else
  {
    /* Disable the selected ADC interrupts */
    ADCx->CR1 &= (~(uint32_t)itmask);
  }
}
 8000ed0:	e006      	b.n	8000ee0 <ADC_ITConfig+0x46>
    ADCx->CR1 &= (~(uint32_t)itmask);
 8000ed2:	687b      	ldr	r3, [r7, #4]
 8000ed4:	685a      	ldr	r2, [r3, #4]
 8000ed6:	68fb      	ldr	r3, [r7, #12]
 8000ed8:	43db      	mvns	r3, r3
 8000eda:	401a      	ands	r2, r3
 8000edc:	687b      	ldr	r3, [r7, #4]
 8000ede:	605a      	str	r2, [r3, #4]
}
 8000ee0:	bf00      	nop
 8000ee2:	3714      	adds	r7, #20
 8000ee4:	46bd      	mov	sp, r7
 8000ee6:	f85d 7b04 	ldr.w	r7, [sp], #4
 8000eea:	4770      	bx	lr

08000eec <ADC_ClearITPendingBit>:
  *            @arg ADC_IT_JEOC: End of injected conversion interrupt mask
  *            @arg ADC_IT_OVR: Overrun interrupt mask                         
  * @retval None
  */
void ADC_ClearITPendingBit(ADC_TypeDef* ADCx, uint16_t ADC_IT)
{
 8000eec:	b480      	push	{r7}
 8000eee:	b085      	sub	sp, #20
 8000ef0:	af00      	add	r7, sp, #0
 8000ef2:	6078      	str	r0, [r7, #4]
 8000ef4:	460b      	mov	r3, r1
 8000ef6:	807b      	strh	r3, [r7, #2]
  uint8_t itmask = 0;
 8000ef8:	2300      	movs	r3, #0
 8000efa:	73fb      	strb	r3, [r7, #15]
  /* Check the parameters */
  assert_param(IS_ADC_ALL_PERIPH(ADCx));
  assert_param(IS_ADC_IT(ADC_IT)); 
  /* Get the ADC IT index */
  itmask = (uint8_t)(ADC_IT >> 8);
 8000efc:	887b      	ldrh	r3, [r7, #2]
 8000efe:	0a1b      	lsrs	r3, r3, #8
 8000f00:	b29b      	uxth	r3, r3
 8000f02:	73fb      	strb	r3, [r7, #15]
  /* Clear the selected ADC interrupt pending bits */
  ADCx->SR = ~(uint32_t)itmask;
 8000f04:	7bfb      	ldrb	r3, [r7, #15]
 8000f06:	43da      	mvns	r2, r3
 8000f08:	687b      	ldr	r3, [r7, #4]
 8000f0a:	601a      	str	r2, [r3, #0]
}                    
 8000f0c:	bf00      	nop
 8000f0e:	3714      	adds	r7, #20
 8000f10:	46bd      	mov	sp, r7
 8000f12:	f85d 7b04 	ldr.w	r7, [sp], #4
 8000f16:	4770      	bx	lr

08000f18 <DAC_DeInit>:
  * @brief  Deinitializes the DAC peripheral registers to their default reset values.
  * @param  None
  * @retval None
  */
void DAC_DeInit(void)
{
 8000f18:	b580      	push	{r7, lr}
 8000f1a:	af00      	add	r7, sp, #0
  /* Enable DAC reset state */
  RCC_APB1PeriphResetCmd(RCC_APB1Periph_DAC, ENABLE);
 8000f1c:	2101      	movs	r1, #1
 8000f1e:	f04f 5000 	mov.w	r0, #536870912	; 0x20000000
 8000f22:	f000 fbc1 	bl	80016a8 <RCC_APB1PeriphResetCmd>
  /* Release DAC from reset state */
  RCC_APB1PeriphResetCmd(RCC_APB1Periph_DAC, DISABLE);
 8000f26:	2100      	movs	r1, #0
 8000f28:	f04f 5000 	mov.w	r0, #536870912	; 0x20000000
 8000f2c:	f000 fbbc 	bl	80016a8 <RCC_APB1PeriphResetCmd>
}
 8000f30:	bf00      	nop
 8000f32:	bd80      	pop	{r7, pc}

08000f34 <DAC_Init>:
  * @param  DAC_InitStruct: pointer to a DAC_InitTypeDef structure that contains
  *         the configuration information for the  specified DAC channel.
  * @retval None
  */
void DAC_Init(uint32_t DAC_Channel, DAC_InitTypeDef* DAC_InitStruct)
{
 8000f34:	b480      	push	{r7}
 8000f36:	b085      	sub	sp, #20
 8000f38:	af00      	add	r7, sp, #0
 8000f3a:	6078      	str	r0, [r7, #4]
 8000f3c:	6039      	str	r1, [r7, #0]
  uint32_t tmpreg1 = 0, tmpreg2 = 0;
 8000f3e:	2300      	movs	r3, #0
 8000f40:	60fb      	str	r3, [r7, #12]
 8000f42:	2300      	movs	r3, #0
 8000f44:	60bb      	str	r3, [r7, #8]
  assert_param(IS_DAC_LFSR_UNMASK_TRIANGLE_AMPLITUDE(DAC_InitStruct->DAC_LFSRUnmask_TriangleAmplitude));
  assert_param(IS_DAC_OUTPUT_BUFFER_STATE(DAC_InitStruct->DAC_OutputBuffer));

/*---------------------------- DAC CR Configuration --------------------------*/
  /* Get the DAC CR value */
  tmpreg1 = DAC->CR;
 8000f46:	4b14      	ldr	r3, [pc, #80]	; (8000f98 <DAC_Init+0x64>)
 8000f48:	681b      	ldr	r3, [r3, #0]
 8000f4a:	60fb      	str	r3, [r7, #12]
  /* Clear BOFFx, TENx, TSELx, WAVEx and MAMPx bits */
  tmpreg1 &= ~(CR_CLEAR_MASK << DAC_Channel);
 8000f4c:	f640 72fe 	movw	r2, #4094	; 0xffe
 8000f50:	687b      	ldr	r3, [r7, #4]
 8000f52:	fa02 f303 	lsl.w	r3, r2, r3
 8000f56:	43db      	mvns	r3, r3
 8000f58:	68fa      	ldr	r2, [r7, #12]
 8000f5a:	4013      	ands	r3, r2
 8000f5c:	60fb      	str	r3, [r7, #12]
     wave generation, mask/amplitude for wave generation */
  /* Set TSELx and TENx bits according to DAC_Trigger value */
  /* Set WAVEx bits according to DAC_WaveGeneration value */
  /* Set MAMPx bits according to DAC_LFSRUnmask_TriangleAmplitude value */ 
  /* Set BOFFx bit according to DAC_OutputBuffer value */   
  tmpreg2 = (DAC_InitStruct->DAC_Trigger | DAC_InitStruct->DAC_WaveGeneration |
 8000f5e:	683b      	ldr	r3, [r7, #0]
 8000f60:	681a      	ldr	r2, [r3, #0]
 8000f62:	683b      	ldr	r3, [r7, #0]
 8000f64:	685b      	ldr	r3, [r3, #4]
 8000f66:	431a      	orrs	r2, r3
             DAC_InitStruct->DAC_LFSRUnmask_TriangleAmplitude | \
 8000f68:	683b      	ldr	r3, [r7, #0]
 8000f6a:	689b      	ldr	r3, [r3, #8]
  tmpreg2 = (DAC_InitStruct->DAC_Trigger | DAC_InitStruct->DAC_WaveGeneration |
 8000f6c:	431a      	orrs	r2, r3
             DAC_InitStruct->DAC_OutputBuffer);
 8000f6e:	683b      	ldr	r3, [r7, #0]
 8000f70:	68db      	ldr	r3, [r3, #12]
  tmpreg2 = (DAC_InitStruct->DAC_Trigger | DAC_InitStruct->DAC_WaveGeneration |
 8000f72:	4313      	orrs	r3, r2
 8000f74:	60bb      	str	r3, [r7, #8]
  /* Calculate CR register value depending on DAC_Channel */
  tmpreg1 |= tmpreg2 << DAC_Channel;
 8000f76:	68ba      	ldr	r2, [r7, #8]
 8000f78:	687b      	ldr	r3, [r7, #4]
 8000f7a:	fa02 f303 	lsl.w	r3, r2, r3
 8000f7e:	68fa      	ldr	r2, [r7, #12]
 8000f80:	4313      	orrs	r3, r2
 8000f82:	60fb      	str	r3, [r7, #12]
  /* Write to DAC CR */
  DAC->CR = tmpreg1;
 8000f84:	4a04      	ldr	r2, [pc, #16]	; (8000f98 <DAC_Init+0x64>)
 8000f86:	68fb      	ldr	r3, [r7, #12]
 8000f88:	6013      	str	r3, [r2, #0]
}
 8000f8a:	bf00      	nop
 8000f8c:	3714      	adds	r7, #20
 8000f8e:	46bd      	mov	sp, r7
 8000f90:	f85d 7b04 	ldr.w	r7, [sp], #4
 8000f94:	4770      	bx	lr
 8000f96:	bf00      	nop
 8000f98:	40007400 	.word	0x40007400

08000f9c <DAC_Cmd>:
  *          This parameter can be: ENABLE or DISABLE.
  * @note   When the DAC channel is enabled the trigger source can no more be modified.
  * @retval None
  */
void DAC_Cmd(uint32_t DAC_Channel, FunctionalState NewState)
{
 8000f9c:	b480      	push	{r7}
 8000f9e:	b083      	sub	sp, #12
 8000fa0:	af00      	add	r7, sp, #0
 8000fa2:	6078      	str	r0, [r7, #4]
 8000fa4:	460b      	mov	r3, r1
 8000fa6:	70fb      	strb	r3, [r7, #3]
  /* Check the parameters */
  assert_param(IS_DAC_CHANNEL(DAC_Channel));
  assert_param(IS_FUNCTIONAL_STATE(NewState));

  if (NewState != DISABLE)
 8000fa8:	78fb      	ldrb	r3, [r7, #3]
 8000faa:	2b00      	cmp	r3, #0
 8000fac:	d009      	beq.n	8000fc2 <DAC_Cmd+0x26>
  {
    /* Enable the selected DAC channel */
    DAC->CR |= (DAC_CR_EN1 << DAC_Channel);
 8000fae:	490d      	ldr	r1, [pc, #52]	; (8000fe4 <DAC_Cmd+0x48>)
 8000fb0:	4b0c      	ldr	r3, [pc, #48]	; (8000fe4 <DAC_Cmd+0x48>)
 8000fb2:	681a      	ldr	r2, [r3, #0]
 8000fb4:	2001      	movs	r0, #1
 8000fb6:	687b      	ldr	r3, [r7, #4]
 8000fb8:	fa00 f303 	lsl.w	r3, r0, r3
 8000fbc:	4313      	orrs	r3, r2
 8000fbe:	600b      	str	r3, [r1, #0]
  else
  {
    /* Disable the selected DAC channel */
    DAC->CR &= (~(DAC_CR_EN1 << DAC_Channel));
  }
}
 8000fc0:	e009      	b.n	8000fd6 <DAC_Cmd+0x3a>
    DAC->CR &= (~(DAC_CR_EN1 << DAC_Channel));
 8000fc2:	4908      	ldr	r1, [pc, #32]	; (8000fe4 <DAC_Cmd+0x48>)
 8000fc4:	4b07      	ldr	r3, [pc, #28]	; (8000fe4 <DAC_Cmd+0x48>)
 8000fc6:	681a      	ldr	r2, [r3, #0]
 8000fc8:	2001      	movs	r0, #1
 8000fca:	687b      	ldr	r3, [r7, #4]
 8000fcc:	fa00 f303 	lsl.w	r3, r0, r3
 8000fd0:	43db      	mvns	r3, r3
 8000fd2:	4013      	ands	r3, r2
 8000fd4:	600b      	str	r3, [r1, #0]
}
 8000fd6:	bf00      	nop
 8000fd8:	370c      	adds	r7, #12
 8000fda:	46bd      	mov	sp, r7
 8000fdc:	f85d 7b04 	ldr.w	r7, [sp], #4
 8000fe0:	4770      	bx	lr
 8000fe2:	bf00      	nop
 8000fe4:	40007400 	.word	0x40007400

08000fe8 <DAC_DMACmd>:
  * @note   The DAC channel2 is mapped on DMA1 Stream 6 channel7 which must be
  *          already configured.    
  * @retval None
  */
void DAC_DMACmd(uint32_t DAC_Channel, FunctionalState NewState)
{
 8000fe8:	b480      	push	{r7}
 8000fea:	b083      	sub	sp, #12
 8000fec:	af00      	add	r7, sp, #0
 8000fee:	6078      	str	r0, [r7, #4]
 8000ff0:	460b      	mov	r3, r1
 8000ff2:	70fb      	strb	r3, [r7, #3]
  /* Check the parameters */
  assert_param(IS_DAC_CHANNEL(DAC_Channel));
  assert_param(IS_FUNCTIONAL_STATE(NewState));

  if (NewState != DISABLE)
 8000ff4:	78fb      	ldrb	r3, [r7, #3]
 8000ff6:	2b00      	cmp	r3, #0
 8000ff8:	d00a      	beq.n	8001010 <DAC_DMACmd+0x28>
  {
    /* Enable the selected DAC channel DMA request */
    DAC->CR |= (DAC_CR_DMAEN1 << DAC_Channel);
 8000ffa:	490e      	ldr	r1, [pc, #56]	; (8001034 <DAC_DMACmd+0x4c>)
 8000ffc:	4b0d      	ldr	r3, [pc, #52]	; (8001034 <DAC_DMACmd+0x4c>)
 8000ffe:	681a      	ldr	r2, [r3, #0]
 8001000:	f44f 5080 	mov.w	r0, #4096	; 0x1000
 8001004:	687b      	ldr	r3, [r7, #4]
 8001006:	fa00 f303 	lsl.w	r3, r0, r3
 800100a:	4313      	orrs	r3, r2
 800100c:	600b      	str	r3, [r1, #0]
  else
  {
    /* Disable the selected DAC channel DMA request */
    DAC->CR &= (~(DAC_CR_DMAEN1 << DAC_Channel));
  }
}
 800100e:	e00a      	b.n	8001026 <DAC_DMACmd+0x3e>
    DAC->CR &= (~(DAC_CR_DMAEN1 << DAC_Channel));
 8001010:	4908      	ldr	r1, [pc, #32]	; (8001034 <DAC_DMACmd+0x4c>)
 8001012:	4b08      	ldr	r3, [pc, #32]	; (8001034 <DAC_DMACmd+0x4c>)
 8001014:	681a      	ldr	r2, [r3, #0]
 8001016:	f44f 5080 	mov.w	r0, #4096	; 0x1000
 800101a:	687b      	ldr	r3, [r7, #4]
 800101c:	fa00 f303 	lsl.w	r3, r0, r3
 8001020:	43db      	mvns	r3, r3
 8001022:	4013      	ands	r3, r2
 8001024:	600b      	str	r3, [r1, #0]
}
 8001026:	bf00      	nop
 8001028:	370c      	adds	r7, #12
 800102a:	46bd      	mov	sp, r7
 800102c:	f85d 7b04 	ldr.w	r7, [sp], #4
 8001030:	4770      	bx	lr
 8001032:	bf00      	nop
 8001034:	40007400 	.word	0x40007400

08001038 <DMA_DeInit>:
  * @param  DMAy_Streamx: where y can be 1 or 2 to select the DMA and x can be 0
  *         to 7 to select the DMA Stream.
  * @retval None
  */
void DMA_DeInit(DMA_Stream_TypeDef* DMAy_Streamx)
{
 8001038:	b480      	push	{r7}
 800103a:	b083      	sub	sp, #12
 800103c:	af00      	add	r7, sp, #0
 800103e:	6078      	str	r0, [r7, #4]
  /* Check the parameters */
  assert_param(IS_DMA_ALL_PERIPH(DMAy_Streamx));

  /* Disable the selected DMAy Streamx */
  DMAy_Streamx->CR &= ~((uint32_t)DMA_SxCR_EN);
 8001040:	687b      	ldr	r3, [r7, #4]
 8001042:	681b      	ldr	r3, [r3, #0]
 8001044:	f023 0201 	bic.w	r2, r3, #1
 8001048:	687b      	ldr	r3, [r7, #4]
 800104a:	601a      	str	r2, [r3, #0]

  /* Reset DMAy Streamx control register */
  DMAy_Streamx->CR  = 0;
 800104c:	687b      	ldr	r3, [r7, #4]
 800104e:	2200      	movs	r2, #0
 8001050:	601a      	str	r2, [r3, #0]
  
  /* Reset DMAy Streamx Number of Data to Transfer register */
  DMAy_Streamx->NDTR = 0;
 8001052:	687b      	ldr	r3, [r7, #4]
 8001054:	2200      	movs	r2, #0
 8001056:	605a      	str	r2, [r3, #4]
  
  /* Reset DMAy Streamx peripheral address register */
  DMAy_Streamx->PAR  = 0;
 8001058:	687b      	ldr	r3, [r7, #4]
 800105a:	2200      	movs	r2, #0
 800105c:	609a      	str	r2, [r3, #8]
  
  /* Reset DMAy Streamx memory 0 address register */
  DMAy_Streamx->M0AR = 0;
 800105e:	687b      	ldr	r3, [r7, #4]
 8001060:	2200      	movs	r2, #0
 8001062:	60da      	str	r2, [r3, #12]

  /* Reset DMAy Streamx memory 1 address register */
  DMAy_Streamx->M1AR = 0;
 8001064:	687b      	ldr	r3, [r7, #4]
 8001066:	2200      	movs	r2, #0
 8001068:	611a      	str	r2, [r3, #16]

  /* Reset DMAy Streamx FIFO control register */
  DMAy_Streamx->FCR = (uint32_t)0x00000021; 
 800106a:	687b      	ldr	r3, [r7, #4]
 800106c:	2221      	movs	r2, #33	; 0x21
 800106e:	615a      	str	r2, [r3, #20]

  /* Reset interrupt pending bits for the selected stream */
  if (DMAy_Streamx == DMA1_Stream0)
 8001070:	687b      	ldr	r3, [r7, #4]
 8001072:	4a46      	ldr	r2, [pc, #280]	; (800118c <DMA_DeInit+0x154>)
 8001074:	4293      	cmp	r3, r2
 8001076:	d103      	bne.n	8001080 <DMA_DeInit+0x48>
  {
    /* Reset interrupt pending bits for DMA1 Stream0 */
    DMA1->LIFCR = DMA_Stream0_IT_MASK;
 8001078:	4b45      	ldr	r3, [pc, #276]	; (8001190 <DMA_DeInit+0x158>)
 800107a:	223d      	movs	r2, #61	; 0x3d
 800107c:	609a      	str	r2, [r3, #8]
    {
      /* Reset interrupt pending bits for DMA2 Stream7 */
      DMA2->HIFCR = DMA_Stream7_IT_MASK;
    }
  }
}
 800107e:	e07e      	b.n	800117e <DMA_DeInit+0x146>
  else if (DMAy_Streamx == DMA1_Stream1)
 8001080:	687b      	ldr	r3, [r7, #4]
 8001082:	4a44      	ldr	r2, [pc, #272]	; (8001194 <DMA_DeInit+0x15c>)
 8001084:	4293      	cmp	r3, r2
 8001086:	d104      	bne.n	8001092 <DMA_DeInit+0x5a>
    DMA1->LIFCR = DMA_Stream1_IT_MASK;
 8001088:	4b41      	ldr	r3, [pc, #260]	; (8001190 <DMA_DeInit+0x158>)
 800108a:	f44f 6274 	mov.w	r2, #3904	; 0xf40
 800108e:	609a      	str	r2, [r3, #8]
}
 8001090:	e075      	b.n	800117e <DMA_DeInit+0x146>
  else if (DMAy_Streamx == DMA1_Stream2)
 8001092:	687b      	ldr	r3, [r7, #4]
 8001094:	4a40      	ldr	r2, [pc, #256]	; (8001198 <DMA_DeInit+0x160>)
 8001096:	4293      	cmp	r3, r2
 8001098:	d104      	bne.n	80010a4 <DMA_DeInit+0x6c>
    DMA1->LIFCR = DMA_Stream2_IT_MASK;
 800109a:	4b3d      	ldr	r3, [pc, #244]	; (8001190 <DMA_DeInit+0x158>)
 800109c:	f44f 1274 	mov.w	r2, #3997696	; 0x3d0000
 80010a0:	609a      	str	r2, [r3, #8]
}
 80010a2:	e06c      	b.n	800117e <DMA_DeInit+0x146>
  else if (DMAy_Streamx == DMA1_Stream3)
 80010a4:	687b      	ldr	r3, [r7, #4]
 80010a6:	4a3d      	ldr	r2, [pc, #244]	; (800119c <DMA_DeInit+0x164>)
 80010a8:	4293      	cmp	r3, r2
 80010aa:	d104      	bne.n	80010b6 <DMA_DeInit+0x7e>
    DMA1->LIFCR = DMA_Stream3_IT_MASK;
 80010ac:	4b38      	ldr	r3, [pc, #224]	; (8001190 <DMA_DeInit+0x158>)
 80010ae:	f04f 6274 	mov.w	r2, #255852544	; 0xf400000
 80010b2:	609a      	str	r2, [r3, #8]
}
 80010b4:	e063      	b.n	800117e <DMA_DeInit+0x146>
  else if (DMAy_Streamx == DMA1_Stream4)
 80010b6:	687b      	ldr	r3, [r7, #4]
 80010b8:	4a39      	ldr	r2, [pc, #228]	; (80011a0 <DMA_DeInit+0x168>)
 80010ba:	4293      	cmp	r3, r2
 80010bc:	d103      	bne.n	80010c6 <DMA_DeInit+0x8e>
    DMA1->HIFCR = DMA_Stream4_IT_MASK;
 80010be:	4b34      	ldr	r3, [pc, #208]	; (8001190 <DMA_DeInit+0x158>)
 80010c0:	4a38      	ldr	r2, [pc, #224]	; (80011a4 <DMA_DeInit+0x16c>)
 80010c2:	60da      	str	r2, [r3, #12]
}
 80010c4:	e05b      	b.n	800117e <DMA_DeInit+0x146>
  else if (DMAy_Streamx == DMA1_Stream5)
 80010c6:	687b      	ldr	r3, [r7, #4]
 80010c8:	4a37      	ldr	r2, [pc, #220]	; (80011a8 <DMA_DeInit+0x170>)
 80010ca:	4293      	cmp	r3, r2
 80010cc:	d103      	bne.n	80010d6 <DMA_DeInit+0x9e>
    DMA1->HIFCR = DMA_Stream5_IT_MASK;
 80010ce:	4b30      	ldr	r3, [pc, #192]	; (8001190 <DMA_DeInit+0x158>)
 80010d0:	4a36      	ldr	r2, [pc, #216]	; (80011ac <DMA_DeInit+0x174>)
 80010d2:	60da      	str	r2, [r3, #12]
}
 80010d4:	e053      	b.n	800117e <DMA_DeInit+0x146>
  else if (DMAy_Streamx == DMA1_Stream6)
 80010d6:	687b      	ldr	r3, [r7, #4]
 80010d8:	4a35      	ldr	r2, [pc, #212]	; (80011b0 <DMA_DeInit+0x178>)
 80010da:	4293      	cmp	r3, r2
 80010dc:	d103      	bne.n	80010e6 <DMA_DeInit+0xae>
    DMA1->HIFCR = (uint32_t)DMA_Stream6_IT_MASK;
 80010de:	4b2c      	ldr	r3, [pc, #176]	; (8001190 <DMA_DeInit+0x158>)
 80010e0:	4a34      	ldr	r2, [pc, #208]	; (80011b4 <DMA_DeInit+0x17c>)
 80010e2:	60da      	str	r2, [r3, #12]
}
 80010e4:	e04b      	b.n	800117e <DMA_DeInit+0x146>
  else if (DMAy_Streamx == DMA1_Stream7)
 80010e6:	687b      	ldr	r3, [r7, #4]
 80010e8:	4a33      	ldr	r2, [pc, #204]	; (80011b8 <DMA_DeInit+0x180>)
 80010ea:	4293      	cmp	r3, r2
 80010ec:	d104      	bne.n	80010f8 <DMA_DeInit+0xc0>
    DMA1->HIFCR = DMA_Stream7_IT_MASK;
 80010ee:	4b28      	ldr	r3, [pc, #160]	; (8001190 <DMA_DeInit+0x158>)
 80010f0:	f04f 523d 	mov.w	r2, #792723456	; 0x2f400000
 80010f4:	60da      	str	r2, [r3, #12]
}
 80010f6:	e042      	b.n	800117e <DMA_DeInit+0x146>
  else if (DMAy_Streamx == DMA2_Stream0)
 80010f8:	687b      	ldr	r3, [r7, #4]
 80010fa:	4a30      	ldr	r2, [pc, #192]	; (80011bc <DMA_DeInit+0x184>)
 80010fc:	4293      	cmp	r3, r2
 80010fe:	d103      	bne.n	8001108 <DMA_DeInit+0xd0>
    DMA2->LIFCR = DMA_Stream0_IT_MASK;
 8001100:	4b2f      	ldr	r3, [pc, #188]	; (80011c0 <DMA_DeInit+0x188>)
 8001102:	223d      	movs	r2, #61	; 0x3d
 8001104:	609a      	str	r2, [r3, #8]
}
 8001106:	e03a      	b.n	800117e <DMA_DeInit+0x146>
  else if (DMAy_Streamx == DMA2_Stream1)
 8001108:	687b      	ldr	r3, [r7, #4]
 800110a:	4a2e      	ldr	r2, [pc, #184]	; (80011c4 <DMA_DeInit+0x18c>)
 800110c:	4293      	cmp	r3, r2
 800110e:	d104      	bne.n	800111a <DMA_DeInit+0xe2>
    DMA2->LIFCR = DMA_Stream1_IT_MASK;
 8001110:	4b2b      	ldr	r3, [pc, #172]	; (80011c0 <DMA_DeInit+0x188>)
 8001112:	f44f 6274 	mov.w	r2, #3904	; 0xf40
 8001116:	609a      	str	r2, [r3, #8]
}
 8001118:	e031      	b.n	800117e <DMA_DeInit+0x146>
  else if (DMAy_Streamx == DMA2_Stream2)
 800111a:	687b      	ldr	r3, [r7, #4]
 800111c:	4a2a      	ldr	r2, [pc, #168]	; (80011c8 <DMA_DeInit+0x190>)
 800111e:	4293      	cmp	r3, r2
 8001120:	d104      	bne.n	800112c <DMA_DeInit+0xf4>
    DMA2->LIFCR = DMA_Stream2_IT_MASK;
 8001122:	4b27      	ldr	r3, [pc, #156]	; (80011c0 <DMA_DeInit+0x188>)
 8001124:	f44f 1274 	mov.w	r2, #3997696	; 0x3d0000
 8001128:	609a      	str	r2, [r3, #8]
}
 800112a:	e028      	b.n	800117e <DMA_DeInit+0x146>
  else if (DMAy_Streamx == DMA2_Stream3)
 800112c:	687b      	ldr	r3, [r7, #4]
 800112e:	4a27      	ldr	r2, [pc, #156]	; (80011cc <DMA_DeInit+0x194>)
 8001130:	4293      	cmp	r3, r2
 8001132:	d104      	bne.n	800113e <DMA_DeInit+0x106>
    DMA2->LIFCR = DMA_Stream3_IT_MASK;
 8001134:	4b22      	ldr	r3, [pc, #136]	; (80011c0 <DMA_DeInit+0x188>)
 8001136:	f04f 6274 	mov.w	r2, #255852544	; 0xf400000
 800113a:	609a      	str	r2, [r3, #8]
}
 800113c:	e01f      	b.n	800117e <DMA_DeInit+0x146>
  else if (DMAy_Streamx == DMA2_Stream4)
 800113e:	687b      	ldr	r3, [r7, #4]
 8001140:	4a23      	ldr	r2, [pc, #140]	; (80011d0 <DMA_DeInit+0x198>)
 8001142:	4293      	cmp	r3, r2
 8001144:	d103      	bne.n	800114e <DMA_DeInit+0x116>
    DMA2->HIFCR = DMA_Stream4_IT_MASK;
 8001146:	4b1e      	ldr	r3, [pc, #120]	; (80011c0 <DMA_DeInit+0x188>)
 8001148:	4a16      	ldr	r2, [pc, #88]	; (80011a4 <DMA_DeInit+0x16c>)
 800114a:	60da      	str	r2, [r3, #12]
}
 800114c:	e017      	b.n	800117e <DMA_DeInit+0x146>
  else if (DMAy_Streamx == DMA2_Stream5)
 800114e:	687b      	ldr	r3, [r7, #4]
 8001150:	4a20      	ldr	r2, [pc, #128]	; (80011d4 <DMA_DeInit+0x19c>)
 8001152:	4293      	cmp	r3, r2
 8001154:	d103      	bne.n	800115e <DMA_DeInit+0x126>
    DMA2->HIFCR = DMA_Stream5_IT_MASK;
 8001156:	4b1a      	ldr	r3, [pc, #104]	; (80011c0 <DMA_DeInit+0x188>)
 8001158:	4a14      	ldr	r2, [pc, #80]	; (80011ac <DMA_DeInit+0x174>)
 800115a:	60da      	str	r2, [r3, #12]
}
 800115c:	e00f      	b.n	800117e <DMA_DeInit+0x146>
  else if (DMAy_Streamx == DMA2_Stream6)
 800115e:	687b      	ldr	r3, [r7, #4]
 8001160:	4a1d      	ldr	r2, [pc, #116]	; (80011d8 <DMA_DeInit+0x1a0>)
 8001162:	4293      	cmp	r3, r2
 8001164:	d103      	bne.n	800116e <DMA_DeInit+0x136>
    DMA2->HIFCR = DMA_Stream6_IT_MASK;
 8001166:	4b16      	ldr	r3, [pc, #88]	; (80011c0 <DMA_DeInit+0x188>)
 8001168:	4a12      	ldr	r2, [pc, #72]	; (80011b4 <DMA_DeInit+0x17c>)
 800116a:	60da      	str	r2, [r3, #12]
}
 800116c:	e007      	b.n	800117e <DMA_DeInit+0x146>
    if (DMAy_Streamx == DMA2_Stream7)
 800116e:	687b      	ldr	r3, [r7, #4]
 8001170:	4a1a      	ldr	r2, [pc, #104]	; (80011dc <DMA_DeInit+0x1a4>)
 8001172:	4293      	cmp	r3, r2
 8001174:	d103      	bne.n	800117e <DMA_DeInit+0x146>
      DMA2->HIFCR = DMA_Stream7_IT_MASK;
 8001176:	4b12      	ldr	r3, [pc, #72]	; (80011c0 <DMA_DeInit+0x188>)
 8001178:	f04f 523d 	mov.w	r2, #792723456	; 0x2f400000
 800117c:	60da      	str	r2, [r3, #12]
}
 800117e:	bf00      	nop
 8001180:	370c      	adds	r7, #12
 8001182:	46bd      	mov	sp, r7
 8001184:	f85d 7b04 	ldr.w	r7, [sp], #4
 8001188:	4770      	bx	lr
 800118a:	bf00      	nop
 800118c:	40026010 	.word	0x40026010
 8001190:	40026000 	.word	0x40026000
 8001194:	40026028 	.word	0x40026028
 8001198:	40026040 	.word	0x40026040
 800119c:	40026058 	.word	0x40026058
 80011a0:	40026070 	.word	0x40026070
 80011a4:	2000003d 	.word	0x2000003d
 80011a8:	40026088 	.word	0x40026088
 80011ac:	20000f40 	.word	0x20000f40
 80011b0:	400260a0 	.word	0x400260a0
 80011b4:	203d0000 	.word	0x203d0000
 80011b8:	400260b8 	.word	0x400260b8
 80011bc:	40026410 	.word	0x40026410
 80011c0:	40026400 	.word	0x40026400
 80011c4:	40026428 	.word	0x40026428
 80011c8:	40026440 	.word	0x40026440
 80011cc:	40026458 	.word	0x40026458
 80011d0:	40026470 	.word	0x40026470
 80011d4:	40026488 	.word	0x40026488
 80011d8:	400264a0 	.word	0x400264a0
 80011dc:	400264b8 	.word	0x400264b8

080011e0 <DMA_Init>:
  * @param  DMA_InitStruct: pointer to a DMA_InitTypeDef structure that contains
  *         the configuration information for the specified DMA Stream.  
  * @retval None
  */
void DMA_Init(DMA_Stream_TypeDef* DMAy_Streamx, DMA_InitTypeDef* DMA_InitStruct)
{
 80011e0:	b480      	push	{r7}
 80011e2:	b085      	sub	sp, #20
 80011e4:	af00      	add	r7, sp, #0
 80011e6:	6078      	str	r0, [r7, #4]
 80011e8:	6039      	str	r1, [r7, #0]
  uint32_t tmpreg = 0;
 80011ea:	2300      	movs	r3, #0
 80011ec:	60fb      	str	r3, [r7, #12]
  assert_param(IS_DMA_MEMORY_BURST(DMA_InitStruct->DMA_MemoryBurst));
  assert_param(IS_DMA_PERIPHERAL_BURST(DMA_InitStruct->DMA_PeripheralBurst));

  /*------------------------- DMAy Streamx CR Configuration ------------------*/
  /* Get the DMAy_Streamx CR value */
  tmpreg = DMAy_Streamx->CR;
 80011ee:	687b      	ldr	r3, [r7, #4]
 80011f0:	681b      	ldr	r3, [r3, #0]
 80011f2:	60fb      	str	r3, [r7, #12]

  /* Clear CHSEL, MBURST, PBURST, PL, MSIZE, PSIZE, MINC, PINC, CIRC and DIR bits */
  tmpreg &= ((uint32_t)~(DMA_SxCR_CHSEL | DMA_SxCR_MBURST | DMA_SxCR_PBURST | \
 80011f4:	68fa      	ldr	r2, [r7, #12]
 80011f6:	4b25      	ldr	r3, [pc, #148]	; (800128c <DMA_Init+0xac>)
 80011f8:	4013      	ands	r3, r2
 80011fa:	60fb      	str	r3, [r7, #12]
  /* Set MSIZE bits according to DMA_MemoryDataSize value */
  /* Set CIRC bit according to DMA_Mode value */
  /* Set PL bits according to DMA_Priority value */
  /* Set MBURST bits according to DMA_MemoryBurst value */
  /* Set PBURST bits according to DMA_PeripheralBurst value */
  tmpreg |= DMA_InitStruct->DMA_Channel | DMA_InitStruct->DMA_DIR |
 80011fc:	683b      	ldr	r3, [r7, #0]
 80011fe:	681a      	ldr	r2, [r3, #0]
 8001200:	683b      	ldr	r3, [r7, #0]
 8001202:	68db      	ldr	r3, [r3, #12]
 8001204:	431a      	orrs	r2, r3
            DMA_InitStruct->DMA_PeripheralInc | DMA_InitStruct->DMA_MemoryInc |
 8001206:	683b      	ldr	r3, [r7, #0]
 8001208:	695b      	ldr	r3, [r3, #20]
  tmpreg |= DMA_InitStruct->DMA_Channel | DMA_InitStruct->DMA_DIR |
 800120a:	431a      	orrs	r2, r3
            DMA_InitStruct->DMA_PeripheralInc | DMA_InitStruct->DMA_MemoryInc |
 800120c:	683b      	ldr	r3, [r7, #0]
 800120e:	699b      	ldr	r3, [r3, #24]
 8001210:	431a      	orrs	r2, r3
            DMA_InitStruct->DMA_PeripheralDataSize | DMA_InitStruct->DMA_MemoryDataSize |
 8001212:	683b      	ldr	r3, [r7, #0]
 8001214:	69db      	ldr	r3, [r3, #28]
            DMA_InitStruct->DMA_PeripheralInc | DMA_InitStruct->DMA_MemoryInc |
 8001216:	431a      	orrs	r2, r3
            DMA_InitStruct->DMA_PeripheralDataSize | DMA_InitStruct->DMA_MemoryDataSize |
 8001218:	683b      	ldr	r3, [r7, #0]
 800121a:	6a1b      	ldr	r3, [r3, #32]
 800121c:	431a      	orrs	r2, r3
            DMA_InitStruct->DMA_Mode | DMA_InitStruct->DMA_Priority |
 800121e:	683b      	ldr	r3, [r7, #0]
 8001220:	6a5b      	ldr	r3, [r3, #36]	; 0x24
            DMA_InitStruct->DMA_PeripheralDataSize | DMA_InitStruct->DMA_MemoryDataSize |
 8001222:	431a      	orrs	r2, r3
            DMA_InitStruct->DMA_Mode | DMA_InitStruct->DMA_Priority |
 8001224:	683b      	ldr	r3, [r7, #0]
 8001226:	6a9b      	ldr	r3, [r3, #40]	; 0x28
 8001228:	431a      	orrs	r2, r3
            DMA_InitStruct->DMA_MemoryBurst | DMA_InitStruct->DMA_PeripheralBurst;
 800122a:	683b      	ldr	r3, [r7, #0]
 800122c:	6b5b      	ldr	r3, [r3, #52]	; 0x34
            DMA_InitStruct->DMA_Mode | DMA_InitStruct->DMA_Priority |
 800122e:	431a      	orrs	r2, r3
            DMA_InitStruct->DMA_MemoryBurst | DMA_InitStruct->DMA_PeripheralBurst;
 8001230:	683b      	ldr	r3, [r7, #0]
 8001232:	6b9b      	ldr	r3, [r3, #56]	; 0x38
 8001234:	4313      	orrs	r3, r2
  tmpreg |= DMA_InitStruct->DMA_Channel | DMA_InitStruct->DMA_DIR |
 8001236:	68fa      	ldr	r2, [r7, #12]
 8001238:	4313      	orrs	r3, r2
 800123a:	60fb      	str	r3, [r7, #12]

  /* Write to DMAy Streamx CR register */
  DMAy_Streamx->CR = tmpreg;
 800123c:	687b      	ldr	r3, [r7, #4]
 800123e:	68fa      	ldr	r2, [r7, #12]
 8001240:	601a      	str	r2, [r3, #0]

  /*------------------------- DMAy Streamx FCR Configuration -----------------*/
  /* Get the DMAy_Streamx FCR value */
  tmpreg = DMAy_Streamx->FCR;
 8001242:	687b      	ldr	r3, [r7, #4]
 8001244:	695b      	ldr	r3, [r3, #20]
 8001246:	60fb      	str	r3, [r7, #12]

  /* Clear DMDIS and FTH bits */
  tmpreg &= (uint32_t)~(DMA_SxFCR_DMDIS | DMA_SxFCR_FTH);
 8001248:	68fb      	ldr	r3, [r7, #12]
 800124a:	f023 0307 	bic.w	r3, r3, #7
 800124e:	60fb      	str	r3, [r7, #12]

  /* Configure DMAy Streamx FIFO: 
    Set DMDIS bits according to DMA_FIFOMode value 
    Set FTH bits according to DMA_FIFOThreshold value */
  tmpreg |= DMA_InitStruct->DMA_FIFOMode | DMA_InitStruct->DMA_FIFOThreshold;
 8001250:	683b      	ldr	r3, [r7, #0]
 8001252:	6ada      	ldr	r2, [r3, #44]	; 0x2c
 8001254:	683b      	ldr	r3, [r7, #0]
 8001256:	6b1b      	ldr	r3, [r3, #48]	; 0x30
 8001258:	4313      	orrs	r3, r2
 800125a:	68fa      	ldr	r2, [r7, #12]
 800125c:	4313      	orrs	r3, r2
 800125e:	60fb      	str	r3, [r7, #12]

  /* Write to DMAy Streamx CR */
  DMAy_Streamx->FCR = tmpreg;
 8001260:	687b      	ldr	r3, [r7, #4]
 8001262:	68fa      	ldr	r2, [r7, #12]
 8001264:	615a      	str	r2, [r3, #20]

  /*------------------------- DMAy Streamx NDTR Configuration ----------------*/
  /* Write to DMAy Streamx NDTR register */
  DMAy_Streamx->NDTR = DMA_InitStruct->DMA_BufferSize;
 8001266:	683b      	ldr	r3, [r7, #0]
 8001268:	691a      	ldr	r2, [r3, #16]
 800126a:	687b      	ldr	r3, [r7, #4]
 800126c:	605a      	str	r2, [r3, #4]

  /*------------------------- DMAy Streamx PAR Configuration -----------------*/
  /* Write to DMAy Streamx PAR */
  DMAy_Streamx->PAR = DMA_InitStruct->DMA_PeripheralBaseAddr;
 800126e:	683b      	ldr	r3, [r7, #0]
 8001270:	685a      	ldr	r2, [r3, #4]
 8001272:	687b      	ldr	r3, [r7, #4]
 8001274:	609a      	str	r2, [r3, #8]

  /*------------------------- DMAy Streamx M0AR Configuration ----------------*/
  /* Write to DMAy Streamx M0AR */
  DMAy_Streamx->M0AR = DMA_InitStruct->DMA_Memory0BaseAddr;
 8001276:	683b      	ldr	r3, [r7, #0]
 8001278:	689a      	ldr	r2, [r3, #8]
 800127a:	687b      	ldr	r3, [r7, #4]
 800127c:	60da      	str	r2, [r3, #12]
}
 800127e:	bf00      	nop
 8001280:	3714      	adds	r7, #20
 8001282:	46bd      	mov	sp, r7
 8001284:	f85d 7b04 	ldr.w	r7, [sp], #4
 8001288:	4770      	bx	lr
 800128a:	bf00      	nop
 800128c:	f01c803f 	.word	0xf01c803f

08001290 <DMA_Cmd>:
  *        this single data is finished.            
  *    
  * @retval None
  */
void DMA_Cmd(DMA_Stream_TypeDef* DMAy_Streamx, FunctionalState NewState)
{
 8001290:	b480      	push	{r7}
 8001292:	b083      	sub	sp, #12
 8001294:	af00      	add	r7, sp, #0
 8001296:	6078      	str	r0, [r7, #4]
 8001298:	460b      	mov	r3, r1
 800129a:	70fb      	strb	r3, [r7, #3]
  /* Check the parameters */
  assert_param(IS_DMA_ALL_PERIPH(DMAy_Streamx));
  assert_param(IS_FUNCTIONAL_STATE(NewState));

  if (NewState != DISABLE)
 800129c:	78fb      	ldrb	r3, [r7, #3]
 800129e:	2b00      	cmp	r3, #0
 80012a0:	d006      	beq.n	80012b0 <DMA_Cmd+0x20>
  {
    /* Enable the selected DMAy Streamx by setting EN bit */
    DMAy_Streamx->CR |= (uint32_t)DMA_SxCR_EN;
 80012a2:	687b      	ldr	r3, [r7, #4]
 80012a4:	681b      	ldr	r3, [r3, #0]
 80012a6:	f043 0201 	orr.w	r2, r3, #1
 80012aa:	687b      	ldr	r3, [r7, #4]
 80012ac:	601a      	str	r2, [r3, #0]
  else
  {
    /* Disable the selected DMAy Streamx by clearing EN bit */
    DMAy_Streamx->CR &= ~(uint32_t)DMA_SxCR_EN;
  }
}
 80012ae:	e005      	b.n	80012bc <DMA_Cmd+0x2c>
    DMAy_Streamx->CR &= ~(uint32_t)DMA_SxCR_EN;
 80012b0:	687b      	ldr	r3, [r7, #4]
 80012b2:	681b      	ldr	r3, [r3, #0]
 80012b4:	f023 0201 	bic.w	r2, r3, #1
 80012b8:	687b      	ldr	r3, [r7, #4]
 80012ba:	601a      	str	r2, [r3, #0]
}
 80012bc:	bf00      	nop
 80012be:	370c      	adds	r7, #12
 80012c0:	46bd      	mov	sp, r7
 80012c2:	f85d 7b04 	ldr.w	r7, [sp], #4
 80012c6:	4770      	bx	lr

080012c8 <EXTI_ClearITPendingBit>:
  * @param  EXTI_Line: specifies the EXTI lines to clear.
  *          This parameter can be any combination of EXTI_Linex where x can be (0..22)
  * @retval None
  */
void EXTI_ClearITPendingBit(uint32_t EXTI_Line)
{
 80012c8:	b480      	push	{r7}
 80012ca:	b083      	sub	sp, #12
 80012cc:	af00      	add	r7, sp, #0
 80012ce:	6078      	str	r0, [r7, #4]
  /* Check the parameters */
  assert_param(IS_EXTI_LINE(EXTI_Line));
  
  EXTI->PR = EXTI_Line;
 80012d0:	4a04      	ldr	r2, [pc, #16]	; (80012e4 <EXTI_ClearITPendingBit+0x1c>)
 80012d2:	687b      	ldr	r3, [r7, #4]
 80012d4:	6153      	str	r3, [r2, #20]
}
 80012d6:	bf00      	nop
 80012d8:	370c      	adds	r7, #12
 80012da:	46bd      	mov	sp, r7
 80012dc:	f85d 7b04 	ldr.w	r7, [sp], #4
 80012e0:	4770      	bx	lr
 80012e2:	bf00      	nop
 80012e4:	40013c00 	.word	0x40013c00

080012e8 <GPIO_Init>:
  * @param  GPIO_InitStruct: pointer to a GPIO_InitTypeDef structure that contains
  *         the configuration information for the specified GPIO peripheral.
  * @retval None
  */
void GPIO_Init(GPIO_TypeDef* GPIOx, GPIO_InitTypeDef* GPIO_InitStruct)
{
 80012e8:	b480      	push	{r7}
 80012ea:	b087      	sub	sp, #28
 80012ec:	af00      	add	r7, sp, #0
 80012ee:	6078      	str	r0, [r7, #4]
 80012f0:	6039      	str	r1, [r7, #0]
  uint32_t pinpos = 0x00, pos = 0x00 , currentpin = 0x00;
 80012f2:	2300      	movs	r3, #0
 80012f4:	617b      	str	r3, [r7, #20]
 80012f6:	2300      	movs	r3, #0
 80012f8:	613b      	str	r3, [r7, #16]
 80012fa:	2300      	movs	r3, #0
 80012fc:	60fb      	str	r3, [r7, #12]
  assert_param(IS_GPIO_MODE(GPIO_InitStruct->GPIO_Mode));
  assert_param(IS_GPIO_PUPD(GPIO_InitStruct->GPIO_PuPd));

  /* ------------------------- Configure the port pins ---------------- */
  /*-- GPIO Mode Configuration --*/
  for (pinpos = 0x00; pinpos < 0x10; pinpos++)
 80012fe:	2300      	movs	r3, #0
 8001300:	617b      	str	r3, [r7, #20]
 8001302:	e076      	b.n	80013f2 <GPIO_Init+0x10a>
  {
    pos = ((uint32_t)0x01) << pinpos;
 8001304:	2201      	movs	r2, #1
 8001306:	697b      	ldr	r3, [r7, #20]
 8001308:	fa02 f303 	lsl.w	r3, r2, r3
 800130c:	613b      	str	r3, [r7, #16]
    /* Get the port pins position */
    currentpin = (GPIO_InitStruct->GPIO_Pin) & pos;
 800130e:	683b      	ldr	r3, [r7, #0]
 8001310:	681a      	ldr	r2, [r3, #0]
 8001312:	693b      	ldr	r3, [r7, #16]
 8001314:	4013      	ands	r3, r2
 8001316:	60fb      	str	r3, [r7, #12]

    if (currentpin == pos)
 8001318:	68fa      	ldr	r2, [r7, #12]
 800131a:	693b      	ldr	r3, [r7, #16]
 800131c:	429a      	cmp	r2, r3
 800131e:	d165      	bne.n	80013ec <GPIO_Init+0x104>
    {
      GPIOx->MODER  &= ~(GPIO_MODER_MODER0 << (pinpos * 2));
 8001320:	687b      	ldr	r3, [r7, #4]
 8001322:	681a      	ldr	r2, [r3, #0]
 8001324:	697b      	ldr	r3, [r7, #20]
 8001326:	005b      	lsls	r3, r3, #1
 8001328:	2103      	movs	r1, #3
 800132a:	fa01 f303 	lsl.w	r3, r1, r3
 800132e:	43db      	mvns	r3, r3
 8001330:	401a      	ands	r2, r3
 8001332:	687b      	ldr	r3, [r7, #4]
 8001334:	601a      	str	r2, [r3, #0]
      GPIOx->MODER |= (((uint32_t)GPIO_InitStruct->GPIO_Mode) << (pinpos * 2));
 8001336:	687b      	ldr	r3, [r7, #4]
 8001338:	681a      	ldr	r2, [r3, #0]
 800133a:	683b      	ldr	r3, [r7, #0]
 800133c:	791b      	ldrb	r3, [r3, #4]
 800133e:	4619      	mov	r1, r3
 8001340:	697b      	ldr	r3, [r7, #20]
 8001342:	005b      	lsls	r3, r3, #1
 8001344:	fa01 f303 	lsl.w	r3, r1, r3
 8001348:	431a      	orrs	r2, r3
 800134a:	687b      	ldr	r3, [r7, #4]
 800134c:	601a      	str	r2, [r3, #0]

      if ((GPIO_InitStruct->GPIO_Mode == GPIO_Mode_OUT) || (GPIO_InitStruct->GPIO_Mode == GPIO_Mode_AF))
 800134e:	683b      	ldr	r3, [r7, #0]
 8001350:	791b      	ldrb	r3, [r3, #4]
 8001352:	2b01      	cmp	r3, #1
 8001354:	d003      	beq.n	800135e <GPIO_Init+0x76>
 8001356:	683b      	ldr	r3, [r7, #0]
 8001358:	791b      	ldrb	r3, [r3, #4]
 800135a:	2b02      	cmp	r3, #2
 800135c:	d12e      	bne.n	80013bc <GPIO_Init+0xd4>
      {
        /* Check Speed mode parameters */
        assert_param(IS_GPIO_SPEED(GPIO_InitStruct->GPIO_Speed));

        /* Speed mode configuration */
        GPIOx->OSPEEDR &= ~(GPIO_OSPEEDER_OSPEEDR0 << (pinpos * 2));
 800135e:	687b      	ldr	r3, [r7, #4]
 8001360:	689a      	ldr	r2, [r3, #8]
 8001362:	697b      	ldr	r3, [r7, #20]
 8001364:	005b      	lsls	r3, r3, #1
 8001366:	2103      	movs	r1, #3
 8001368:	fa01 f303 	lsl.w	r3, r1, r3
 800136c:	43db      	mvns	r3, r3
 800136e:	401a      	ands	r2, r3
 8001370:	687b      	ldr	r3, [r7, #4]
 8001372:	609a      	str	r2, [r3, #8]
        GPIOx->OSPEEDR |= ((uint32_t)(GPIO_InitStruct->GPIO_Speed) << (pinpos * 2));
 8001374:	687b      	ldr	r3, [r7, #4]
 8001376:	689a      	ldr	r2, [r3, #8]
 8001378:	683b      	ldr	r3, [r7, #0]
 800137a:	795b      	ldrb	r3, [r3, #5]
 800137c:	4619      	mov	r1, r3
 800137e:	697b      	ldr	r3, [r7, #20]
 8001380:	005b      	lsls	r3, r3, #1
 8001382:	fa01 f303 	lsl.w	r3, r1, r3
 8001386:	431a      	orrs	r2, r3
 8001388:	687b      	ldr	r3, [r7, #4]
 800138a:	609a      	str	r2, [r3, #8]

        /* Check Output mode parameters */
        assert_param(IS_GPIO_OTYPE(GPIO_InitStruct->GPIO_OType));

        /* Output mode configuration*/
        GPIOx->OTYPER  &= ~((GPIO_OTYPER_OT_0) << ((uint16_t)pinpos)) ;
 800138c:	687b      	ldr	r3, [r7, #4]
 800138e:	685a      	ldr	r2, [r3, #4]
 8001390:	697b      	ldr	r3, [r7, #20]
 8001392:	b29b      	uxth	r3, r3
 8001394:	4619      	mov	r1, r3
 8001396:	2301      	movs	r3, #1
 8001398:	408b      	lsls	r3, r1
 800139a:	43db      	mvns	r3, r3
 800139c:	401a      	ands	r2, r3
 800139e:	687b      	ldr	r3, [r7, #4]
 80013a0:	605a      	str	r2, [r3, #4]
        GPIOx->OTYPER |= (uint16_t)(((uint16_t)GPIO_InitStruct->GPIO_OType) << ((uint16_t)pinpos));
 80013a2:	687b      	ldr	r3, [r7, #4]
 80013a4:	685b      	ldr	r3, [r3, #4]
 80013a6:	683a      	ldr	r2, [r7, #0]
 80013a8:	7992      	ldrb	r2, [r2, #6]
 80013aa:	4611      	mov	r1, r2
 80013ac:	697a      	ldr	r2, [r7, #20]
 80013ae:	b292      	uxth	r2, r2
 80013b0:	fa01 f202 	lsl.w	r2, r1, r2
 80013b4:	b292      	uxth	r2, r2
 80013b6:	431a      	orrs	r2, r3
 80013b8:	687b      	ldr	r3, [r7, #4]
 80013ba:	605a      	str	r2, [r3, #4]
      }

      /* Pull-up Pull down resistor configuration*/
      GPIOx->PUPDR &= ~(GPIO_PUPDR_PUPDR0 << ((uint16_t)pinpos * 2));
 80013bc:	687b      	ldr	r3, [r7, #4]
 80013be:	68da      	ldr	r2, [r3, #12]
 80013c0:	697b      	ldr	r3, [r7, #20]
 80013c2:	b29b      	uxth	r3, r3
 80013c4:	005b      	lsls	r3, r3, #1
 80013c6:	2103      	movs	r1, #3
 80013c8:	fa01 f303 	lsl.w	r3, r1, r3
 80013cc:	43db      	mvns	r3, r3
 80013ce:	401a      	ands	r2, r3
 80013d0:	687b      	ldr	r3, [r7, #4]
 80013d2:	60da      	str	r2, [r3, #12]
      GPIOx->PUPDR |= (((uint32_t)GPIO_InitStruct->GPIO_PuPd) << (pinpos * 2));
 80013d4:	687b      	ldr	r3, [r7, #4]
 80013d6:	68da      	ldr	r2, [r3, #12]
 80013d8:	683b      	ldr	r3, [r7, #0]
 80013da:	79db      	ldrb	r3, [r3, #7]
 80013dc:	4619      	mov	r1, r3
 80013de:	697b      	ldr	r3, [r7, #20]
 80013e0:	005b      	lsls	r3, r3, #1
 80013e2:	fa01 f303 	lsl.w	r3, r1, r3
 80013e6:	431a      	orrs	r2, r3
 80013e8:	687b      	ldr	r3, [r7, #4]
 80013ea:	60da      	str	r2, [r3, #12]
  for (pinpos = 0x00; pinpos < 0x10; pinpos++)
 80013ec:	697b      	ldr	r3, [r7, #20]
 80013ee:	3301      	adds	r3, #1
 80013f0:	617b      	str	r3, [r7, #20]
 80013f2:	697b      	ldr	r3, [r7, #20]
 80013f4:	2b0f      	cmp	r3, #15
 80013f6:	d985      	bls.n	8001304 <GPIO_Init+0x1c>
    }
  }
}
 80013f8:	bf00      	nop
 80013fa:	371c      	adds	r7, #28
 80013fc:	46bd      	mov	sp, r7
 80013fe:	f85d 7b04 	ldr.w	r7, [sp], #4
 8001402:	4770      	bx	lr

08001404 <GPIO_PinAFConfig>:
  *            @arg GPIO_AF_DCMI: Connect DCMI pins to AF13 
  *            @arg GPIO_AF_EVENTOUT: Connect EVENTOUT pins to AF15
  * @retval None
  */
void GPIO_PinAFConfig(GPIO_TypeDef* GPIOx, uint16_t GPIO_PinSource, uint8_t GPIO_AF)
{
 8001404:	b480      	push	{r7}
 8001406:	b085      	sub	sp, #20
 8001408:	af00      	add	r7, sp, #0
 800140a:	6078      	str	r0, [r7, #4]
 800140c:	460b      	mov	r3, r1
 800140e:	807b      	strh	r3, [r7, #2]
 8001410:	4613      	mov	r3, r2
 8001412:	707b      	strb	r3, [r7, #1]
  uint32_t temp = 0x00;
 8001414:	2300      	movs	r3, #0
 8001416:	60fb      	str	r3, [r7, #12]
  uint32_t temp_2 = 0x00;
 8001418:	2300      	movs	r3, #0
 800141a:	60bb      	str	r3, [r7, #8]
  /* Check the parameters */
  assert_param(IS_GPIO_ALL_PERIPH(GPIOx));
  assert_param(IS_GPIO_PIN_SOURCE(GPIO_PinSource));
  assert_param(IS_GPIO_AF(GPIO_AF));
  
  temp = ((uint32_t)(GPIO_AF) << ((uint32_t)((uint32_t)GPIO_PinSource & (uint32_t)0x07) * 4)) ;
 800141c:	787a      	ldrb	r2, [r7, #1]
 800141e:	887b      	ldrh	r3, [r7, #2]
 8001420:	f003 0307 	and.w	r3, r3, #7
 8001424:	009b      	lsls	r3, r3, #2
 8001426:	fa02 f303 	lsl.w	r3, r2, r3
 800142a:	60fb      	str	r3, [r7, #12]
  GPIOx->AFR[GPIO_PinSource >> 0x03] &= ~((uint32_t)0xF << ((uint32_t)((uint32_t)GPIO_PinSource & (uint32_t)0x07) * 4)) ;
 800142c:	887b      	ldrh	r3, [r7, #2]
 800142e:	08db      	lsrs	r3, r3, #3
 8001430:	b29b      	uxth	r3, r3
 8001432:	4618      	mov	r0, r3
 8001434:	887b      	ldrh	r3, [r7, #2]
 8001436:	08db      	lsrs	r3, r3, #3
 8001438:	b29b      	uxth	r3, r3
 800143a:	461a      	mov	r2, r3
 800143c:	687b      	ldr	r3, [r7, #4]
 800143e:	3208      	adds	r2, #8
 8001440:	f853 2022 	ldr.w	r2, [r3, r2, lsl #2]
 8001444:	887b      	ldrh	r3, [r7, #2]
 8001446:	f003 0307 	and.w	r3, r3, #7
 800144a:	009b      	lsls	r3, r3, #2
 800144c:	210f      	movs	r1, #15
 800144e:	fa01 f303 	lsl.w	r3, r1, r3
 8001452:	43db      	mvns	r3, r3
 8001454:	ea02 0103 	and.w	r1, r2, r3
 8001458:	687b      	ldr	r3, [r7, #4]
 800145a:	f100 0208 	add.w	r2, r0, #8
 800145e:	f843 1022 	str.w	r1, [r3, r2, lsl #2]
  temp_2 = GPIOx->AFR[GPIO_PinSource >> 0x03] | temp;
 8001462:	887b      	ldrh	r3, [r7, #2]
 8001464:	08db      	lsrs	r3, r3, #3
 8001466:	b29b      	uxth	r3, r3
 8001468:	461a      	mov	r2, r3
 800146a:	687b      	ldr	r3, [r7, #4]
 800146c:	3208      	adds	r2, #8
 800146e:	f853 2022 	ldr.w	r2, [r3, r2, lsl #2]
 8001472:	68fb      	ldr	r3, [r7, #12]
 8001474:	4313      	orrs	r3, r2
 8001476:	60bb      	str	r3, [r7, #8]
  GPIOx->AFR[GPIO_PinSource >> 0x03] = temp_2;
 8001478:	887b      	ldrh	r3, [r7, #2]
 800147a:	08db      	lsrs	r3, r3, #3
 800147c:	b29b      	uxth	r3, r3
 800147e:	461a      	mov	r2, r3
 8001480:	687b      	ldr	r3, [r7, #4]
 8001482:	3208      	adds	r2, #8
 8001484:	68b9      	ldr	r1, [r7, #8]
 8001486:	f843 1022 	str.w	r1, [r3, r2, lsl #2]
}
 800148a:	bf00      	nop
 800148c:	3714      	adds	r7, #20
 800148e:	46bd      	mov	sp, r7
 8001490:	f85d 7b04 	ldr.w	r7, [sp], #4
 8001494:	4770      	bx	lr
	...

08001498 <RCC_GetClocksFreq>:
  *         configuration based on this function will be incorrect.
  *    
  * @retval None
  */
void RCC_GetClocksFreq(RCC_ClocksTypeDef* RCC_Clocks)
{
 8001498:	b480      	push	{r7}
 800149a:	b089      	sub	sp, #36	; 0x24
 800149c:	af00      	add	r7, sp, #0
 800149e:	6078      	str	r0, [r7, #4]
  uint32_t tmp = 0, presc = 0, pllvco = 0, pllp = 2, pllsource = 0, pllm = 2;
 80014a0:	2300      	movs	r3, #0
 80014a2:	61bb      	str	r3, [r7, #24]
 80014a4:	2300      	movs	r3, #0
 80014a6:	617b      	str	r3, [r7, #20]
 80014a8:	2300      	movs	r3, #0
 80014aa:	61fb      	str	r3, [r7, #28]
 80014ac:	2302      	movs	r3, #2
 80014ae:	613b      	str	r3, [r7, #16]
 80014b0:	2300      	movs	r3, #0
 80014b2:	60fb      	str	r3, [r7, #12]
 80014b4:	2302      	movs	r3, #2
 80014b6:	60bb      	str	r3, [r7, #8]

  /* Get SYSCLK source -------------------------------------------------------*/
  tmp = RCC->CFGR & RCC_CFGR_SWS;
 80014b8:	4b47      	ldr	r3, [pc, #284]	; (80015d8 <RCC_GetClocksFreq+0x140>)
 80014ba:	689b      	ldr	r3, [r3, #8]
 80014bc:	f003 030c 	and.w	r3, r3, #12
 80014c0:	61bb      	str	r3, [r7, #24]

  switch (tmp)
 80014c2:	69bb      	ldr	r3, [r7, #24]
 80014c4:	2b04      	cmp	r3, #4
 80014c6:	d007      	beq.n	80014d8 <RCC_GetClocksFreq+0x40>
 80014c8:	2b08      	cmp	r3, #8
 80014ca:	d009      	beq.n	80014e0 <RCC_GetClocksFreq+0x48>
 80014cc:	2b00      	cmp	r3, #0
 80014ce:	d13d      	bne.n	800154c <RCC_GetClocksFreq+0xb4>
  {
    case 0x00:  /* HSI used as system clock source */
      RCC_Clocks->SYSCLK_Frequency = HSI_VALUE;
 80014d0:	687b      	ldr	r3, [r7, #4]
 80014d2:	4a42      	ldr	r2, [pc, #264]	; (80015dc <RCC_GetClocksFreq+0x144>)
 80014d4:	601a      	str	r2, [r3, #0]
      break;
 80014d6:	e03d      	b.n	8001554 <RCC_GetClocksFreq+0xbc>
    case 0x04:  /* HSE used as system clock  source */
      RCC_Clocks->SYSCLK_Frequency = HSE_VALUE;
 80014d8:	687b      	ldr	r3, [r7, #4]
 80014da:	4a41      	ldr	r2, [pc, #260]	; (80015e0 <RCC_GetClocksFreq+0x148>)
 80014dc:	601a      	str	r2, [r3, #0]
      break;
 80014de:	e039      	b.n	8001554 <RCC_GetClocksFreq+0xbc>
    case 0x08:  /* PLL used as system clock  source */

      /* PLL_VCO = (HSE_VALUE or HSI_VALUE / PLLM) * PLLN
         SYSCLK = PLL_VCO / PLLP
         */    
      pllsource = (RCC->PLLCFGR & RCC_PLLCFGR_PLLSRC) >> 22;
 80014e0:	4b3d      	ldr	r3, [pc, #244]	; (80015d8 <RCC_GetClocksFreq+0x140>)
 80014e2:	685b      	ldr	r3, [r3, #4]
 80014e4:	0d9b      	lsrs	r3, r3, #22
 80014e6:	f003 0301 	and.w	r3, r3, #1
 80014ea:	60fb      	str	r3, [r7, #12]
      pllm = RCC->PLLCFGR & RCC_PLLCFGR_PLLM;
 80014ec:	4b3a      	ldr	r3, [pc, #232]	; (80015d8 <RCC_GetClocksFreq+0x140>)
 80014ee:	685b      	ldr	r3, [r3, #4]
 80014f0:	f003 033f 	and.w	r3, r3, #63	; 0x3f
 80014f4:	60bb      	str	r3, [r7, #8]
      
      if (pllsource != 0)
 80014f6:	68fb      	ldr	r3, [r7, #12]
 80014f8:	2b00      	cmp	r3, #0
 80014fa:	d00c      	beq.n	8001516 <RCC_GetClocksFreq+0x7e>
      {
        /* HSE used as PLL clock source */
        pllvco = (HSE_VALUE / pllm) * ((RCC->PLLCFGR & RCC_PLLCFGR_PLLN) >> 6);
 80014fc:	4a38      	ldr	r2, [pc, #224]	; (80015e0 <RCC_GetClocksFreq+0x148>)
 80014fe:	68bb      	ldr	r3, [r7, #8]
 8001500:	fbb2 f3f3 	udiv	r3, r2, r3
 8001504:	4a34      	ldr	r2, [pc, #208]	; (80015d8 <RCC_GetClocksFreq+0x140>)
 8001506:	6852      	ldr	r2, [r2, #4]
 8001508:	0992      	lsrs	r2, r2, #6
 800150a:	f3c2 0208 	ubfx	r2, r2, #0, #9
 800150e:	fb02 f303 	mul.w	r3, r2, r3
 8001512:	61fb      	str	r3, [r7, #28]
 8001514:	e00b      	b.n	800152e <RCC_GetClocksFreq+0x96>
      }
      else
      {
        /* HSI used as PLL clock source */
        pllvco = (HSI_VALUE / pllm) * ((RCC->PLLCFGR & RCC_PLLCFGR_PLLN) >> 6);      
 8001516:	4a31      	ldr	r2, [pc, #196]	; (80015dc <RCC_GetClocksFreq+0x144>)
 8001518:	68bb      	ldr	r3, [r7, #8]
 800151a:	fbb2 f3f3 	udiv	r3, r2, r3
 800151e:	4a2e      	ldr	r2, [pc, #184]	; (80015d8 <RCC_GetClocksFreq+0x140>)
 8001520:	6852      	ldr	r2, [r2, #4]
 8001522:	0992      	lsrs	r2, r2, #6
 8001524:	f3c2 0208 	ubfx	r2, r2, #0, #9
 8001528:	fb02 f303 	mul.w	r3, r2, r3
 800152c:	61fb      	str	r3, [r7, #28]
      }

      pllp = (((RCC->PLLCFGR & RCC_PLLCFGR_PLLP) >>16) + 1 ) *2;
 800152e:	4b2a      	ldr	r3, [pc, #168]	; (80015d8 <RCC_GetClocksFreq+0x140>)
 8001530:	685b      	ldr	r3, [r3, #4]
 8001532:	0c1b      	lsrs	r3, r3, #16
 8001534:	f003 0303 	and.w	r3, r3, #3
 8001538:	3301      	adds	r3, #1
 800153a:	005b      	lsls	r3, r3, #1
 800153c:	613b      	str	r3, [r7, #16]
      RCC_Clocks->SYSCLK_Frequency = pllvco/pllp;
 800153e:	69fa      	ldr	r2, [r7, #28]
 8001540:	693b      	ldr	r3, [r7, #16]
 8001542:	fbb2 f2f3 	udiv	r2, r2, r3
 8001546:	687b      	ldr	r3, [r7, #4]
 8001548:	601a      	str	r2, [r3, #0]
      break;
 800154a:	e003      	b.n	8001554 <RCC_GetClocksFreq+0xbc>
    default:
      RCC_Clocks->SYSCLK_Frequency = HSI_VALUE;
 800154c:	687b      	ldr	r3, [r7, #4]
 800154e:	4a23      	ldr	r2, [pc, #140]	; (80015dc <RCC_GetClocksFreq+0x144>)
 8001550:	601a      	str	r2, [r3, #0]
      break;
 8001552:	bf00      	nop
  }
  /* Compute HCLK, PCLK1 and PCLK2 clocks frequencies ------------------------*/

  /* Get HCLK prescaler */
  tmp = RCC->CFGR & RCC_CFGR_HPRE;
 8001554:	4b20      	ldr	r3, [pc, #128]	; (80015d8 <RCC_GetClocksFreq+0x140>)
 8001556:	689b      	ldr	r3, [r3, #8]
 8001558:	f003 03f0 	and.w	r3, r3, #240	; 0xf0
 800155c:	61bb      	str	r3, [r7, #24]
  tmp = tmp >> 4;
 800155e:	69bb      	ldr	r3, [r7, #24]
 8001560:	091b      	lsrs	r3, r3, #4
 8001562:	61bb      	str	r3, [r7, #24]
  presc = APBAHBPrescTable[tmp];
 8001564:	4a1f      	ldr	r2, [pc, #124]	; (80015e4 <RCC_GetClocksFreq+0x14c>)
 8001566:	69bb      	ldr	r3, [r7, #24]
 8001568:	4413      	add	r3, r2
 800156a:	781b      	ldrb	r3, [r3, #0]
 800156c:	b2db      	uxtb	r3, r3
 800156e:	617b      	str	r3, [r7, #20]
  /* HCLK clock frequency */
  RCC_Clocks->HCLK_Frequency = RCC_Clocks->SYSCLK_Frequency >> presc;
 8001570:	687b      	ldr	r3, [r7, #4]
 8001572:	681a      	ldr	r2, [r3, #0]
 8001574:	697b      	ldr	r3, [r7, #20]
 8001576:	40da      	lsrs	r2, r3
 8001578:	687b      	ldr	r3, [r7, #4]
 800157a:	605a      	str	r2, [r3, #4]

  /* Get PCLK1 prescaler */
  tmp = RCC->CFGR & RCC_CFGR_PPRE1;
 800157c:	4b16      	ldr	r3, [pc, #88]	; (80015d8 <RCC_GetClocksFreq+0x140>)
 800157e:	689b      	ldr	r3, [r3, #8]
 8001580:	f403 53e0 	and.w	r3, r3, #7168	; 0x1c00
 8001584:	61bb      	str	r3, [r7, #24]
  tmp = tmp >> 10;
 8001586:	69bb      	ldr	r3, [r7, #24]
 8001588:	0a9b      	lsrs	r3, r3, #10
 800158a:	61bb      	str	r3, [r7, #24]
  presc = APBAHBPrescTable[tmp];
 800158c:	4a15      	ldr	r2, [pc, #84]	; (80015e4 <RCC_GetClocksFreq+0x14c>)
 800158e:	69bb      	ldr	r3, [r7, #24]
 8001590:	4413      	add	r3, r2
 8001592:	781b      	ldrb	r3, [r3, #0]
 8001594:	b2db      	uxtb	r3, r3
 8001596:	617b      	str	r3, [r7, #20]
  /* PCLK1 clock frequency */
  RCC_Clocks->PCLK1_Frequency = RCC_Clocks->HCLK_Frequency >> presc;
 8001598:	687b      	ldr	r3, [r7, #4]
 800159a:	685a      	ldr	r2, [r3, #4]
 800159c:	697b      	ldr	r3, [r7, #20]
 800159e:	40da      	lsrs	r2, r3
 80015a0:	687b      	ldr	r3, [r7, #4]
 80015a2:	609a      	str	r2, [r3, #8]

  /* Get PCLK2 prescaler */
  tmp = RCC->CFGR & RCC_CFGR_PPRE2;
 80015a4:	4b0c      	ldr	r3, [pc, #48]	; (80015d8 <RCC_GetClocksFreq+0x140>)
 80015a6:	689b      	ldr	r3, [r3, #8]
 80015a8:	f403 4360 	and.w	r3, r3, #57344	; 0xe000
 80015ac:	61bb      	str	r3, [r7, #24]
  tmp = tmp >> 13;
 80015ae:	69bb      	ldr	r3, [r7, #24]
 80015b0:	0b5b      	lsrs	r3, r3, #13
 80015b2:	61bb      	str	r3, [r7, #24]
  presc = APBAHBPrescTable[tmp];
 80015b4:	4a0b      	ldr	r2, [pc, #44]	; (80015e4 <RCC_GetClocksFreq+0x14c>)
 80015b6:	69bb      	ldr	r3, [r7, #24]
 80015b8:	4413      	add	r3, r2
 80015ba:	781b      	ldrb	r3, [r3, #0]
 80015bc:	b2db      	uxtb	r3, r3
 80015be:	617b      	str	r3, [r7, #20]
  /* PCLK2 clock frequency */
  RCC_Clocks->PCLK2_Frequency = RCC_Clocks->HCLK_Frequency >> presc;
 80015c0:	687b      	ldr	r3, [r7, #4]
 80015c2:	685a      	ldr	r2, [r3, #4]
 80015c4:	697b      	ldr	r3, [r7, #20]
 80015c6:	40da      	lsrs	r2, r3
 80015c8:	687b      	ldr	r3, [r7, #4]
 80015ca:	60da      	str	r2, [r3, #12]
}
 80015cc:	bf00      	nop
 80015ce:	3724      	adds	r7, #36	; 0x24
 80015d0:	46bd      	mov	sp, r7
 80015d2:	f85d 7b04 	ldr.w	r7, [sp], #4
 80015d6:	4770      	bx	lr
 80015d8:	40023800 	.word	0x40023800
 80015dc:	00f42400 	.word	0x00f42400
 80015e0:	007a1200 	.word	0x007a1200
 80015e4:	20000000 	.word	0x20000000

080015e8 <RCC_AHB1PeriphClockCmd>:
  * @param  NewState: new state of the specified peripheral clock.
  *          This parameter can be: ENABLE or DISABLE.
  * @retval None
  */
void RCC_AHB1PeriphClockCmd(uint32_t RCC_AHB1Periph, FunctionalState NewState)
{
 80015e8:	b480      	push	{r7}
 80015ea:	b083      	sub	sp, #12
 80015ec:	af00      	add	r7, sp, #0
 80015ee:	6078      	str	r0, [r7, #4]
 80015f0:	460b      	mov	r3, r1
 80015f2:	70fb      	strb	r3, [r7, #3]
  /* Check the parameters */
  assert_param(IS_RCC_AHB1_CLOCK_PERIPH(RCC_AHB1Periph));

  assert_param(IS_FUNCTIONAL_STATE(NewState));
  if (NewState != DISABLE)
 80015f4:	78fb      	ldrb	r3, [r7, #3]
 80015f6:	2b00      	cmp	r3, #0
 80015f8:	d006      	beq.n	8001608 <RCC_AHB1PeriphClockCmd+0x20>
  {
    RCC->AHB1ENR |= RCC_AHB1Periph;
 80015fa:	490a      	ldr	r1, [pc, #40]	; (8001624 <RCC_AHB1PeriphClockCmd+0x3c>)
 80015fc:	4b09      	ldr	r3, [pc, #36]	; (8001624 <RCC_AHB1PeriphClockCmd+0x3c>)
 80015fe:	6b1a      	ldr	r2, [r3, #48]	; 0x30
 8001600:	687b      	ldr	r3, [r7, #4]
 8001602:	4313      	orrs	r3, r2
 8001604:	630b      	str	r3, [r1, #48]	; 0x30
  }
  else
  {
    RCC->AHB1ENR &= ~RCC_AHB1Periph;
  }
}
 8001606:	e006      	b.n	8001616 <RCC_AHB1PeriphClockCmd+0x2e>
    RCC->AHB1ENR &= ~RCC_AHB1Periph;
 8001608:	4906      	ldr	r1, [pc, #24]	; (8001624 <RCC_AHB1PeriphClockCmd+0x3c>)
 800160a:	4b06      	ldr	r3, [pc, #24]	; (8001624 <RCC_AHB1PeriphClockCmd+0x3c>)
 800160c:	6b1a      	ldr	r2, [r3, #48]	; 0x30
 800160e:	687b      	ldr	r3, [r7, #4]
 8001610:	43db      	mvns	r3, r3
 8001612:	4013      	ands	r3, r2
 8001614:	630b      	str	r3, [r1, #48]	; 0x30
}
 8001616:	bf00      	nop
 8001618:	370c      	adds	r7, #12
 800161a:	46bd      	mov	sp, r7
 800161c:	f85d 7b04 	ldr.w	r7, [sp], #4
 8001620:	4770      	bx	lr
 8001622:	bf00      	nop
 8001624:	40023800 	.word	0x40023800

08001628 <RCC_AHB2PeriphClockCmd>:
  * @param  NewState: new state of the specified peripheral clock.
  *          This parameter can be: ENABLE or DISABLE.
  * @retval None
  */
void RCC_AHB2PeriphClockCmd(uint32_t RCC_AHB2Periph, FunctionalState NewState)
{
 8001628:	b480      	push	{r7}
 800162a:	b083      	sub	sp, #12
 800162c:	af00      	add	r7, sp, #0
 800162e:	6078      	str	r0, [r7, #4]
 8001630:	460b      	mov	r3, r1
 8001632:	70fb      	strb	r3, [r7, #3]
  /* Check the parameters */
  assert_param(IS_RCC_AHB2_PERIPH(RCC_AHB2Periph));
  assert_param(IS_FUNCTIONAL_STATE(NewState));

  if (NewState != DISABLE)
 8001634:	78fb      	ldrb	r3, [r7, #3]
 8001636:	2b00      	cmp	r3, #0
 8001638:	d006      	beq.n	8001648 <RCC_AHB2PeriphClockCmd+0x20>
  {
    RCC->AHB2ENR |= RCC_AHB2Periph;
 800163a:	490a      	ldr	r1, [pc, #40]	; (8001664 <RCC_AHB2PeriphClockCmd+0x3c>)
 800163c:	4b09      	ldr	r3, [pc, #36]	; (8001664 <RCC_AHB2PeriphClockCmd+0x3c>)
 800163e:	6b5a      	ldr	r2, [r3, #52]	; 0x34
 8001640:	687b      	ldr	r3, [r7, #4]
 8001642:	4313      	orrs	r3, r2
 8001644:	634b      	str	r3, [r1, #52]	; 0x34
  }
  else
  {
    RCC->AHB2ENR &= ~RCC_AHB2Periph;
  }
}
 8001646:	e006      	b.n	8001656 <RCC_AHB2PeriphClockCmd+0x2e>
    RCC->AHB2ENR &= ~RCC_AHB2Periph;
 8001648:	4906      	ldr	r1, [pc, #24]	; (8001664 <RCC_AHB2PeriphClockCmd+0x3c>)
 800164a:	4b06      	ldr	r3, [pc, #24]	; (8001664 <RCC_AHB2PeriphClockCmd+0x3c>)
 800164c:	6b5a      	ldr	r2, [r3, #52]	; 0x34
 800164e:	687b      	ldr	r3, [r7, #4]
 8001650:	43db      	mvns	r3, r3
 8001652:	4013      	ands	r3, r2
 8001654:	634b      	str	r3, [r1, #52]	; 0x34
}
 8001656:	bf00      	nop
 8001658:	370c      	adds	r7, #12
 800165a:	46bd      	mov	sp, r7
 800165c:	f85d 7b04 	ldr.w	r7, [sp], #4
 8001660:	4770      	bx	lr
 8001662:	bf00      	nop
 8001664:	40023800 	.word	0x40023800

08001668 <RCC_APB2PeriphClockCmd>:
  * @param  NewState: new state of the specified peripheral clock.
  *          This parameter can be: ENABLE or DISABLE.
  * @retval None
  */
void RCC_APB2PeriphClockCmd(uint32_t RCC_APB2Periph, FunctionalState NewState)
{
 8001668:	b480      	push	{r7}
 800166a:	b083      	sub	sp, #12
 800166c:	af00      	add	r7, sp, #0
 800166e:	6078      	str	r0, [r7, #4]
 8001670:	460b      	mov	r3, r1
 8001672:	70fb      	strb	r3, [r7, #3]
  /* Check the parameters */
  assert_param(IS_RCC_APB2_PERIPH(RCC_APB2Periph));
  assert_param(IS_FUNCTIONAL_STATE(NewState));

  if (NewState != DISABLE)
 8001674:	78fb      	ldrb	r3, [r7, #3]
 8001676:	2b00      	cmp	r3, #0
 8001678:	d006      	beq.n	8001688 <RCC_APB2PeriphClockCmd+0x20>
  {
    RCC->APB2ENR |= RCC_APB2Periph;
 800167a:	490a      	ldr	r1, [pc, #40]	; (80016a4 <RCC_APB2PeriphClockCmd+0x3c>)
 800167c:	4b09      	ldr	r3, [pc, #36]	; (80016a4 <RCC_APB2PeriphClockCmd+0x3c>)
 800167e:	6c5a      	ldr	r2, [r3, #68]	; 0x44
 8001680:	687b      	ldr	r3, [r7, #4]
 8001682:	4313      	orrs	r3, r2
 8001684:	644b      	str	r3, [r1, #68]	; 0x44
  }
  else
  {
    RCC->APB2ENR &= ~RCC_APB2Periph;
  }
}
 8001686:	e006      	b.n	8001696 <RCC_APB2PeriphClockCmd+0x2e>
    RCC->APB2ENR &= ~RCC_APB2Periph;
 8001688:	4906      	ldr	r1, [pc, #24]	; (80016a4 <RCC_APB2PeriphClockCmd+0x3c>)
 800168a:	4b06      	ldr	r3, [pc, #24]	; (80016a4 <RCC_APB2PeriphClockCmd+0x3c>)
 800168c:	6c5a      	ldr	r2, [r3, #68]	; 0x44
 800168e:	687b      	ldr	r3, [r7, #4]
 8001690:	43db      	mvns	r3, r3
 8001692:	4013      	ands	r3, r2
 8001694:	644b      	str	r3, [r1, #68]	; 0x44
}
 8001696:	bf00      	nop
 8001698:	370c      	adds	r7, #12
 800169a:	46bd      	mov	sp, r7
 800169c:	f85d 7b04 	ldr.w	r7, [sp], #4
 80016a0:	4770      	bx	lr
 80016a2:	bf00      	nop
 80016a4:	40023800 	.word	0x40023800

080016a8 <RCC_APB1PeriphResetCmd>:
  * @param  NewState: new state of the specified peripheral reset.
  *          This parameter can be: ENABLE or DISABLE.
  * @retval None
  */
void RCC_APB1PeriphResetCmd(uint32_t RCC_APB1Periph, FunctionalState NewState)
{
 80016a8:	b480      	push	{r7}
 80016aa:	b083      	sub	sp, #12
 80016ac:	af00      	add	r7, sp, #0
 80016ae:	6078      	str	r0, [r7, #4]
 80016b0:	460b      	mov	r3, r1
 80016b2:	70fb      	strb	r3, [r7, #3]
  /* Check the parameters */
  assert_param(IS_RCC_APB1_PERIPH(RCC_APB1Periph));
  assert_param(IS_FUNCTIONAL_STATE(NewState));
  if (NewState != DISABLE)
 80016b4:	78fb      	ldrb	r3, [r7, #3]
 80016b6:	2b00      	cmp	r3, #0
 80016b8:	d006      	beq.n	80016c8 <RCC_APB1PeriphResetCmd+0x20>
  {
    RCC->APB1RSTR |= RCC_APB1Periph;
 80016ba:	490a      	ldr	r1, [pc, #40]	; (80016e4 <RCC_APB1PeriphResetCmd+0x3c>)
 80016bc:	4b09      	ldr	r3, [pc, #36]	; (80016e4 <RCC_APB1PeriphResetCmd+0x3c>)
 80016be:	6a1a      	ldr	r2, [r3, #32]
 80016c0:	687b      	ldr	r3, [r7, #4]
 80016c2:	4313      	orrs	r3, r2
 80016c4:	620b      	str	r3, [r1, #32]
  }
  else
  {
    RCC->APB1RSTR &= ~RCC_APB1Periph;
  }
}
 80016c6:	e006      	b.n	80016d6 <RCC_APB1PeriphResetCmd+0x2e>
    RCC->APB1RSTR &= ~RCC_APB1Periph;
 80016c8:	4906      	ldr	r1, [pc, #24]	; (80016e4 <RCC_APB1PeriphResetCmd+0x3c>)
 80016ca:	4b06      	ldr	r3, [pc, #24]	; (80016e4 <RCC_APB1PeriphResetCmd+0x3c>)
 80016cc:	6a1a      	ldr	r2, [r3, #32]
 80016ce:	687b      	ldr	r3, [r7, #4]
 80016d0:	43db      	mvns	r3, r3
 80016d2:	4013      	ands	r3, r2
 80016d4:	620b      	str	r3, [r1, #32]
}
 80016d6:	bf00      	nop
 80016d8:	370c      	adds	r7, #12
 80016da:	46bd      	mov	sp, r7
 80016dc:	f85d 7b04 	ldr.w	r7, [sp], #4
 80016e0:	4770      	bx	lr
 80016e2:	bf00      	nop
 80016e4:	40023800 	.word	0x40023800

080016e8 <TIM_TimeBaseInit>:
  * @param  TIM_TimeBaseInitStruct: pointer to a TIM_TimeBaseInitTypeDef structure
  *         that contains the configuration information for the specified TIM peripheral.
  * @retval None
  */
void TIM_TimeBaseInit(TIM_TypeDef* TIMx, TIM_TimeBaseInitTypeDef* TIM_TimeBaseInitStruct)
{
 80016e8:	b480      	push	{r7}
 80016ea:	b085      	sub	sp, #20
 80016ec:	af00      	add	r7, sp, #0
 80016ee:	6078      	str	r0, [r7, #4]
 80016f0:	6039      	str	r1, [r7, #0]
  uint16_t tmpcr1 = 0;
 80016f2:	2300      	movs	r3, #0
 80016f4:	81fb      	strh	r3, [r7, #14]
  /* Check the parameters */
  assert_param(IS_TIM_ALL_PERIPH(TIMx)); 
  assert_param(IS_TIM_COUNTER_MODE(TIM_TimeBaseInitStruct->TIM_CounterMode));
  assert_param(IS_TIM_CKD_DIV(TIM_TimeBaseInitStruct->TIM_ClockDivision));

  tmpcr1 = TIMx->CR1;  
 80016f6:	687b      	ldr	r3, [r7, #4]
 80016f8:	881b      	ldrh	r3, [r3, #0]
 80016fa:	81fb      	strh	r3, [r7, #14]

  if((TIMx == TIM1) || (TIMx == TIM8)||
 80016fc:	687b      	ldr	r3, [r7, #4]
 80016fe:	4a29      	ldr	r2, [pc, #164]	; (80017a4 <TIM_TimeBaseInit+0xbc>)
 8001700:	4293      	cmp	r3, r2
 8001702:	d013      	beq.n	800172c <TIM_TimeBaseInit+0x44>
 8001704:	687b      	ldr	r3, [r7, #4]
 8001706:	4a28      	ldr	r2, [pc, #160]	; (80017a8 <TIM_TimeBaseInit+0xc0>)
 8001708:	4293      	cmp	r3, r2
 800170a:	d00f      	beq.n	800172c <TIM_TimeBaseInit+0x44>
 800170c:	687b      	ldr	r3, [r7, #4]
 800170e:	f1b3 4f80 	cmp.w	r3, #1073741824	; 0x40000000
 8001712:	d00b      	beq.n	800172c <TIM_TimeBaseInit+0x44>
     (TIMx == TIM2) || (TIMx == TIM3)||
 8001714:	687b      	ldr	r3, [r7, #4]
 8001716:	4a25      	ldr	r2, [pc, #148]	; (80017ac <TIM_TimeBaseInit+0xc4>)
 8001718:	4293      	cmp	r3, r2
 800171a:	d007      	beq.n	800172c <TIM_TimeBaseInit+0x44>
 800171c:	687b      	ldr	r3, [r7, #4]
 800171e:	4a24      	ldr	r2, [pc, #144]	; (80017b0 <TIM_TimeBaseInit+0xc8>)
 8001720:	4293      	cmp	r3, r2
 8001722:	d003      	beq.n	800172c <TIM_TimeBaseInit+0x44>
     (TIMx == TIM4) || (TIMx == TIM5)) 
 8001724:	687b      	ldr	r3, [r7, #4]
 8001726:	4a23      	ldr	r2, [pc, #140]	; (80017b4 <TIM_TimeBaseInit+0xcc>)
 8001728:	4293      	cmp	r3, r2
 800172a:	d108      	bne.n	800173e <TIM_TimeBaseInit+0x56>
  {
    /* Select the Counter Mode */
    tmpcr1 &= (uint16_t)(~(TIM_CR1_DIR | TIM_CR1_CMS));
 800172c:	89fb      	ldrh	r3, [r7, #14]
 800172e:	f023 0370 	bic.w	r3, r3, #112	; 0x70
 8001732:	81fb      	strh	r3, [r7, #14]
    tmpcr1 |= (uint32_t)TIM_TimeBaseInitStruct->TIM_CounterMode;
 8001734:	683b      	ldr	r3, [r7, #0]
 8001736:	885a      	ldrh	r2, [r3, #2]
 8001738:	89fb      	ldrh	r3, [r7, #14]
 800173a:	4313      	orrs	r3, r2
 800173c:	81fb      	strh	r3, [r7, #14]
  }
 
  if((TIMx != TIM6) && (TIMx != TIM7))
 800173e:	687b      	ldr	r3, [r7, #4]
 8001740:	4a1d      	ldr	r2, [pc, #116]	; (80017b8 <TIM_TimeBaseInit+0xd0>)
 8001742:	4293      	cmp	r3, r2
 8001744:	d00c      	beq.n	8001760 <TIM_TimeBaseInit+0x78>
 8001746:	687b      	ldr	r3, [r7, #4]
 8001748:	4a1c      	ldr	r2, [pc, #112]	; (80017bc <TIM_TimeBaseInit+0xd4>)
 800174a:	4293      	cmp	r3, r2
 800174c:	d008      	beq.n	8001760 <TIM_TimeBaseInit+0x78>
  {
    /* Set the clock division */
    tmpcr1 &=  (uint16_t)(~TIM_CR1_CKD);
 800174e:	89fb      	ldrh	r3, [r7, #14]
 8001750:	f423 7340 	bic.w	r3, r3, #768	; 0x300
 8001754:	81fb      	strh	r3, [r7, #14]
    tmpcr1 |= (uint32_t)TIM_TimeBaseInitStruct->TIM_ClockDivision;
 8001756:	683b      	ldr	r3, [r7, #0]
 8001758:	891a      	ldrh	r2, [r3, #8]
 800175a:	89fb      	ldrh	r3, [r7, #14]
 800175c:	4313      	orrs	r3, r2
 800175e:	81fb      	strh	r3, [r7, #14]
  }

  TIMx->CR1 = tmpcr1;
 8001760:	687b      	ldr	r3, [r7, #4]
 8001762:	89fa      	ldrh	r2, [r7, #14]
 8001764:	801a      	strh	r2, [r3, #0]

  /* Set the Autoreload value */
  TIMx->ARR = TIM_TimeBaseInitStruct->TIM_Period ;
 8001766:	683b      	ldr	r3, [r7, #0]
 8001768:	685a      	ldr	r2, [r3, #4]
 800176a:	687b      	ldr	r3, [r7, #4]
 800176c:	62da      	str	r2, [r3, #44]	; 0x2c
 
  /* Set the Prescaler value */
  TIMx->PSC = TIM_TimeBaseInitStruct->TIM_Prescaler;
 800176e:	683b      	ldr	r3, [r7, #0]
 8001770:	881a      	ldrh	r2, [r3, #0]
 8001772:	687b      	ldr	r3, [r7, #4]
 8001774:	851a      	strh	r2, [r3, #40]	; 0x28
    
  if ((TIMx == TIM1) || (TIMx == TIM8))  
 8001776:	687b      	ldr	r3, [r7, #4]
 8001778:	4a0a      	ldr	r2, [pc, #40]	; (80017a4 <TIM_TimeBaseInit+0xbc>)
 800177a:	4293      	cmp	r3, r2
 800177c:	d003      	beq.n	8001786 <TIM_TimeBaseInit+0x9e>
 800177e:	687b      	ldr	r3, [r7, #4]
 8001780:	4a09      	ldr	r2, [pc, #36]	; (80017a8 <TIM_TimeBaseInit+0xc0>)
 8001782:	4293      	cmp	r3, r2
 8001784:	d104      	bne.n	8001790 <TIM_TimeBaseInit+0xa8>
  {
    /* Set the Repetition Counter value */
    TIMx->RCR = TIM_TimeBaseInitStruct->TIM_RepetitionCounter;
 8001786:	683b      	ldr	r3, [r7, #0]
 8001788:	7a9b      	ldrb	r3, [r3, #10]
 800178a:	b29a      	uxth	r2, r3
 800178c:	687b      	ldr	r3, [r7, #4]
 800178e:	861a      	strh	r2, [r3, #48]	; 0x30
  }

  /* Generate an update event to reload the Prescaler 
     and the repetition counter(only for TIM1 and TIM8) value immediatly */
  TIMx->EGR = TIM_PSCReloadMode_Immediate;          
 8001790:	687b      	ldr	r3, [r7, #4]
 8001792:	2201      	movs	r2, #1
 8001794:	829a      	strh	r2, [r3, #20]
}
 8001796:	bf00      	nop
 8001798:	3714      	adds	r7, #20
 800179a:	46bd      	mov	sp, r7
 800179c:	f85d 7b04 	ldr.w	r7, [sp], #4
 80017a0:	4770      	bx	lr
 80017a2:	bf00      	nop
 80017a4:	40010000 	.word	0x40010000
 80017a8:	40010400 	.word	0x40010400
 80017ac:	40000400 	.word	0x40000400
 80017b0:	40000800 	.word	0x40000800
 80017b4:	40000c00 	.word	0x40000c00
 80017b8:	40001000 	.word	0x40001000
 80017bc:	40001400 	.word	0x40001400

080017c0 <TIM_TimeBaseStructInit>:
  * @param  TIM_TimeBaseInitStruct : pointer to a TIM_TimeBaseInitTypeDef
  *         structure which will be initialized.
  * @retval None
  */
void TIM_TimeBaseStructInit(TIM_TimeBaseInitTypeDef* TIM_TimeBaseInitStruct)
{
 80017c0:	b480      	push	{r7}
 80017c2:	b083      	sub	sp, #12
 80017c4:	af00      	add	r7, sp, #0
 80017c6:	6078      	str	r0, [r7, #4]
  /* Set the default configuration */
  TIM_TimeBaseInitStruct->TIM_Period = 0xFFFFFFFF;
 80017c8:	687b      	ldr	r3, [r7, #4]
 80017ca:	f04f 32ff 	mov.w	r2, #4294967295
 80017ce:	605a      	str	r2, [r3, #4]
  TIM_TimeBaseInitStruct->TIM_Prescaler = 0x0000;
 80017d0:	687b      	ldr	r3, [r7, #4]
 80017d2:	2200      	movs	r2, #0
 80017d4:	801a      	strh	r2, [r3, #0]
  TIM_TimeBaseInitStruct->TIM_ClockDivision = TIM_CKD_DIV1;
 80017d6:	687b      	ldr	r3, [r7, #4]
 80017d8:	2200      	movs	r2, #0
 80017da:	811a      	strh	r2, [r3, #8]
  TIM_TimeBaseInitStruct->TIM_CounterMode = TIM_CounterMode_Up;
 80017dc:	687b      	ldr	r3, [r7, #4]
 80017de:	2200      	movs	r2, #0
 80017e0:	805a      	strh	r2, [r3, #2]
  TIM_TimeBaseInitStruct->TIM_RepetitionCounter = 0x0000;
 80017e2:	687b      	ldr	r3, [r7, #4]
 80017e4:	2200      	movs	r2, #0
 80017e6:	729a      	strb	r2, [r3, #10]
}
 80017e8:	bf00      	nop
 80017ea:	370c      	adds	r7, #12
 80017ec:	46bd      	mov	sp, r7
 80017ee:	f85d 7b04 	ldr.w	r7, [sp], #4
 80017f2:	4770      	bx	lr

080017f4 <TIM_SelectOutputTrigger>:
  *            @arg TIM_TRGOSource_OC4Ref: OC4REF signal is used as the trigger output(TRGO)
  *
  * @retval None
  */
void TIM_SelectOutputTrigger(TIM_TypeDef* TIMx, uint16_t TIM_TRGOSource)
{
 80017f4:	b480      	push	{r7}
 80017f6:	b083      	sub	sp, #12
 80017f8:	af00      	add	r7, sp, #0
 80017fa:	6078      	str	r0, [r7, #4]
 80017fc:	460b      	mov	r3, r1
 80017fe:	807b      	strh	r3, [r7, #2]
  /* Check the parameters */
  assert_param(IS_TIM_LIST5_PERIPH(TIMx));
  assert_param(IS_TIM_TRGO_SOURCE(TIM_TRGOSource));

  /* Reset the MMS Bits */
  TIMx->CR2 &= (uint16_t)~TIM_CR2_MMS;
 8001800:	687b      	ldr	r3, [r7, #4]
 8001802:	889b      	ldrh	r3, [r3, #4]
 8001804:	b29b      	uxth	r3, r3
 8001806:	f023 0370 	bic.w	r3, r3, #112	; 0x70
 800180a:	b29a      	uxth	r2, r3
 800180c:	687b      	ldr	r3, [r7, #4]
 800180e:	809a      	strh	r2, [r3, #4]
  /* Select the TRGO source */
  TIMx->CR2 |=  TIM_TRGOSource;
 8001810:	687b      	ldr	r3, [r7, #4]
 8001812:	889b      	ldrh	r3, [r3, #4]
 8001814:	b29a      	uxth	r2, r3
 8001816:	887b      	ldrh	r3, [r7, #2]
 8001818:	4313      	orrs	r3, r2
 800181a:	b29a      	uxth	r2, r3
 800181c:	687b      	ldr	r3, [r7, #4]
 800181e:	809a      	strh	r2, [r3, #4]
}
 8001820:	bf00      	nop
 8001822:	370c      	adds	r7, #12
 8001824:	46bd      	mov	sp, r7
 8001826:	f85d 7b04 	ldr.w	r7, [sp], #4
 800182a:	4770      	bx	lr

0800182c <TM_DAC_SIGNAL_Init>:
};

TIM_TypeDef *DAC_TIM[2];
uint8_t dac_timer_set[2] = {0, 0};

TM_DAC_SIGNAL_Result_t TM_DAC_SIGNAL_Init(TM_DAC_SIGNAL_Channel_t DACx, TIM_TypeDef* TIMx) {
 800182c:	b580      	push	{r7, lr}
 800182e:	b086      	sub	sp, #24
 8001830:	af02      	add	r7, sp, #8
 8001832:	4603      	mov	r3, r0
 8001834:	6039      	str	r1, [r7, #0]
 8001836:	71fb      	strb	r3, [r7, #7]
	uint16_t GPIO_Pin;
	
	/* Check used timer */
	/* Set proper trigger */
	if (
 8001838:	683b      	ldr	r3, [r7, #0]
 800183a:	f1b3 4f80 	cmp.w	r3, #1073741824	; 0x40000000
 800183e:	d013      	beq.n	8001868 <TM_DAC_SIGNAL_Init+0x3c>
		TIMx == TIM2 || 
 8001840:	683b      	ldr	r3, [r7, #0]
 8001842:	4a1b      	ldr	r2, [pc, #108]	; (80018b0 <TM_DAC_SIGNAL_Init+0x84>)
 8001844:	4293      	cmp	r3, r2
 8001846:	d00f      	beq.n	8001868 <TM_DAC_SIGNAL_Init+0x3c>
		TIMx == TIM4 ||
 8001848:	683b      	ldr	r3, [r7, #0]
 800184a:	4a1a      	ldr	r2, [pc, #104]	; (80018b4 <TM_DAC_SIGNAL_Init+0x88>)
 800184c:	4293      	cmp	r3, r2
 800184e:	d00b      	beq.n	8001868 <TM_DAC_SIGNAL_Init+0x3c>
		TIMx == TIM5 ||
 8001850:	683b      	ldr	r3, [r7, #0]
 8001852:	4a19      	ldr	r2, [pc, #100]	; (80018b8 <TM_DAC_SIGNAL_Init+0x8c>)
 8001854:	4293      	cmp	r3, r2
 8001856:	d007      	beq.n	8001868 <TM_DAC_SIGNAL_Init+0x3c>
		TIMx == TIM6 ||
 8001858:	683b      	ldr	r3, [r7, #0]
 800185a:	4a18      	ldr	r2, [pc, #96]	; (80018bc <TM_DAC_SIGNAL_Init+0x90>)
 800185c:	4293      	cmp	r3, r2
 800185e:	d003      	beq.n	8001868 <TM_DAC_SIGNAL_Init+0x3c>
		TIMx == TIM7 ||
 8001860:	683b      	ldr	r3, [r7, #0]
 8001862:	4a17      	ldr	r2, [pc, #92]	; (80018c0 <TM_DAC_SIGNAL_Init+0x94>)
 8001864:	4293      	cmp	r3, r2
 8001866:	d10c      	bne.n	8001882 <TM_DAC_SIGNAL_Init+0x56>
		TIMx == TIM8
	) {
		/* Set timer */
		DAC_TIM[DACx] = TIMx;
 8001868:	79fb      	ldrb	r3, [r7, #7]
 800186a:	4916      	ldr	r1, [pc, #88]	; (80018c4 <TM_DAC_SIGNAL_Init+0x98>)
 800186c:	683a      	ldr	r2, [r7, #0]
 800186e:	f841 2023 	str.w	r2, [r1, r3, lsl #2]
		/* Set flag */
		dac_timer_set[DACx] = 1;
 8001872:	79fb      	ldrb	r3, [r7, #7]
 8001874:	4a14      	ldr	r2, [pc, #80]	; (80018c8 <TM_DAC_SIGNAL_Init+0x9c>)
 8001876:	2101      	movs	r1, #1
 8001878:	54d1      	strb	r1, [r2, r3]
		return TM_DAC_SIGNAL_Result_TimerNotValid;
	}

	
	/* Select proper GPIO pin */
	if (DACx == TM_DAC1) {
 800187a:	79fb      	ldrb	r3, [r7, #7]
 800187c:	2b00      	cmp	r3, #0
 800187e:	d002      	beq.n	8001886 <TM_DAC_SIGNAL_Init+0x5a>
 8001880:	e004      	b.n	800188c <TM_DAC_SIGNAL_Init+0x60>
		return TM_DAC_SIGNAL_Result_TimerNotValid;
 8001882:	2302      	movs	r3, #2
 8001884:	e00f      	b.n	80018a6 <TM_DAC_SIGNAL_Init+0x7a>
		GPIO_Pin = GPIO_PIN_4;
 8001886:	2310      	movs	r3, #16
 8001888:	81fb      	strh	r3, [r7, #14]
 800188a:	e001      	b.n	8001890 <TM_DAC_SIGNAL_Init+0x64>
	} else {
		GPIO_Pin = GPIO_PIN_5;
 800188c:	2320      	movs	r3, #32
 800188e:	81fb      	strh	r3, [r7, #14]
	}
	
	/* Initialize proper GPIO pin */
	TM_GPIO_Init(GPIOA, GPIO_Pin, TM_GPIO_Mode_AN, TM_GPIO_OType_PP, TM_GPIO_PuPd_NOPULL, TM_GPIO_Speed_Fast);
 8001890:	89f9      	ldrh	r1, [r7, #14]
 8001892:	2302      	movs	r3, #2
 8001894:	9301      	str	r3, [sp, #4]
 8001896:	2300      	movs	r3, #0
 8001898:	9300      	str	r3, [sp, #0]
 800189a:	2300      	movs	r3, #0
 800189c:	2203      	movs	r2, #3
 800189e:	480b      	ldr	r0, [pc, #44]	; (80018cc <TM_DAC_SIGNAL_Init+0xa0>)
 80018a0:	f000 fc22 	bl	80020e8 <TM_GPIO_Init>
	
	/* Return OK */
	return TM_DAC_SIGNAL_Result_Ok;
 80018a4:	2300      	movs	r3, #0
}
 80018a6:	4618      	mov	r0, r3
 80018a8:	3710      	adds	r7, #16
 80018aa:	46bd      	mov	sp, r7
 80018ac:	bd80      	pop	{r7, pc}
 80018ae:	bf00      	nop
 80018b0:	40000800 	.word	0x40000800
 80018b4:	40000c00 	.word	0x40000c00
 80018b8:	40001000 	.word	0x40001000
 80018bc:	40001400 	.word	0x40001400
 80018c0:	40010400 	.word	0x40010400
 80018c4:	20007eb4 	.word	0x20007eb4
 80018c8:	20007e4c 	.word	0x20007e4c
 80018cc:	40020000 	.word	0x40020000

080018d0 <TM_DAC_SIGNAL_SetSignal>:

TM_DAC_SIGNAL_Result_t TM_DAC_SIGNAL_SetSignal(TM_DAC_SIGNAL_Channel_t DACx, TM_DAC_SIGNAL_Signal_t signal_type, double frequency) {
 80018d0:	b580      	push	{r7, lr}
 80018d2:	b086      	sub	sp, #24
 80018d4:	af00      	add	r7, sp, #0
 80018d6:	4603      	mov	r3, r0
 80018d8:	460a      	mov	r2, r1
 80018da:	ed87 0b00 	vstr	d0, [r7]
 80018de:	73fb      	strb	r3, [r7, #15]
 80018e0:	4613      	mov	r3, r2
 80018e2:	73bb      	strb	r3, [r7, #14]
	TM_DAC_SIGNAL_Result_t result;
	switch (signal_type) {
 80018e4:	7bbb      	ldrb	r3, [r7, #14]
 80018e6:	2b00      	cmp	r3, #0
 80018e8:	d002      	beq.n	80018f0 <TM_DAC_SIGNAL_SetSignal+0x20>
 80018ea:	2b01      	cmp	r3, #1
 80018ec:	d00c      	beq.n	8001908 <TM_DAC_SIGNAL_SetSignal+0x38>
 80018ee:	e017      	b.n	8001920 <TM_DAC_SIGNAL_SetSignal+0x50>
		case TM_DAC_SIGNAL_Signal_Chirp:
			result = TM_DAC_SIGNAL_SetCustomSignal(DACx, DAC_SIGNAL_CHIRP, DAC_SIGNAL_CHIRP_LENGTH, frequency);
 80018f0:	7bfb      	ldrb	r3, [r7, #15]
 80018f2:	ed97 0b00 	vldr	d0, [r7]
 80018f6:	f44f 52fa 	mov.w	r2, #8000	; 0x1f40
 80018fa:	490d      	ldr	r1, [pc, #52]	; (8001930 <TM_DAC_SIGNAL_SetSignal+0x60>)
 80018fc:	4618      	mov	r0, r3
 80018fe:	f000 f81b 	bl	8001938 <TM_DAC_SIGNAL_SetCustomSignal>
 8001902:	4603      	mov	r3, r0
 8001904:	75fb      	strb	r3, [r7, #23]
			break;
 8001906:	e00d      	b.n	8001924 <TM_DAC_SIGNAL_SetSignal+0x54>
		case TM_DAC_SIGNAL_Signal_Sinus:
			result = TM_DAC_SIGNAL_SetCustomSignal(DACx, DAC_SIGNAL_SINUS, DAC_SIGNAL_SINUS_LENGTH, frequency);
 8001908:	7bfb      	ldrb	r3, [r7, #15]
 800190a:	ed97 0b00 	vldr	d0, [r7]
 800190e:	f44f 52fa 	mov.w	r2, #8000	; 0x1f40
 8001912:	4908      	ldr	r1, [pc, #32]	; (8001934 <TM_DAC_SIGNAL_SetSignal+0x64>)
 8001914:	4618      	mov	r0, r3
 8001916:	f000 f80f 	bl	8001938 <TM_DAC_SIGNAL_SetCustomSignal>
 800191a:	4603      	mov	r3, r0
 800191c:	75fb      	strb	r3, [r7, #23]
			break;
 800191e:	e001      	b.n	8001924 <TM_DAC_SIGNAL_SetSignal+0x54>
		default:
			result = TM_DAC_SIGNAL_Result_Error;
 8001920:	2301      	movs	r3, #1
 8001922:	75fb      	strb	r3, [r7, #23]
	}
	
	/* Return result */
	return result;
 8001924:	7dfb      	ldrb	r3, [r7, #23]
}
 8001926:	4618      	mov	r0, r3
 8001928:	3718      	adds	r7, #24
 800192a:	46bd      	mov	sp, r7
 800192c:	bd80      	pop	{r7, pc}
 800192e:	bf00      	nop
 8001930:	20000010 	.word	0x20000010
 8001934:	20003e90 	.word	0x20003e90

08001938 <TM_DAC_SIGNAL_SetCustomSignal>:

TM_DAC_SIGNAL_Result_t TM_DAC_SIGNAL_SetCustomSignal(TM_DAC_SIGNAL_Channel_t DACx, uint16_t* Signal_Data, uint16_t Signal_Length, double frequency) {
 8001938:	b580      	push	{r7, lr}
 800193a:	b0a0      	sub	sp, #128	; 0x80
 800193c:	af00      	add	r7, sp, #0
 800193e:	4603      	mov	r3, r0
 8001940:	60b9      	str	r1, [r7, #8]
 8001942:	ed87 0b00 	vstr	d0, [r7]
 8001946:	73fb      	strb	r3, [r7, #15]
 8001948:	4613      	mov	r3, r2
 800194a:	81bb      	strh	r3, [r7, #12]
	TIM_TimeBaseInitTypeDef TIM_TimeBaseStruct;
	DMA_InitTypeDef DMA_InitStruct;
	TM_TIMER_PROPERTIES_t Timer_Data;

	/* Check if timer is set */
	if (!dac_timer_set[DACx]) {
 800194c:	7bfb      	ldrb	r3, [r7, #15]
 800194e:	4a8c      	ldr	r2, [pc, #560]	; (8001b80 <TM_DAC_SIGNAL_SetCustomSignal+0x248>)
 8001950:	5cd3      	ldrb	r3, [r2, r3]
 8001952:	2b00      	cmp	r3, #0
 8001954:	d101      	bne.n	800195a <TM_DAC_SIGNAL_SetCustomSignal+0x22>
		return TM_DAC_SIGNAL_Result_Error;
 8001956:	2301      	movs	r3, #1
 8001958:	e10d      	b.n	8001b76 <TM_DAC_SIGNAL_SetCustomSignal+0x23e>
	}
	
	/* Check used timer */
	/* Set proper trigger */
	if (DAC_TIM[DACx] == TIM2) {
 800195a:	7bfb      	ldrb	r3, [r7, #15]
 800195c:	4a89      	ldr	r2, [pc, #548]	; (8001b84 <TM_DAC_SIGNAL_SetCustomSignal+0x24c>)
 800195e:	f852 3023 	ldr.w	r3, [r2, r3, lsl #2]
 8001962:	f1b3 4f80 	cmp.w	r3, #1073741824	; 0x40000000
 8001966:	d102      	bne.n	800196e <TM_DAC_SIGNAL_SetCustomSignal+0x36>
		DAC_InitStruct.DAC_Trigger = DAC_Trigger_T2_TRGO;
 8001968:	2324      	movs	r3, #36	; 0x24
 800196a:	673b      	str	r3, [r7, #112]	; 0x70
 800196c:	e033      	b.n	80019d6 <TM_DAC_SIGNAL_SetCustomSignal+0x9e>
	} else if (DAC_TIM[DACx] == TIM4) {
 800196e:	7bfb      	ldrb	r3, [r7, #15]
 8001970:	4a84      	ldr	r2, [pc, #528]	; (8001b84 <TM_DAC_SIGNAL_SetCustomSignal+0x24c>)
 8001972:	f852 3023 	ldr.w	r3, [r2, r3, lsl #2]
 8001976:	4a84      	ldr	r2, [pc, #528]	; (8001b88 <TM_DAC_SIGNAL_SetCustomSignal+0x250>)
 8001978:	4293      	cmp	r3, r2
 800197a:	d102      	bne.n	8001982 <TM_DAC_SIGNAL_SetCustomSignal+0x4a>
		DAC_InitStruct.DAC_Trigger = DAC_Trigger_T4_TRGO;
 800197c:	232c      	movs	r3, #44	; 0x2c
 800197e:	673b      	str	r3, [r7, #112]	; 0x70
 8001980:	e029      	b.n	80019d6 <TM_DAC_SIGNAL_SetCustomSignal+0x9e>
	} else if (DAC_TIM[DACx] == TIM5) {
 8001982:	7bfb      	ldrb	r3, [r7, #15]
 8001984:	4a7f      	ldr	r2, [pc, #508]	; (8001b84 <TM_DAC_SIGNAL_SetCustomSignal+0x24c>)
 8001986:	f852 3023 	ldr.w	r3, [r2, r3, lsl #2]
 800198a:	4a80      	ldr	r2, [pc, #512]	; (8001b8c <TM_DAC_SIGNAL_SetCustomSignal+0x254>)
 800198c:	4293      	cmp	r3, r2
 800198e:	d102      	bne.n	8001996 <TM_DAC_SIGNAL_SetCustomSignal+0x5e>
		DAC_InitStruct.DAC_Trigger = DAC_Trigger_T5_TRGO;
 8001990:	231c      	movs	r3, #28
 8001992:	673b      	str	r3, [r7, #112]	; 0x70
 8001994:	e01f      	b.n	80019d6 <TM_DAC_SIGNAL_SetCustomSignal+0x9e>
	} else if (DAC_TIM[DACx] == TIM6) {
 8001996:	7bfb      	ldrb	r3, [r7, #15]
 8001998:	4a7a      	ldr	r2, [pc, #488]	; (8001b84 <TM_DAC_SIGNAL_SetCustomSignal+0x24c>)
 800199a:	f852 3023 	ldr.w	r3, [r2, r3, lsl #2]
 800199e:	4a7c      	ldr	r2, [pc, #496]	; (8001b90 <TM_DAC_SIGNAL_SetCustomSignal+0x258>)
 80019a0:	4293      	cmp	r3, r2
 80019a2:	d102      	bne.n	80019aa <TM_DAC_SIGNAL_SetCustomSignal+0x72>
		DAC_InitStruct.DAC_Trigger = DAC_Trigger_T6_TRGO;
 80019a4:	2304      	movs	r3, #4
 80019a6:	673b      	str	r3, [r7, #112]	; 0x70
 80019a8:	e015      	b.n	80019d6 <TM_DAC_SIGNAL_SetCustomSignal+0x9e>
	} else if (DAC_TIM[DACx] == TIM7) {
 80019aa:	7bfb      	ldrb	r3, [r7, #15]
 80019ac:	4a75      	ldr	r2, [pc, #468]	; (8001b84 <TM_DAC_SIGNAL_SetCustomSignal+0x24c>)
 80019ae:	f852 3023 	ldr.w	r3, [r2, r3, lsl #2]
 80019b2:	4a78      	ldr	r2, [pc, #480]	; (8001b94 <TM_DAC_SIGNAL_SetCustomSignal+0x25c>)
 80019b4:	4293      	cmp	r3, r2
 80019b6:	d102      	bne.n	80019be <TM_DAC_SIGNAL_SetCustomSignal+0x86>
		DAC_InitStruct.DAC_Trigger = DAC_Trigger_T7_TRGO;
 80019b8:	2314      	movs	r3, #20
 80019ba:	673b      	str	r3, [r7, #112]	; 0x70
 80019bc:	e00b      	b.n	80019d6 <TM_DAC_SIGNAL_SetCustomSignal+0x9e>
	} else if (DAC_TIM[DACx] == TIM8) {
 80019be:	7bfb      	ldrb	r3, [r7, #15]
 80019c0:	4a70      	ldr	r2, [pc, #448]	; (8001b84 <TM_DAC_SIGNAL_SetCustomSignal+0x24c>)
 80019c2:	f852 3023 	ldr.w	r3, [r2, r3, lsl #2]
 80019c6:	4a74      	ldr	r2, [pc, #464]	; (8001b98 <TM_DAC_SIGNAL_SetCustomSignal+0x260>)
 80019c8:	4293      	cmp	r3, r2
 80019ca:	d102      	bne.n	80019d2 <TM_DAC_SIGNAL_SetCustomSignal+0x9a>
		DAC_InitStruct.DAC_Trigger = DAC_Trigger_T8_TRGO;
 80019cc:	230c      	movs	r3, #12
 80019ce:	673b      	str	r3, [r7, #112]	; 0x70
 80019d0:	e001      	b.n	80019d6 <TM_DAC_SIGNAL_SetCustomSignal+0x9e>
	} else {
		/* Timer is not valid */
		return TM_DAC_SIGNAL_Result_TimerNotValid;
 80019d2:	2302      	movs	r3, #2
 80019d4:	e0cf      	b.n	8001b76 <TM_DAC_SIGNAL_SetCustomSignal+0x23e>
	}
	
	/* Get timer data */
	TM_TIMER_PROPERTIES_GetTimerProperties(DAC_TIM[DACx], &Timer_Data);
 80019d6:	7bfb      	ldrb	r3, [r7, #15]
 80019d8:	4a6a      	ldr	r2, [pc, #424]	; (8001b84 <TM_DAC_SIGNAL_SetCustomSignal+0x24c>)
 80019da:	f852 3023 	ldr.w	r3, [r2, r3, lsl #2]
 80019de:	f107 0210 	add.w	r2, r7, #16
 80019e2:	4611      	mov	r1, r2
 80019e4:	4618      	mov	r0, r3
 80019e6:	f000 fc51 	bl	800228c <TM_TIMER_PROPERTIES_GetTimerProperties>
	
	/* Get period and prescaler values */
	TM_TIMER_PROPERTIES_GenerateDataForWorkingFrequency(&Timer_Data, frequency);
 80019ea:	f107 0310 	add.w	r3, r7, #16
 80019ee:	ed97 0b00 	vldr	d0, [r7]
 80019f2:	4618      	mov	r0, r3
 80019f4:	f000 fcca 	bl	800238c <TM_TIMER_PROPERTIES_GenerateDataForWorkingFrequency>
	
	/* Check valid frequency */
	if (Timer_Data.Frequency == 0) {
 80019f8:	6a7b      	ldr	r3, [r7, #36]	; 0x24
 80019fa:	2b00      	cmp	r3, #0
 80019fc:	d101      	bne.n	8001a02 <TM_DAC_SIGNAL_SetCustomSignal+0xca>
		return TM_DAC_SIGNAL_Result_Error;
 80019fe:	2301      	movs	r3, #1
 8001a00:	e0b9      	b.n	8001b76 <TM_DAC_SIGNAL_SetCustomSignal+0x23e>
	}
	
	/* Enable DAC clock */
	RCC->APB1ENR |= RCC_APB1ENR_DACEN;
 8001a02:	4a66      	ldr	r2, [pc, #408]	; (8001b9c <TM_DAC_SIGNAL_SetCustomSignal+0x264>)
 8001a04:	4b65      	ldr	r3, [pc, #404]	; (8001b9c <TM_DAC_SIGNAL_SetCustomSignal+0x264>)
 8001a06:	6c1b      	ldr	r3, [r3, #64]	; 0x40
 8001a08:	f043 5300 	orr.w	r3, r3, #536870912	; 0x20000000
 8001a0c:	6413      	str	r3, [r2, #64]	; 0x40
	/* Enable DMA1 clock */
	RCC->AHB1ENR |= RCC_AHB1ENR_DMA1EN;
 8001a0e:	4a63      	ldr	r2, [pc, #396]	; (8001b9c <TM_DAC_SIGNAL_SetCustomSignal+0x264>)
 8001a10:	4b62      	ldr	r3, [pc, #392]	; (8001b9c <TM_DAC_SIGNAL_SetCustomSignal+0x264>)
 8001a12:	6b1b      	ldr	r3, [r3, #48]	; 0x30
 8001a14:	f443 1300 	orr.w	r3, r3, #2097152	; 0x200000
 8001a18:	6313      	str	r3, [r2, #48]	; 0x30
	
	/* Initialize DAC */
	DAC_InitStruct.DAC_WaveGeneration = DAC_WaveGeneration_None;
 8001a1a:	2300      	movs	r3, #0
 8001a1c:	677b      	str	r3, [r7, #116]	; 0x74
	DAC_InitStruct.DAC_OutputBuffer = DAC_OutputBuffer_Enable;
 8001a1e:	2300      	movs	r3, #0
 8001a20:	67fb      	str	r3, [r7, #124]	; 0x7c
	
	/* Disable DMA */
	if (DACx == TM_DAC1) {
 8001a22:	7bfb      	ldrb	r3, [r7, #15]
 8001a24:	2b00      	cmp	r3, #0
 8001a26:	d106      	bne.n	8001a36 <TM_DAC_SIGNAL_SetCustomSignal+0xfe>
		/* Init DAC channel 1 */
		DAC_Init(DAC_Channel_1, &DAC_InitStruct);
 8001a28:	f107 0370 	add.w	r3, r7, #112	; 0x70
 8001a2c:	4619      	mov	r1, r3
 8001a2e:	2000      	movs	r0, #0
 8001a30:	f7ff fa80 	bl	8000f34 <DAC_Init>
 8001a34:	e008      	b.n	8001a48 <TM_DAC_SIGNAL_SetCustomSignal+0x110>
	} else if (DACx == TM_DAC2) {
 8001a36:	7bfb      	ldrb	r3, [r7, #15]
 8001a38:	2b01      	cmp	r3, #1
 8001a3a:	d105      	bne.n	8001a48 <TM_DAC_SIGNAL_SetCustomSignal+0x110>
		/* Init DAC channel 2 */
		DAC_Init(DAC_Channel_2, &DAC_InitStruct);
 8001a3c:	f107 0370 	add.w	r3, r7, #112	; 0x70
 8001a40:	4619      	mov	r1, r3
 8001a42:	2010      	movs	r0, #16
 8001a44:	f7ff fa76 	bl	8000f34 <DAC_Init>
	}
	
	/* Enable timer clock */
	TM_TIMER_PROPERTIES_EnableClock(DAC_TIM[DACx]);
 8001a48:	7bfb      	ldrb	r3, [r7, #15]
 8001a4a:	4a4e      	ldr	r2, [pc, #312]	; (8001b84 <TM_DAC_SIGNAL_SetCustomSignal+0x24c>)
 8001a4c:	f852 3023 	ldr.w	r3, [r2, r3, lsl #2]
 8001a50:	4618      	mov	r0, r3
 8001a52:	f000 fd27 	bl	80024a4 <TM_TIMER_PROPERTIES_EnableClock>
	
	/* Time base configuration */
	TIM_TimeBaseStructInit(&TIM_TimeBaseStruct); 
 8001a56:	f107 0364 	add.w	r3, r7, #100	; 0x64
 8001a5a:	4618      	mov	r0, r3
 8001a5c:	f7ff feb0 	bl	80017c0 <TIM_TimeBaseStructInit>
	TIM_TimeBaseStruct.TIM_Period = Timer_Data.Period - 1;          
 8001a60:	69fb      	ldr	r3, [r7, #28]
 8001a62:	3b01      	subs	r3, #1
 8001a64:	66bb      	str	r3, [r7, #104]	; 0x68
	TIM_TimeBaseStruct.TIM_Prescaler = Timer_Data.Prescaler - 1;       
 8001a66:	6a3b      	ldr	r3, [r7, #32]
 8001a68:	b29b      	uxth	r3, r3
 8001a6a:	3b01      	subs	r3, #1
 8001a6c:	b29b      	uxth	r3, r3
 8001a6e:	f8a7 3064 	strh.w	r3, [r7, #100]	; 0x64
	TIM_TimeBaseStruct.TIM_ClockDivision = 0;    
 8001a72:	2300      	movs	r3, #0
 8001a74:	f8a7 306c 	strh.w	r3, [r7, #108]	; 0x6c
	TIM_TimeBaseStruct.TIM_CounterMode = TIM_CounterMode_Up;
 8001a78:	2300      	movs	r3, #0
 8001a7a:	f8a7 3066 	strh.w	r3, [r7, #102]	; 0x66
	
	/* Initialize timer */
	TIM_TimeBaseInit(DAC_TIM[DACx], &TIM_TimeBaseStruct);
 8001a7e:	7bfb      	ldrb	r3, [r7, #15]
 8001a80:	4a40      	ldr	r2, [pc, #256]	; (8001b84 <TM_DAC_SIGNAL_SetCustomSignal+0x24c>)
 8001a82:	f852 3023 	ldr.w	r3, [r2, r3, lsl #2]
 8001a86:	f107 0264 	add.w	r2, r7, #100	; 0x64
 8001a8a:	4611      	mov	r1, r2
 8001a8c:	4618      	mov	r0, r3
 8001a8e:	f7ff fe2b 	bl	80016e8 <TIM_TimeBaseInit>

	/* Enable TIM selection */
	TIM_SelectOutputTrigger(DAC_TIM[DACx], TIM_TRGOSource_Update);
 8001a92:	7bfb      	ldrb	r3, [r7, #15]
 8001a94:	4a3b      	ldr	r2, [pc, #236]	; (8001b84 <TM_DAC_SIGNAL_SetCustomSignal+0x24c>)
 8001a96:	f852 3023 	ldr.w	r3, [r2, r3, lsl #2]
 8001a9a:	2120      	movs	r1, #32
 8001a9c:	4618      	mov	r0, r3
 8001a9e:	f7ff fea9 	bl	80017f4 <TIM_SelectOutputTrigger>
	
	/* Set DMA options */
	DMA_InitStruct.DMA_Memory0BaseAddr = (uint32_t)Signal_Data;
 8001aa2:	68bb      	ldr	r3, [r7, #8]
 8001aa4:	633b      	str	r3, [r7, #48]	; 0x30
	DMA_InitStruct.DMA_DIR = DMA_DIR_MemoryToPeripheral;
 8001aa6:	2340      	movs	r3, #64	; 0x40
 8001aa8:	637b      	str	r3, [r7, #52]	; 0x34
	DMA_InitStruct.DMA_BufferSize = Signal_Length;
 8001aaa:	89bb      	ldrh	r3, [r7, #12]
 8001aac:	63bb      	str	r3, [r7, #56]	; 0x38
	DMA_InitStruct.DMA_PeripheralInc = DMA_PeripheralInc_Disable;
 8001aae:	2300      	movs	r3, #0
 8001ab0:	63fb      	str	r3, [r7, #60]	; 0x3c
	DMA_InitStruct.DMA_MemoryInc = DMA_MemoryInc_Enable;
 8001ab2:	f44f 6380 	mov.w	r3, #1024	; 0x400
 8001ab6:	643b      	str	r3, [r7, #64]	; 0x40
	DMA_InitStruct.DMA_PeripheralDataSize = DMA_PeripheralDataSize_HalfWord;
 8001ab8:	f44f 6300 	mov.w	r3, #2048	; 0x800
 8001abc:	647b      	str	r3, [r7, #68]	; 0x44
	DMA_InitStruct.DMA_MemoryDataSize = DMA_MemoryDataSize_HalfWord;
 8001abe:	f44f 5300 	mov.w	r3, #8192	; 0x2000
 8001ac2:	64bb      	str	r3, [r7, #72]	; 0x48
	DMA_InitStruct.DMA_Mode = DMA_Mode_Circular;
 8001ac4:	f44f 7380 	mov.w	r3, #256	; 0x100
 8001ac8:	64fb      	str	r3, [r7, #76]	; 0x4c
	DMA_InitStruct.DMA_Priority = DMA_Priority_High;
 8001aca:	f44f 3300 	mov.w	r3, #131072	; 0x20000
 8001ace:	653b      	str	r3, [r7, #80]	; 0x50
	DMA_InitStruct.DMA_FIFOMode = DMA_FIFOMode_Disable;         
 8001ad0:	2300      	movs	r3, #0
 8001ad2:	657b      	str	r3, [r7, #84]	; 0x54
	DMA_InitStruct.DMA_FIFOThreshold = DMA_FIFOThreshold_HalfFull;
 8001ad4:	2301      	movs	r3, #1
 8001ad6:	65bb      	str	r3, [r7, #88]	; 0x58
	DMA_InitStruct.DMA_MemoryBurst = DMA_MemoryBurst_Single;
 8001ad8:	2300      	movs	r3, #0
 8001ada:	65fb      	str	r3, [r7, #92]	; 0x5c
	DMA_InitStruct.DMA_PeripheralBurst = DMA_PeripheralBurst_Single;
 8001adc:	2300      	movs	r3, #0
 8001ade:	663b      	str	r3, [r7, #96]	; 0x60
	
	switch (DACx) {
 8001ae0:	7bfb      	ldrb	r3, [r7, #15]
 8001ae2:	2b00      	cmp	r3, #0
 8001ae4:	d002      	beq.n	8001aec <TM_DAC_SIGNAL_SetCustomSignal+0x1b4>
 8001ae6:	2b01      	cmp	r3, #1
 8001ae8:	d01b      	beq.n	8001b22 <TM_DAC_SIGNAL_SetCustomSignal+0x1ea>

			/* Enable DMA for DAC Channel 2 */
			DAC_DMACmd(DAC_Channel_2, ENABLE);
			break;
		default:
			break;
 8001aea:	e035      	b.n	8001b58 <TM_DAC_SIGNAL_SetCustomSignal+0x220>
			DMA_InitStruct.DMA_PeripheralBaseAddr = (uint32_t)&DAC->DHR12R1;
 8001aec:	4b2c      	ldr	r3, [pc, #176]	; (8001ba0 <TM_DAC_SIGNAL_SetCustomSignal+0x268>)
 8001aee:	62fb      	str	r3, [r7, #44]	; 0x2c
			DMA_DeInit(DAC_SIGNAL_DMA_DAC1_STREAM);
 8001af0:	482c      	ldr	r0, [pc, #176]	; (8001ba4 <TM_DAC_SIGNAL_SetCustomSignal+0x26c>)
 8001af2:	f7ff faa1 	bl	8001038 <DMA_DeInit>
			DMA_InitStruct.DMA_Channel = DAC_SIGNAL_DMA_DAC1_CHANNEL;
 8001af6:	f04f 6360 	mov.w	r3, #234881024	; 0xe000000
 8001afa:	62bb      	str	r3, [r7, #40]	; 0x28
			DMA_Init(DAC_SIGNAL_DMA_DAC1_STREAM, &DMA_InitStruct);
 8001afc:	f107 0328 	add.w	r3, r7, #40	; 0x28
 8001b00:	4619      	mov	r1, r3
 8001b02:	4828      	ldr	r0, [pc, #160]	; (8001ba4 <TM_DAC_SIGNAL_SetCustomSignal+0x26c>)
 8001b04:	f7ff fb6c 	bl	80011e0 <DMA_Init>
			DMA_Cmd(DAC_SIGNAL_DMA_DAC1_STREAM, ENABLE);
 8001b08:	2101      	movs	r1, #1
 8001b0a:	4826      	ldr	r0, [pc, #152]	; (8001ba4 <TM_DAC_SIGNAL_SetCustomSignal+0x26c>)
 8001b0c:	f7ff fbc0 	bl	8001290 <DMA_Cmd>
			DAC_Cmd(DAC_Channel_1, ENABLE);
 8001b10:	2101      	movs	r1, #1
 8001b12:	2000      	movs	r0, #0
 8001b14:	f7ff fa42 	bl	8000f9c <DAC_Cmd>
			DAC_DMACmd(DAC_Channel_1, ENABLE);
 8001b18:	2101      	movs	r1, #1
 8001b1a:	2000      	movs	r0, #0
 8001b1c:	f7ff fa64 	bl	8000fe8 <DAC_DMACmd>
			break;
 8001b20:	e01a      	b.n	8001b58 <TM_DAC_SIGNAL_SetCustomSignal+0x220>
			DMA_DeInit(DAC_SIGNAL_DMA_DAC2_STREAM);
 8001b22:	4821      	ldr	r0, [pc, #132]	; (8001ba8 <TM_DAC_SIGNAL_SetCustomSignal+0x270>)
 8001b24:	f7ff fa88 	bl	8001038 <DMA_DeInit>
			DMA_InitStruct.DMA_Channel = DAC_SIGNAL_DMA_DAC2_CHANNEL;
 8001b28:	f04f 6360 	mov.w	r3, #234881024	; 0xe000000
 8001b2c:	62bb      	str	r3, [r7, #40]	; 0x28
			DMA_InitStruct.DMA_PeripheralBaseAddr = (uint32_t)&DAC->DHR12R2;
 8001b2e:	4b1f      	ldr	r3, [pc, #124]	; (8001bac <TM_DAC_SIGNAL_SetCustomSignal+0x274>)
 8001b30:	62fb      	str	r3, [r7, #44]	; 0x2c
			DMA_Init(DAC_SIGNAL_DMA_DAC2_STREAM, &DMA_InitStruct);
 8001b32:	f107 0328 	add.w	r3, r7, #40	; 0x28
 8001b36:	4619      	mov	r1, r3
 8001b38:	481b      	ldr	r0, [pc, #108]	; (8001ba8 <TM_DAC_SIGNAL_SetCustomSignal+0x270>)
 8001b3a:	f7ff fb51 	bl	80011e0 <DMA_Init>
			DMA_Cmd(DAC_SIGNAL_DMA_DAC2_STREAM, ENABLE);
 8001b3e:	2101      	movs	r1, #1
 8001b40:	4819      	ldr	r0, [pc, #100]	; (8001ba8 <TM_DAC_SIGNAL_SetCustomSignal+0x270>)
 8001b42:	f7ff fba5 	bl	8001290 <DMA_Cmd>
			DAC_Cmd(DAC_Channel_2, ENABLE);
 8001b46:	2101      	movs	r1, #1
 8001b48:	2010      	movs	r0, #16
 8001b4a:	f7ff fa27 	bl	8000f9c <DAC_Cmd>
			DAC_DMACmd(DAC_Channel_2, ENABLE);
 8001b4e:	2101      	movs	r1, #1
 8001b50:	2010      	movs	r0, #16
 8001b52:	f7ff fa49 	bl	8000fe8 <DAC_DMACmd>
			break;
 8001b56:	bf00      	nop
	}
	
	/* Enable timer */
	DAC_TIM[DACx]->CR1 |= TIM_CR1_CEN;
 8001b58:	7bfb      	ldrb	r3, [r7, #15]
 8001b5a:	4a0a      	ldr	r2, [pc, #40]	; (8001b84 <TM_DAC_SIGNAL_SetCustomSignal+0x24c>)
 8001b5c:	f852 3023 	ldr.w	r3, [r2, r3, lsl #2]
 8001b60:	7bfa      	ldrb	r2, [r7, #15]
 8001b62:	4908      	ldr	r1, [pc, #32]	; (8001b84 <TM_DAC_SIGNAL_SetCustomSignal+0x24c>)
 8001b64:	f851 2022 	ldr.w	r2, [r1, r2, lsl #2]
 8001b68:	8812      	ldrh	r2, [r2, #0]
 8001b6a:	b292      	uxth	r2, r2
 8001b6c:	f042 0201 	orr.w	r2, r2, #1
 8001b70:	b292      	uxth	r2, r2
 8001b72:	801a      	strh	r2, [r3, #0]
	
	/* Return OK */
	return TM_DAC_SIGNAL_Result_Ok;
 8001b74:	2300      	movs	r3, #0
}
 8001b76:	4618      	mov	r0, r3
 8001b78:	3780      	adds	r7, #128	; 0x80
 8001b7a:	46bd      	mov	sp, r7
 8001b7c:	bd80      	pop	{r7, pc}
 8001b7e:	bf00      	nop
 8001b80:	20007e4c 	.word	0x20007e4c
 8001b84:	20007eb4 	.word	0x20007eb4
 8001b88:	40000800 	.word	0x40000800
 8001b8c:	40000c00 	.word	0x40000c00
 8001b90:	40001000 	.word	0x40001000
 8001b94:	40001400 	.word	0x40001400
 8001b98:	40010400 	.word	0x40010400
 8001b9c:	40023800 	.word	0x40023800
 8001ba0:	40007408 	.word	0x40007408
 8001ba4:	40026088 	.word	0x40026088
 8001ba8:	400260a0 	.word	0x400260a0
 8001bac:	40007414 	.word	0x40007414

08001bb0 <SysTick_Handler>:
void TM_DELAY_TIM_IRQ_HANDLER(void) {
	TM_DELAY_TIM->SR = ~TIM_IT_Update;
#elif defined(KEIL_IDE)
void TimingDelay_Decrement(void) {
#else
void SysTick_Handler(void) {
 8001bb0:	b580      	push	{r7, lr}
 8001bb2:	b082      	sub	sp, #8
 8001bb4:	af00      	add	r7, sp, #0
#endif
	uint8_t i;
	
	TM_Time++;
 8001bb6:	4b37      	ldr	r3, [pc, #220]	; (8001c94 <SysTick_Handler+0xe4>)
 8001bb8:	681b      	ldr	r3, [r3, #0]
 8001bba:	3301      	adds	r3, #1
 8001bbc:	4a35      	ldr	r2, [pc, #212]	; (8001c94 <SysTick_Handler+0xe4>)
 8001bbe:	6013      	str	r3, [r2, #0]
	if (TM_Time2 != 0x00) {
 8001bc0:	4b35      	ldr	r3, [pc, #212]	; (8001c98 <SysTick_Handler+0xe8>)
 8001bc2:	681b      	ldr	r3, [r3, #0]
 8001bc4:	2b00      	cmp	r3, #0
 8001bc6:	d004      	beq.n	8001bd2 <SysTick_Handler+0x22>
		TM_Time2--;
 8001bc8:	4b33      	ldr	r3, [pc, #204]	; (8001c98 <SysTick_Handler+0xe8>)
 8001bca:	681b      	ldr	r3, [r3, #0]
 8001bcc:	3b01      	subs	r3, #1
 8001bce:	4a32      	ldr	r2, [pc, #200]	; (8001c98 <SysTick_Handler+0xe8>)
 8001bd0:	6013      	str	r3, [r2, #0]
	}
	
	/* Call user function */
	TM_DELAY_1msHandler();
 8001bd2:	f3af 8000 	nop.w
	
	/* Check custom timers */
	for (i = 0; i < CustomTimers.Count; i++) {
 8001bd6:	2300      	movs	r3, #0
 8001bd8:	71fb      	strb	r3, [r7, #7]
 8001bda:	e052      	b.n	8001c82 <SysTick_Handler+0xd2>
		/* Check if timer is enabled */
		if (
			CustomTimers.Timers[i] &&          /*!< Pointer exists */
 8001bdc:	79fb      	ldrb	r3, [r7, #7]
 8001bde:	4a2f      	ldr	r2, [pc, #188]	; (8001c9c <SysTick_Handler+0xec>)
 8001be0:	009b      	lsls	r3, r3, #2
 8001be2:	4413      	add	r3, r2
 8001be4:	685b      	ldr	r3, [r3, #4]
		if (
 8001be6:	2b00      	cmp	r3, #0
 8001be8:	d048      	beq.n	8001c7c <SysTick_Handler+0xcc>
			CustomTimers.Timers[i]->Enabled && /*!< Timer is enabled */
 8001bea:	79fb      	ldrb	r3, [r7, #7]
 8001bec:	4a2b      	ldr	r2, [pc, #172]	; (8001c9c <SysTick_Handler+0xec>)
 8001bee:	009b      	lsls	r3, r3, #2
 8001bf0:	4413      	add	r3, r2
 8001bf2:	685b      	ldr	r3, [r3, #4]
 8001bf4:	7b1b      	ldrb	r3, [r3, #12]
			CustomTimers.Timers[i] &&          /*!< Pointer exists */
 8001bf6:	2b00      	cmp	r3, #0
 8001bf8:	d040      	beq.n	8001c7c <SysTick_Handler+0xcc>
			CustomTimers.Timers[i]->CNT > 0    /*!< Counter is not NULL */
 8001bfa:	79fb      	ldrb	r3, [r7, #7]
 8001bfc:	4a27      	ldr	r2, [pc, #156]	; (8001c9c <SysTick_Handler+0xec>)
 8001bfe:	009b      	lsls	r3, r3, #2
 8001c00:	4413      	add	r3, r2
 8001c02:	685b      	ldr	r3, [r3, #4]
 8001c04:	689b      	ldr	r3, [r3, #8]
			CustomTimers.Timers[i]->Enabled && /*!< Timer is enabled */
 8001c06:	2b00      	cmp	r3, #0
 8001c08:	d038      	beq.n	8001c7c <SysTick_Handler+0xcc>
		) {
			/* Decrease counter */
			CustomTimers.Timers[i]->CNT--;
 8001c0a:	79fb      	ldrb	r3, [r7, #7]
 8001c0c:	4a23      	ldr	r2, [pc, #140]	; (8001c9c <SysTick_Handler+0xec>)
 8001c0e:	009b      	lsls	r3, r3, #2
 8001c10:	4413      	add	r3, r2
 8001c12:	685b      	ldr	r3, [r3, #4]
 8001c14:	689a      	ldr	r2, [r3, #8]
 8001c16:	3a01      	subs	r2, #1
 8001c18:	609a      	str	r2, [r3, #8]
			
			/* Check if count is zero */
			if (CustomTimers.Timers[i]->CNT == 0) {
 8001c1a:	79fb      	ldrb	r3, [r7, #7]
 8001c1c:	4a1f      	ldr	r2, [pc, #124]	; (8001c9c <SysTick_Handler+0xec>)
 8001c1e:	009b      	lsls	r3, r3, #2
 8001c20:	4413      	add	r3, r2
 8001c22:	685b      	ldr	r3, [r3, #4]
 8001c24:	689b      	ldr	r3, [r3, #8]
 8001c26:	2b00      	cmp	r3, #0
 8001c28:	d128      	bne.n	8001c7c <SysTick_Handler+0xcc>
				/* Call user callback function */
				CustomTimers.Timers[i]->Callback(CustomTimers.Timers[i]->UserParameters);
 8001c2a:	79fb      	ldrb	r3, [r7, #7]
 8001c2c:	4a1b      	ldr	r2, [pc, #108]	; (8001c9c <SysTick_Handler+0xec>)
 8001c2e:	009b      	lsls	r3, r3, #2
 8001c30:	4413      	add	r3, r2
 8001c32:	685b      	ldr	r3, [r3, #4]
 8001c34:	691a      	ldr	r2, [r3, #16]
 8001c36:	79fb      	ldrb	r3, [r7, #7]
 8001c38:	4918      	ldr	r1, [pc, #96]	; (8001c9c <SysTick_Handler+0xec>)
 8001c3a:	009b      	lsls	r3, r3, #2
 8001c3c:	440b      	add	r3, r1
 8001c3e:	685b      	ldr	r3, [r3, #4]
 8001c40:	695b      	ldr	r3, [r3, #20]
 8001c42:	4618      	mov	r0, r3
 8001c44:	4790      	blx	r2
				
				/* Set new counter value */
				CustomTimers.Timers[i]->CNT = CustomTimers.Timers[i]->ARR;
 8001c46:	79fb      	ldrb	r3, [r7, #7]
 8001c48:	4a14      	ldr	r2, [pc, #80]	; (8001c9c <SysTick_Handler+0xec>)
 8001c4a:	009b      	lsls	r3, r3, #2
 8001c4c:	4413      	add	r3, r2
 8001c4e:	685a      	ldr	r2, [r3, #4]
 8001c50:	79fb      	ldrb	r3, [r7, #7]
 8001c52:	4912      	ldr	r1, [pc, #72]	; (8001c9c <SysTick_Handler+0xec>)
 8001c54:	009b      	lsls	r3, r3, #2
 8001c56:	440b      	add	r3, r1
 8001c58:	685b      	ldr	r3, [r3, #4]
 8001c5a:	681b      	ldr	r3, [r3, #0]
 8001c5c:	6093      	str	r3, [r2, #8]
				
				/* Disable timer if auto reload feature is not used */
				if (!CustomTimers.Timers[i]->AutoReload) {
 8001c5e:	79fb      	ldrb	r3, [r7, #7]
 8001c60:	4a0e      	ldr	r2, [pc, #56]	; (8001c9c <SysTick_Handler+0xec>)
 8001c62:	009b      	lsls	r3, r3, #2
 8001c64:	4413      	add	r3, r2
 8001c66:	685b      	ldr	r3, [r3, #4]
 8001c68:	685b      	ldr	r3, [r3, #4]
 8001c6a:	2b00      	cmp	r3, #0
 8001c6c:	d106      	bne.n	8001c7c <SysTick_Handler+0xcc>
					/* Disable counter */
					CustomTimers.Timers[i]->Enabled = 0;
 8001c6e:	79fb      	ldrb	r3, [r7, #7]
 8001c70:	4a0a      	ldr	r2, [pc, #40]	; (8001c9c <SysTick_Handler+0xec>)
 8001c72:	009b      	lsls	r3, r3, #2
 8001c74:	4413      	add	r3, r2
 8001c76:	685b      	ldr	r3, [r3, #4]
 8001c78:	2200      	movs	r2, #0
 8001c7a:	731a      	strb	r2, [r3, #12]
	for (i = 0; i < CustomTimers.Count; i++) {
 8001c7c:	79fb      	ldrb	r3, [r7, #7]
 8001c7e:	3301      	adds	r3, #1
 8001c80:	71fb      	strb	r3, [r7, #7]
 8001c82:	4b06      	ldr	r3, [pc, #24]	; (8001c9c <SysTick_Handler+0xec>)
 8001c84:	781b      	ldrb	r3, [r3, #0]
 8001c86:	79fa      	ldrb	r2, [r7, #7]
 8001c88:	429a      	cmp	r2, r3
 8001c8a:	d3a7      	bcc.n	8001bdc <SysTick_Handler+0x2c>
				}
			}
		}
	}
}
 8001c8c:	bf00      	nop
 8001c8e:	3708      	adds	r7, #8
 8001c90:	46bd      	mov	sp, r7
 8001c92:	bd80      	pop	{r7, pc}
 8001c94:	20007e50 	.word	0x20007e50
 8001c98:	20007e54 	.word	0x20007e54
 8001c9c:	20007e58 	.word	0x20007e58

08001ca0 <TM_DISCO_LedInit>:
#include "tm_stm32f4_disco.h"

/* Button pressed status for onpressed/onreleased events */
static volatile uint8_t TM_INT_DISCO_ButtonPressed = 0;

void TM_DISCO_LedInit(void) {
 8001ca0:	b580      	push	{r7, lr}
 8001ca2:	b082      	sub	sp, #8
 8001ca4:	af02      	add	r7, sp, #8
	/* Set pins as output */
	TM_GPIO_Init(TM_DISCO_LED_PORT, LED_ALL, TM_GPIO_Mode_OUT, TM_GPIO_OType_PP, TM_GPIO_PuPd_NOPULL, TM_GPIO_Speed_High);
 8001ca6:	2303      	movs	r3, #3
 8001ca8:	9301      	str	r3, [sp, #4]
 8001caa:	2300      	movs	r3, #0
 8001cac:	9300      	str	r3, [sp, #0]
 8001cae:	2300      	movs	r3, #0
 8001cb0:	2201      	movs	r2, #1
 8001cb2:	f44f 4170 	mov.w	r1, #61440	; 0xf000
 8001cb6:	4805      	ldr	r0, [pc, #20]	; (8001ccc <TM_DISCO_LedInit+0x2c>)
 8001cb8:	f000 fa16 	bl	80020e8 <TM_GPIO_Init>
	
	/* Turn leds off */
	TM_DISCO_LedOff(LED_ALL);
 8001cbc:	4b03      	ldr	r3, [pc, #12]	; (8001ccc <TM_DISCO_LedInit+0x2c>)
 8001cbe:	f44f 4270 	mov.w	r2, #61440	; 0xf000
 8001cc2:	835a      	strh	r2, [r3, #26]
}
 8001cc4:	bf00      	nop
 8001cc6:	46bd      	mov	sp, r7
 8001cc8:	bd80      	pop	{r7, pc}
 8001cca:	bf00      	nop
 8001ccc:	40020c00 	.word	0x40020c00

08001cd0 <TM_DMA_ClearFlag>:
void TM_DMA_ClearFlags(DMA_Stream_TypeDef* DMA_Stream) {
	/* Clear all flags */
	TM_DMA_ClearFlag(DMA_Stream, DMA_FLAG_ALL);
}

void TM_DMA_ClearFlag(DMA_Stream_TypeDef* DMA_Stream, uint32_t flag) {
 8001cd0:	b480      	push	{r7}
 8001cd2:	b085      	sub	sp, #20
 8001cd4:	af00      	add	r7, sp, #0
 8001cd6:	6078      	str	r0, [r7, #4]
 8001cd8:	6039      	str	r1, [r7, #0]
	uint32_t location;
	uint32_t stream_number;

	/* Check stream value */
	if (DMA_Stream < DMA2_Stream0) {
 8001cda:	687b      	ldr	r3, [r7, #4]
 8001cdc:	4a18      	ldr	r2, [pc, #96]	; (8001d40 <TM_DMA_ClearFlag+0x70>)
 8001cde:	4293      	cmp	r3, r2
 8001ce0:	d80a      	bhi.n	8001cf8 <TM_DMA_ClearFlag+0x28>
		location = (uint32_t)&DMA1->LIFCR;
 8001ce2:	4b18      	ldr	r3, [pc, #96]	; (8001d44 <TM_DMA_ClearFlag+0x74>)
 8001ce4:	60fb      	str	r3, [r7, #12]
		stream_number = GET_STREAM_NUMBER_DMA1(DMA_Stream);
 8001ce6:	687a      	ldr	r2, [r7, #4]
 8001ce8:	4b17      	ldr	r3, [pc, #92]	; (8001d48 <TM_DMA_ClearFlag+0x78>)
 8001cea:	4413      	add	r3, r2
 8001cec:	4a17      	ldr	r2, [pc, #92]	; (8001d4c <TM_DMA_ClearFlag+0x7c>)
 8001cee:	fba2 2303 	umull	r2, r3, r2, r3
 8001cf2:	091b      	lsrs	r3, r3, #4
 8001cf4:	60bb      	str	r3, [r7, #8]
 8001cf6:	e009      	b.n	8001d0c <TM_DMA_ClearFlag+0x3c>
	} else {
		location = (uint32_t)&DMA2->LIFCR;
 8001cf8:	4b15      	ldr	r3, [pc, #84]	; (8001d50 <TM_DMA_ClearFlag+0x80>)
 8001cfa:	60fb      	str	r3, [r7, #12]
		stream_number = GET_STREAM_NUMBER_DMA2(DMA_Stream);
 8001cfc:	687a      	ldr	r2, [r7, #4]
 8001cfe:	4b15      	ldr	r3, [pc, #84]	; (8001d54 <TM_DMA_ClearFlag+0x84>)
 8001d00:	4413      	add	r3, r2
 8001d02:	4a12      	ldr	r2, [pc, #72]	; (8001d4c <TM_DMA_ClearFlag+0x7c>)
 8001d04:	fba2 2303 	umull	r2, r3, r2, r3
 8001d08:	091b      	lsrs	r3, r3, #4
 8001d0a:	60bb      	str	r3, [r7, #8]
	}
	
	/* Get register offset */
	if (stream_number >= 4) {
 8001d0c:	68bb      	ldr	r3, [r7, #8]
 8001d0e:	2b03      	cmp	r3, #3
 8001d10:	d905      	bls.n	8001d1e <TM_DMA_ClearFlag+0x4e>
		/* High registers for DMA clear */
		location += 4;
 8001d12:	68fb      	ldr	r3, [r7, #12]
 8001d14:	3304      	adds	r3, #4
 8001d16:	60fb      	str	r3, [r7, #12]
		
		/* Do offset for high DMA registers */
		stream_number -= 4;
 8001d18:	68bb      	ldr	r3, [r7, #8]
 8001d1a:	3b04      	subs	r3, #4
 8001d1c:	60bb      	str	r3, [r7, #8]
	}
	
	/* Clear flags */
	*(__IO uint32_t *)location = (flag & DMA_FLAG_ALL) << DMA_Flags_Bit_Pos[stream_number];
 8001d1e:	68fb      	ldr	r3, [r7, #12]
 8001d20:	683a      	ldr	r2, [r7, #0]
 8001d22:	f002 023d 	and.w	r2, r2, #61	; 0x3d
 8001d26:	480c      	ldr	r0, [pc, #48]	; (8001d58 <TM_DMA_ClearFlag+0x88>)
 8001d28:	68b9      	ldr	r1, [r7, #8]
 8001d2a:	4401      	add	r1, r0
 8001d2c:	7809      	ldrb	r1, [r1, #0]
 8001d2e:	408a      	lsls	r2, r1
 8001d30:	601a      	str	r2, [r3, #0]
}
 8001d32:	bf00      	nop
 8001d34:	3714      	adds	r7, #20
 8001d36:	46bd      	mov	sp, r7
 8001d38:	f85d 7b04 	ldr.w	r7, [sp], #4
 8001d3c:	4770      	bx	lr
 8001d3e:	bf00      	nop
 8001d40:	4002640f 	.word	0x4002640f
 8001d44:	40026008 	.word	0x40026008
 8001d48:	bffd9ff0 	.word	0xbffd9ff0
 8001d4c:	aaaaaaab 	.word	0xaaaaaaab
 8001d50:	40026408 	.word	0x40026408
 8001d54:	bffd9bf0 	.word	0xbffd9bf0
 8001d58:	08006558 	.word	0x08006558

08001d5c <TM_DMA_GetFlags>:

uint32_t TM_DMA_GetFlags(DMA_Stream_TypeDef* DMA_Stream, uint32_t flag) {
 8001d5c:	b480      	push	{r7}
 8001d5e:	b087      	sub	sp, #28
 8001d60:	af00      	add	r7, sp, #0
 8001d62:	6078      	str	r0, [r7, #4]
 8001d64:	6039      	str	r1, [r7, #0]
	uint32_t stream_number = 0;
 8001d66:	2300      	movs	r3, #0
 8001d68:	617b      	str	r3, [r7, #20]
	uint32_t location = 0;
 8001d6a:	2300      	movs	r3, #0
 8001d6c:	613b      	str	r3, [r7, #16]
	uint32_t flags = 0;
 8001d6e:	2300      	movs	r3, #0
 8001d70:	60fb      	str	r3, [r7, #12]
	
	/* Check stream value */
	if (DMA_Stream < DMA2_Stream0) {
 8001d72:	687b      	ldr	r3, [r7, #4]
 8001d74:	4a1b      	ldr	r2, [pc, #108]	; (8001de4 <TM_DMA_GetFlags+0x88>)
 8001d76:	4293      	cmp	r3, r2
 8001d78:	d80a      	bhi.n	8001d90 <TM_DMA_GetFlags+0x34>
		location = (uint32_t)&DMA1->LISR;
 8001d7a:	4b1b      	ldr	r3, [pc, #108]	; (8001de8 <TM_DMA_GetFlags+0x8c>)
 8001d7c:	613b      	str	r3, [r7, #16]
		stream_number = GET_STREAM_NUMBER_DMA1(DMA_Stream);
 8001d7e:	687a      	ldr	r2, [r7, #4]
 8001d80:	4b1a      	ldr	r3, [pc, #104]	; (8001dec <TM_DMA_GetFlags+0x90>)
 8001d82:	4413      	add	r3, r2
 8001d84:	4a1a      	ldr	r2, [pc, #104]	; (8001df0 <TM_DMA_GetFlags+0x94>)
 8001d86:	fba2 2303 	umull	r2, r3, r2, r3
 8001d8a:	091b      	lsrs	r3, r3, #4
 8001d8c:	617b      	str	r3, [r7, #20]
 8001d8e:	e009      	b.n	8001da4 <TM_DMA_GetFlags+0x48>
	} else {
		location = (uint32_t)&DMA2->LISR;
 8001d90:	4b18      	ldr	r3, [pc, #96]	; (8001df4 <TM_DMA_GetFlags+0x98>)
 8001d92:	613b      	str	r3, [r7, #16]
		stream_number = GET_STREAM_NUMBER_DMA2(DMA_Stream);
 8001d94:	687a      	ldr	r2, [r7, #4]
 8001d96:	4b18      	ldr	r3, [pc, #96]	; (8001df8 <TM_DMA_GetFlags+0x9c>)
 8001d98:	4413      	add	r3, r2
 8001d9a:	4a15      	ldr	r2, [pc, #84]	; (8001df0 <TM_DMA_GetFlags+0x94>)
 8001d9c:	fba2 2303 	umull	r2, r3, r2, r3
 8001da0:	091b      	lsrs	r3, r3, #4
 8001da2:	617b      	str	r3, [r7, #20]
	}
	
	/* Get register offset */
	if (stream_number >= 4) {
 8001da4:	697b      	ldr	r3, [r7, #20]
 8001da6:	2b03      	cmp	r3, #3
 8001da8:	d905      	bls.n	8001db6 <TM_DMA_GetFlags+0x5a>
		/* High registers for DMA clear */
		location += 4;
 8001daa:	693b      	ldr	r3, [r7, #16]
 8001dac:	3304      	adds	r3, #4
 8001dae:	613b      	str	r3, [r7, #16]
		
		/* Do offset for high DMA registers */
		stream_number -= 4;
 8001db0:	697b      	ldr	r3, [r7, #20]
 8001db2:	3b04      	subs	r3, #4
 8001db4:	617b      	str	r3, [r7, #20]
	}
	
	/* Get register value */
	flags =   *(__IO uint32_t *)location;
 8001db6:	693b      	ldr	r3, [r7, #16]
 8001db8:	681b      	ldr	r3, [r3, #0]
 8001dba:	60fb      	str	r3, [r7, #12]
	flags >>= DMA_Flags_Bit_Pos[stream_number];
 8001dbc:	4a0f      	ldr	r2, [pc, #60]	; (8001dfc <TM_DMA_GetFlags+0xa0>)
 8001dbe:	697b      	ldr	r3, [r7, #20]
 8001dc0:	4413      	add	r3, r2
 8001dc2:	781b      	ldrb	r3, [r3, #0]
 8001dc4:	461a      	mov	r2, r3
 8001dc6:	68fb      	ldr	r3, [r7, #12]
 8001dc8:	40d3      	lsrs	r3, r2
 8001dca:	60fb      	str	r3, [r7, #12]
	flags &=  DMA_FLAG_ALL;
 8001dcc:	68fb      	ldr	r3, [r7, #12]
 8001dce:	f003 033d 	and.w	r3, r3, #61	; 0x3d
 8001dd2:	60fb      	str	r3, [r7, #12]
	
	/* Return value */
	return flags;
 8001dd4:	68fb      	ldr	r3, [r7, #12]
}
 8001dd6:	4618      	mov	r0, r3
 8001dd8:	371c      	adds	r7, #28
 8001dda:	46bd      	mov	sp, r7
 8001ddc:	f85d 7b04 	ldr.w	r7, [sp], #4
 8001de0:	4770      	bx	lr
 8001de2:	bf00      	nop
 8001de4:	4002640f 	.word	0x4002640f
 8001de8:	40026000 	.word	0x40026000
 8001dec:	bffd9ff0 	.word	0xbffd9ff0
 8001df0:	aaaaaaab 	.word	0xaaaaaaab
 8001df4:	40026400 	.word	0x40026400
 8001df8:	bffd9bf0 	.word	0xbffd9bf0
 8001dfc:	08006558 	.word	0x08006558

08001e00 <TM_DMA_EnableInterrupts>:

void TM_DMA_EnableInterrupts(DMA_Stream_TypeDef* DMA_Stream) {
 8001e00:	b580      	push	{r7, lr}
 8001e02:	b084      	sub	sp, #16
 8001e04:	af00      	add	r7, sp, #0
 8001e06:	6078      	str	r0, [r7, #4]
	NVIC_InitTypeDef NVIC_InitStruct;
	uint32_t stream_number;
	
	/* Clear flags first */
	TM_DMA_ClearFlag(DMA_Stream, DMA_FLAG_ALL);
 8001e08:	213d      	movs	r1, #61	; 0x3d
 8001e0a:	6878      	ldr	r0, [r7, #4]
 8001e0c:	f7ff ff60 	bl	8001cd0 <TM_DMA_ClearFlag>

	/* Check stream value */
	if (DMA_Stream < DMA2_Stream0) {
 8001e10:	687b      	ldr	r3, [r7, #4]
 8001e12:	4a20      	ldr	r2, [pc, #128]	; (8001e94 <TM_DMA_EnableInterrupts+0x94>)
 8001e14:	4293      	cmp	r3, r2
 8001e16:	d811      	bhi.n	8001e3c <TM_DMA_EnableInterrupts+0x3c>
		stream_number = GET_STREAM_NUMBER_DMA1(DMA_Stream);
 8001e18:	687a      	ldr	r2, [r7, #4]
 8001e1a:	4b1f      	ldr	r3, [pc, #124]	; (8001e98 <TM_DMA_EnableInterrupts+0x98>)
 8001e1c:	4413      	add	r3, r2
 8001e1e:	4a1f      	ldr	r2, [pc, #124]	; (8001e9c <TM_DMA_EnableInterrupts+0x9c>)
 8001e20:	fba2 2303 	umull	r2, r3, r2, r3
 8001e24:	091b      	lsrs	r3, r3, #4
 8001e26:	60fb      	str	r3, [r7, #12]
		NVIC_InitStruct.NVIC_IRQChannelPreemptionPriority = DMA1_NVIC_PREEMPTION_PRIORITY;
 8001e28:	2301      	movs	r3, #1
 8001e2a:	727b      	strb	r3, [r7, #9]
		NVIC_InitStruct.NVIC_IRQChannel = DMA_IRQs[0][stream_number];
 8001e2c:	4a1c      	ldr	r2, [pc, #112]	; (8001ea0 <TM_DMA_EnableInterrupts+0xa0>)
 8001e2e:	68fb      	ldr	r3, [r7, #12]
 8001e30:	4413      	add	r3, r2
 8001e32:	f993 3000 	ldrsb.w	r3, [r3]
 8001e36:	b2db      	uxtb	r3, r3
 8001e38:	723b      	strb	r3, [r7, #8]
 8001e3a:	e011      	b.n	8001e60 <TM_DMA_EnableInterrupts+0x60>
	} else {
		stream_number = GET_STREAM_NUMBER_DMA2(DMA_Stream);
 8001e3c:	687a      	ldr	r2, [r7, #4]
 8001e3e:	4b19      	ldr	r3, [pc, #100]	; (8001ea4 <TM_DMA_EnableInterrupts+0xa4>)
 8001e40:	4413      	add	r3, r2
 8001e42:	4a16      	ldr	r2, [pc, #88]	; (8001e9c <TM_DMA_EnableInterrupts+0x9c>)
 8001e44:	fba2 2303 	umull	r2, r3, r2, r3
 8001e48:	091b      	lsrs	r3, r3, #4
 8001e4a:	60fb      	str	r3, [r7, #12]
		NVIC_InitStruct.NVIC_IRQChannelPreemptionPriority = DMA2_NVIC_PREEMPTION_PRIORITY;
 8001e4c:	2301      	movs	r3, #1
 8001e4e:	727b      	strb	r3, [r7, #9]
		NVIC_InitStruct.NVIC_IRQChannel = DMA_IRQs[1][stream_number];
 8001e50:	4a13      	ldr	r2, [pc, #76]	; (8001ea0 <TM_DMA_EnableInterrupts+0xa0>)
 8001e52:	68fb      	ldr	r3, [r7, #12]
 8001e54:	4413      	add	r3, r2
 8001e56:	3308      	adds	r3, #8
 8001e58:	f993 3000 	ldrsb.w	r3, [r3]
 8001e5c:	b2db      	uxtb	r3, r3
 8001e5e:	723b      	strb	r3, [r7, #8]
	}
	
	/* Fill NVIC */
	NVIC_InitStruct.NVIC_IRQChannelCmd = ENABLE;
 8001e60:	2301      	movs	r3, #1
 8001e62:	72fb      	strb	r3, [r7, #11]
	NVIC_InitStruct.NVIC_IRQChannelSubPriority = stream_number;
 8001e64:	68fb      	ldr	r3, [r7, #12]
 8001e66:	b2db      	uxtb	r3, r3
 8001e68:	72bb      	strb	r3, [r7, #10]
	
	/* Init NVIC */
	NVIC_Init(&NVIC_InitStruct);
 8001e6a:	f107 0308 	add.w	r3, r7, #8
 8001e6e:	4618      	mov	r0, r3
 8001e70:	f7fe fe30 	bl	8000ad4 <NVIC_Init>
	
	/* Enable DMA stream interrupts */
	DMA_Stream->CR |= DMA_SxCR_TCIE | DMA_SxCR_HTIE | DMA_SxCR_TEIE | DMA_SxCR_DMEIE;
 8001e74:	687b      	ldr	r3, [r7, #4]
 8001e76:	681b      	ldr	r3, [r3, #0]
 8001e78:	f043 021e 	orr.w	r2, r3, #30
 8001e7c:	687b      	ldr	r3, [r7, #4]
 8001e7e:	601a      	str	r2, [r3, #0]
	DMA_Stream->FCR |= DMA_SxFCR_FEIE;
 8001e80:	687b      	ldr	r3, [r7, #4]
 8001e82:	695b      	ldr	r3, [r3, #20]
 8001e84:	f043 0280 	orr.w	r2, r3, #128	; 0x80
 8001e88:	687b      	ldr	r3, [r7, #4]
 8001e8a:	615a      	str	r2, [r3, #20]
}
 8001e8c:	bf00      	nop
 8001e8e:	3710      	adds	r7, #16
 8001e90:	46bd      	mov	sp, r7
 8001e92:	bd80      	pop	{r7, pc}
 8001e94:	4002640f 	.word	0x4002640f
 8001e98:	bffd9ff0 	.word	0xbffd9ff0
 8001e9c:	aaaaaaab 	.word	0xaaaaaaab
 8001ea0:	0800655c 	.word	0x0800655c
 8001ea4:	bffd9bf0 	.word	0xbffd9bf0

08001ea8 <TM_DMA_HalfTransferCompleteHandler>:
	/* NOTE: This function should not be modified, when the callback is needed,
            the TM_DMA_TransferCompleteHandler could be implemented in the user file
	*/
}

__weak void TM_DMA_HalfTransferCompleteHandler(DMA_Stream_TypeDef* DMA_Stream) {
 8001ea8:	b480      	push	{r7}
 8001eaa:	b083      	sub	sp, #12
 8001eac:	af00      	add	r7, sp, #0
 8001eae:	6078      	str	r0, [r7, #4]
	/* NOTE: This function should not be modified, when the callback is needed,
            the TM_DMA_HalfTransferCompleteHandler could be implemented in the user file
	*/
}
 8001eb0:	bf00      	nop
 8001eb2:	370c      	adds	r7, #12
 8001eb4:	46bd      	mov	sp, r7
 8001eb6:	f85d 7b04 	ldr.w	r7, [sp], #4
 8001eba:	4770      	bx	lr

08001ebc <TM_DMA_TransferErrorHandler>:

__weak void TM_DMA_TransferErrorHandler(DMA_Stream_TypeDef* DMA_Stream) {
 8001ebc:	b480      	push	{r7}
 8001ebe:	b083      	sub	sp, #12
 8001ec0:	af00      	add	r7, sp, #0
 8001ec2:	6078      	str	r0, [r7, #4]
	/* NOTE: This function should not be modified, when the callback is needed,
            the TM_DMA_TransferErrorHandler could be implemented in the user file
	*/
}
 8001ec4:	bf00      	nop
 8001ec6:	370c      	adds	r7, #12
 8001ec8:	46bd      	mov	sp, r7
 8001eca:	f85d 7b04 	ldr.w	r7, [sp], #4
 8001ece:	4770      	bx	lr

08001ed0 <TM_DMA_DirectModeErrorHandler>:

__weak void TM_DMA_DirectModeErrorHandler(DMA_Stream_TypeDef* DMA_Stream) {
 8001ed0:	b480      	push	{r7}
 8001ed2:	b083      	sub	sp, #12
 8001ed4:	af00      	add	r7, sp, #0
 8001ed6:	6078      	str	r0, [r7, #4]
	/* NOTE: This function should not be modified, when the callback is needed,
            the TM_DMA_DirectModeErrorHandler could be implemented in the user file
	*/
}
 8001ed8:	bf00      	nop
 8001eda:	370c      	adds	r7, #12
 8001edc:	46bd      	mov	sp, r7
 8001ede:	f85d 7b04 	ldr.w	r7, [sp], #4
 8001ee2:	4770      	bx	lr

08001ee4 <TM_DMA_FIFOErrorHandler>:

__weak void TM_DMA_FIFOErrorHandler(DMA_Stream_TypeDef* DMA_Stream) {
 8001ee4:	b480      	push	{r7}
 8001ee6:	b083      	sub	sp, #12
 8001ee8:	af00      	add	r7, sp, #0
 8001eea:	6078      	str	r0, [r7, #4]
	/* NOTE: This function should not be modified, when the callback is needed,
            the TM_DMA_FIFOErrorHandler could be implemented in the user file
	*/
}
 8001eec:	bf00      	nop
 8001eee:	370c      	adds	r7, #12
 8001ef0:	46bd      	mov	sp, r7
 8001ef2:	f85d 7b04 	ldr.w	r7, [sp], #4
 8001ef6:	4770      	bx	lr

08001ef8 <TM_DMA_INT_ProcessInterrupt>:

/*****************************************************************/
/*                    DMA INTERNAL FUNCTIONS                     */
/*****************************************************************/
static void TM_DMA_INT_ProcessInterrupt(DMA_Stream_TypeDef* DMA_Stream) {
 8001ef8:	b580      	push	{r7, lr}
 8001efa:	b084      	sub	sp, #16
 8001efc:	af00      	add	r7, sp, #0
 8001efe:	6078      	str	r0, [r7, #4]
	/* Get DMA interrupt status flags */
	uint16_t flags = TM_DMA_GetFlags(DMA_Stream, DMA_FLAG_ALL);
 8001f00:	213d      	movs	r1, #61	; 0x3d
 8001f02:	6878      	ldr	r0, [r7, #4]
 8001f04:	f7ff ff2a 	bl	8001d5c <TM_DMA_GetFlags>
 8001f08:	4603      	mov	r3, r0
 8001f0a:	81fb      	strh	r3, [r7, #14]
	
	/* Clear flags */
	TM_DMA_ClearFlag(DMA_Stream, DMA_FLAG_ALL);
 8001f0c:	213d      	movs	r1, #61	; 0x3d
 8001f0e:	6878      	ldr	r0, [r7, #4]
 8001f10:	f7ff fede 	bl	8001cd0 <TM_DMA_ClearFlag>
	
	/* Call user callback function */
	
	/* Check transfer complete flag */
	if ((flags & DMA_FLAG_TCIF) && (DMA_Stream->CR & DMA_SxCR_TCIE)) {
 8001f14:	89fb      	ldrh	r3, [r7, #14]
 8001f16:	f003 0320 	and.w	r3, r3, #32
 8001f1a:	2b00      	cmp	r3, #0
 8001f1c:	d008      	beq.n	8001f30 <TM_DMA_INT_ProcessInterrupt+0x38>
 8001f1e:	687b      	ldr	r3, [r7, #4]
 8001f20:	681b      	ldr	r3, [r3, #0]
 8001f22:	f003 0310 	and.w	r3, r3, #16
 8001f26:	2b00      	cmp	r3, #0
 8001f28:	d002      	beq.n	8001f30 <TM_DMA_INT_ProcessInterrupt+0x38>
		TM_DMA_TransferCompleteHandler(DMA_Stream);
 8001f2a:	6878      	ldr	r0, [r7, #4]
 8001f2c:	f004 f976 	bl	800621c <TM_DMA_TransferCompleteHandler>
	}
	/* Check half-transfer complete flag */
	if ((flags & DMA_FLAG_HTIF) && (DMA_Stream->CR & DMA_SxCR_HTIE)) {
 8001f30:	89fb      	ldrh	r3, [r7, #14]
 8001f32:	f003 0310 	and.w	r3, r3, #16
 8001f36:	2b00      	cmp	r3, #0
 8001f38:	d008      	beq.n	8001f4c <TM_DMA_INT_ProcessInterrupt+0x54>
 8001f3a:	687b      	ldr	r3, [r7, #4]
 8001f3c:	681b      	ldr	r3, [r3, #0]
 8001f3e:	f003 0308 	and.w	r3, r3, #8
 8001f42:	2b00      	cmp	r3, #0
 8001f44:	d002      	beq.n	8001f4c <TM_DMA_INT_ProcessInterrupt+0x54>
		TM_DMA_HalfTransferCompleteHandler(DMA_Stream);
 8001f46:	6878      	ldr	r0, [r7, #4]
 8001f48:	f7ff ffae 	bl	8001ea8 <TM_DMA_HalfTransferCompleteHandler>
	}
	/* Check transfer error flag */
	if ((flags & DMA_FLAG_TEIF) && (DMA_Stream->CR & DMA_SxCR_TEIE)) {
 8001f4c:	89fb      	ldrh	r3, [r7, #14]
 8001f4e:	f003 0308 	and.w	r3, r3, #8
 8001f52:	2b00      	cmp	r3, #0
 8001f54:	d008      	beq.n	8001f68 <TM_DMA_INT_ProcessInterrupt+0x70>
 8001f56:	687b      	ldr	r3, [r7, #4]
 8001f58:	681b      	ldr	r3, [r3, #0]
 8001f5a:	f003 0304 	and.w	r3, r3, #4
 8001f5e:	2b00      	cmp	r3, #0
 8001f60:	d002      	beq.n	8001f68 <TM_DMA_INT_ProcessInterrupt+0x70>
		TM_DMA_TransferErrorHandler(DMA_Stream);
 8001f62:	6878      	ldr	r0, [r7, #4]
 8001f64:	f7ff ffaa 	bl	8001ebc <TM_DMA_TransferErrorHandler>
	}
	/* Check direct error flag */
	if ((flags & DMA_FLAG_DMEIF) && (DMA_Stream->CR & DMA_SxCR_DMEIE)) {
 8001f68:	89fb      	ldrh	r3, [r7, #14]
 8001f6a:	f003 0304 	and.w	r3, r3, #4
 8001f6e:	2b00      	cmp	r3, #0
 8001f70:	d008      	beq.n	8001f84 <TM_DMA_INT_ProcessInterrupt+0x8c>
 8001f72:	687b      	ldr	r3, [r7, #4]
 8001f74:	681b      	ldr	r3, [r3, #0]
 8001f76:	f003 0302 	and.w	r3, r3, #2
 8001f7a:	2b00      	cmp	r3, #0
 8001f7c:	d002      	beq.n	8001f84 <TM_DMA_INT_ProcessInterrupt+0x8c>
		TM_DMA_DirectModeErrorHandler(DMA_Stream);
 8001f7e:	6878      	ldr	r0, [r7, #4]
 8001f80:	f7ff ffa6 	bl	8001ed0 <TM_DMA_DirectModeErrorHandler>
	}
	/* Check FIFO error flag */
	if ((flags & DMA_FLAG_FEIF) && (DMA_Stream->FCR & DMA_SxFCR_FEIE)) {
 8001f84:	89fb      	ldrh	r3, [r7, #14]
 8001f86:	f003 0301 	and.w	r3, r3, #1
 8001f8a:	2b00      	cmp	r3, #0
 8001f8c:	d008      	beq.n	8001fa0 <TM_DMA_INT_ProcessInterrupt+0xa8>
 8001f8e:	687b      	ldr	r3, [r7, #4]
 8001f90:	695b      	ldr	r3, [r3, #20]
 8001f92:	f003 0380 	and.w	r3, r3, #128	; 0x80
 8001f96:	2b00      	cmp	r3, #0
 8001f98:	d002      	beq.n	8001fa0 <TM_DMA_INT_ProcessInterrupt+0xa8>
		TM_DMA_FIFOErrorHandler(DMA_Stream);
 8001f9a:	6878      	ldr	r0, [r7, #4]
 8001f9c:	f7ff ffa2 	bl	8001ee4 <TM_DMA_FIFOErrorHandler>
	}
}
 8001fa0:	bf00      	nop
 8001fa2:	3710      	adds	r7, #16
 8001fa4:	46bd      	mov	sp, r7
 8001fa6:	bd80      	pop	{r7, pc}

08001fa8 <DMA1_Stream0_IRQHandler>:

/* Handle all DMA interrupt handlers possible */
#ifndef DMA1_STREAM0_DISABLE_IRQHANDLER
void DMA1_Stream0_IRQHandler(void) {
 8001fa8:	b580      	push	{r7, lr}
 8001faa:	af00      	add	r7, sp, #0
	/* Call user function */
	TM_DMA_INT_ProcessInterrupt(DMA1_Stream0);
 8001fac:	4802      	ldr	r0, [pc, #8]	; (8001fb8 <DMA1_Stream0_IRQHandler+0x10>)
 8001fae:	f7ff ffa3 	bl	8001ef8 <TM_DMA_INT_ProcessInterrupt>
}
 8001fb2:	bf00      	nop
 8001fb4:	bd80      	pop	{r7, pc}
 8001fb6:	bf00      	nop
 8001fb8:	40026010 	.word	0x40026010

08001fbc <DMA1_Stream1_IRQHandler>:
#endif
#ifndef DMA1_STREAM1_DISABLE_IRQHANDLER
void DMA1_Stream1_IRQHandler(void) {
 8001fbc:	b580      	push	{r7, lr}
 8001fbe:	af00      	add	r7, sp, #0
	/* Call user function */
	TM_DMA_INT_ProcessInterrupt(DMA1_Stream1);
 8001fc0:	4802      	ldr	r0, [pc, #8]	; (8001fcc <DMA1_Stream1_IRQHandler+0x10>)
 8001fc2:	f7ff ff99 	bl	8001ef8 <TM_DMA_INT_ProcessInterrupt>
}
 8001fc6:	bf00      	nop
 8001fc8:	bd80      	pop	{r7, pc}
 8001fca:	bf00      	nop
 8001fcc:	40026028 	.word	0x40026028

08001fd0 <DMA1_Stream2_IRQHandler>:
#endif
#ifndef DMA1_STREAM2_DISABLE_IRQHANDLER
void DMA1_Stream2_IRQHandler(void) {
 8001fd0:	b580      	push	{r7, lr}
 8001fd2:	af00      	add	r7, sp, #0
	/* Call user function */
	TM_DMA_INT_ProcessInterrupt(DMA1_Stream2);
 8001fd4:	4802      	ldr	r0, [pc, #8]	; (8001fe0 <DMA1_Stream2_IRQHandler+0x10>)
 8001fd6:	f7ff ff8f 	bl	8001ef8 <TM_DMA_INT_ProcessInterrupt>
}
 8001fda:	bf00      	nop
 8001fdc:	bd80      	pop	{r7, pc}
 8001fde:	bf00      	nop
 8001fe0:	40026040 	.word	0x40026040

08001fe4 <DMA1_Stream3_IRQHandler>:
#endif
#ifndef DMA1_STREAM3_DISABLE_IRQHANDLER
void DMA1_Stream3_IRQHandler(void) {
 8001fe4:	b580      	push	{r7, lr}
 8001fe6:	af00      	add	r7, sp, #0
	/* Call user function */
	TM_DMA_INT_ProcessInterrupt(DMA1_Stream3);
 8001fe8:	4802      	ldr	r0, [pc, #8]	; (8001ff4 <DMA1_Stream3_IRQHandler+0x10>)
 8001fea:	f7ff ff85 	bl	8001ef8 <TM_DMA_INT_ProcessInterrupt>
}
 8001fee:	bf00      	nop
 8001ff0:	bd80      	pop	{r7, pc}
 8001ff2:	bf00      	nop
 8001ff4:	40026058 	.word	0x40026058

08001ff8 <DMA1_Stream4_IRQHandler>:
#endif
#ifndef DMA1_STREAM4_DISABLE_IRQHANDLER
void DMA1_Stream4_IRQHandler(void) {
 8001ff8:	b580      	push	{r7, lr}
 8001ffa:	af00      	add	r7, sp, #0
	/* Call user function */
	TM_DMA_INT_ProcessInterrupt(DMA1_Stream4);
 8001ffc:	4802      	ldr	r0, [pc, #8]	; (8002008 <DMA1_Stream4_IRQHandler+0x10>)
 8001ffe:	f7ff ff7b 	bl	8001ef8 <TM_DMA_INT_ProcessInterrupt>
}
 8002002:	bf00      	nop
 8002004:	bd80      	pop	{r7, pc}
 8002006:	bf00      	nop
 8002008:	40026070 	.word	0x40026070

0800200c <DMA1_Stream5_IRQHandler>:
#endif
#ifndef DMA1_STREAM5_DISABLE_IRQHANDLER
void DMA1_Stream5_IRQHandler(void) {
 800200c:	b580      	push	{r7, lr}
 800200e:	af00      	add	r7, sp, #0
	/* Call user function */
	TM_DMA_INT_ProcessInterrupt(DMA1_Stream5);
 8002010:	4802      	ldr	r0, [pc, #8]	; (800201c <DMA1_Stream5_IRQHandler+0x10>)
 8002012:	f7ff ff71 	bl	8001ef8 <TM_DMA_INT_ProcessInterrupt>
}
 8002016:	bf00      	nop
 8002018:	bd80      	pop	{r7, pc}
 800201a:	bf00      	nop
 800201c:	40026088 	.word	0x40026088

08002020 <DMA1_Stream6_IRQHandler>:
#endif
#ifndef DMA1_STREAM6_DISABLE_IRQHANDLER
void DMA1_Stream6_IRQHandler(void) {
 8002020:	b580      	push	{r7, lr}
 8002022:	af00      	add	r7, sp, #0
	/* Call user function */
	TM_DMA_INT_ProcessInterrupt(DMA1_Stream6);
 8002024:	4802      	ldr	r0, [pc, #8]	; (8002030 <DMA1_Stream6_IRQHandler+0x10>)
 8002026:	f7ff ff67 	bl	8001ef8 <TM_DMA_INT_ProcessInterrupt>
}
 800202a:	bf00      	nop
 800202c:	bd80      	pop	{r7, pc}
 800202e:	bf00      	nop
 8002030:	400260a0 	.word	0x400260a0

08002034 <DMA1_Stream7_IRQHandler>:
#endif
#ifndef DMA1_STREAM7_DISABLE_IRQHANDLER
void DMA1_Stream7_IRQHandler(void) {
 8002034:	b580      	push	{r7, lr}
 8002036:	af00      	add	r7, sp, #0
	/* Call user function */
	TM_DMA_INT_ProcessInterrupt(DMA1_Stream7);
 8002038:	4802      	ldr	r0, [pc, #8]	; (8002044 <DMA1_Stream7_IRQHandler+0x10>)
 800203a:	f7ff ff5d 	bl	8001ef8 <TM_DMA_INT_ProcessInterrupt>
}
 800203e:	bf00      	nop
 8002040:	bd80      	pop	{r7, pc}
 8002042:	bf00      	nop
 8002044:	400260b8 	.word	0x400260b8

08002048 <DMA2_Stream0_IRQHandler>:
#endif
#ifndef DMA2_STREAM0_DISABLE_IRQHANDLER
void DMA2_Stream0_IRQHandler(void) {
 8002048:	b580      	push	{r7, lr}
 800204a:	af00      	add	r7, sp, #0
	/* Call user function */
	TM_DMA_INT_ProcessInterrupt(DMA2_Stream0);
 800204c:	4802      	ldr	r0, [pc, #8]	; (8002058 <DMA2_Stream0_IRQHandler+0x10>)
 800204e:	f7ff ff53 	bl	8001ef8 <TM_DMA_INT_ProcessInterrupt>
}
 8002052:	bf00      	nop
 8002054:	bd80      	pop	{r7, pc}
 8002056:	bf00      	nop
 8002058:	40026410 	.word	0x40026410

0800205c <DMA2_Stream1_IRQHandler>:
#endif
#ifndef DMA2_STREAM1_DISABLE_IRQHANDLER
void DMA2_Stream1_IRQHandler(void) {
 800205c:	b580      	push	{r7, lr}
 800205e:	af00      	add	r7, sp, #0
	/* Call user function */
	TM_DMA_INT_ProcessInterrupt(DMA2_Stream1);
 8002060:	4802      	ldr	r0, [pc, #8]	; (800206c <DMA2_Stream1_IRQHandler+0x10>)
 8002062:	f7ff ff49 	bl	8001ef8 <TM_DMA_INT_ProcessInterrupt>
}
 8002066:	bf00      	nop
 8002068:	bd80      	pop	{r7, pc}
 800206a:	bf00      	nop
 800206c:	40026428 	.word	0x40026428

08002070 <DMA2_Stream2_IRQHandler>:
#endif
#ifndef DMA2_STREAM2_DISABLE_IRQHANDLER
void DMA2_Stream2_IRQHandler(void) {
 8002070:	b580      	push	{r7, lr}
 8002072:	af00      	add	r7, sp, #0
	/* Call user function */
	TM_DMA_INT_ProcessInterrupt(DMA2_Stream2);
 8002074:	4802      	ldr	r0, [pc, #8]	; (8002080 <DMA2_Stream2_IRQHandler+0x10>)
 8002076:	f7ff ff3f 	bl	8001ef8 <TM_DMA_INT_ProcessInterrupt>
}
 800207a:	bf00      	nop
 800207c:	bd80      	pop	{r7, pc}
 800207e:	bf00      	nop
 8002080:	40026440 	.word	0x40026440

08002084 <DMA2_Stream3_IRQHandler>:
#endif
#ifndef DMA2_STREAM3_DISABLE_IRQHANDLER
void DMA2_Stream3_IRQHandler(void) {
 8002084:	b580      	push	{r7, lr}
 8002086:	af00      	add	r7, sp, #0
	/* Call user function */
	TM_DMA_INT_ProcessInterrupt(DMA2_Stream3);
 8002088:	4802      	ldr	r0, [pc, #8]	; (8002094 <DMA2_Stream3_IRQHandler+0x10>)
 800208a:	f7ff ff35 	bl	8001ef8 <TM_DMA_INT_ProcessInterrupt>
}
 800208e:	bf00      	nop
 8002090:	bd80      	pop	{r7, pc}
 8002092:	bf00      	nop
 8002094:	40026458 	.word	0x40026458

08002098 <DMA2_Stream4_IRQHandler>:
#endif
#ifndef DMA2_STREAM4_DISABLE_IRQHANDLER
void DMA2_Stream4_IRQHandler(void) {
 8002098:	b580      	push	{r7, lr}
 800209a:	af00      	add	r7, sp, #0
	/* Call user function */
	TM_DMA_INT_ProcessInterrupt(DMA2_Stream4);
 800209c:	4802      	ldr	r0, [pc, #8]	; (80020a8 <DMA2_Stream4_IRQHandler+0x10>)
 800209e:	f7ff ff2b 	bl	8001ef8 <TM_DMA_INT_ProcessInterrupt>
}
 80020a2:	bf00      	nop
 80020a4:	bd80      	pop	{r7, pc}
 80020a6:	bf00      	nop
 80020a8:	40026470 	.word	0x40026470

080020ac <DMA2_Stream5_IRQHandler>:
#endif
#ifndef DMA2_STREAM5_DISABLE_IRQHANDLER
void DMA2_Stream5_IRQHandler(void) {
 80020ac:	b580      	push	{r7, lr}
 80020ae:	af00      	add	r7, sp, #0
	/* Call user function */
	TM_DMA_INT_ProcessInterrupt(DMA2_Stream5);
 80020b0:	4802      	ldr	r0, [pc, #8]	; (80020bc <DMA2_Stream5_IRQHandler+0x10>)
 80020b2:	f7ff ff21 	bl	8001ef8 <TM_DMA_INT_ProcessInterrupt>
}
 80020b6:	bf00      	nop
 80020b8:	bd80      	pop	{r7, pc}
 80020ba:	bf00      	nop
 80020bc:	40026488 	.word	0x40026488

080020c0 <DMA2_Stream6_IRQHandler>:
#endif
#ifndef DMA2_STREAM6_DISABLE_IRQHANDLER
void DMA2_Stream6_IRQHandler(void) {
 80020c0:	b580      	push	{r7, lr}
 80020c2:	af00      	add	r7, sp, #0
	/* Call user function */
	TM_DMA_INT_ProcessInterrupt(DMA2_Stream6);
 80020c4:	4802      	ldr	r0, [pc, #8]	; (80020d0 <DMA2_Stream6_IRQHandler+0x10>)
 80020c6:	f7ff ff17 	bl	8001ef8 <TM_DMA_INT_ProcessInterrupt>
}
 80020ca:	bf00      	nop
 80020cc:	bd80      	pop	{r7, pc}
 80020ce:	bf00      	nop
 80020d0:	400264a0 	.word	0x400264a0

080020d4 <DMA2_Stream7_IRQHandler>:
#endif
#ifndef DMA2_STREAM7_DISABLE_IRQHANDLER
void DMA2_Stream7_IRQHandler(void) {
 80020d4:	b580      	push	{r7, lr}
 80020d6:	af00      	add	r7, sp, #0
	/* Call user function */
	TM_DMA_INT_ProcessInterrupt(DMA2_Stream7);
 80020d8:	4802      	ldr	r0, [pc, #8]	; (80020e4 <DMA2_Stream7_IRQHandler+0x10>)
 80020da:	f7ff ff0d 	bl	8001ef8 <TM_DMA_INT_ProcessInterrupt>
}
 80020de:	bf00      	nop
 80020e0:	bd80      	pop	{r7, pc}
 80020e2:	bf00      	nop
 80020e4:	400264b8 	.word	0x400264b8

080020e8 <TM_GPIO_Init>:
/* Private functions */
void TM_GPIO_INT_EnableClock(GPIO_TypeDef* GPIOx);
void TM_GPIO_INT_DisableClock(GPIO_TypeDef* GPIOx);
void TM_GPIO_INT_Init(GPIO_TypeDef* GPIOx, uint16_t GPIO_Pin, TM_GPIO_Mode_t GPIO_Mode, TM_GPIO_OType_t GPIO_OType, TM_GPIO_PuPd_t GPIO_PuPd, TM_GPIO_Speed_t GPIO_Speed);

void TM_GPIO_Init(GPIO_TypeDef* GPIOx, uint16_t GPIO_Pin, TM_GPIO_Mode_t GPIO_Mode, TM_GPIO_OType_t GPIO_OType, TM_GPIO_PuPd_t GPIO_PuPd, TM_GPIO_Speed_t GPIO_Speed) {	
 80020e8:	b580      	push	{r7, lr}
 80020ea:	b084      	sub	sp, #16
 80020ec:	af02      	add	r7, sp, #8
 80020ee:	6078      	str	r0, [r7, #4]
 80020f0:	4608      	mov	r0, r1
 80020f2:	4611      	mov	r1, r2
 80020f4:	461a      	mov	r2, r3
 80020f6:	4603      	mov	r3, r0
 80020f8:	807b      	strh	r3, [r7, #2]
 80020fa:	460b      	mov	r3, r1
 80020fc:	707b      	strb	r3, [r7, #1]
 80020fe:	4613      	mov	r3, r2
 8002100:	703b      	strb	r3, [r7, #0]
	/* Check input */
	if (GPIO_Pin == 0x00) {
 8002102:	887b      	ldrh	r3, [r7, #2]
 8002104:	2b00      	cmp	r3, #0
 8002106:	d00e      	beq.n	8002126 <TM_GPIO_Init+0x3e>
		return;
	}
	
	/* Enable clock for GPIO */
	TM_GPIO_INT_EnableClock(GPIOx);
 8002108:	6878      	ldr	r0, [r7, #4]
 800210a:	f000 f821 	bl	8002150 <TM_GPIO_INT_EnableClock>
	
	/* Do initialization */
	TM_GPIO_INT_Init(GPIOx, GPIO_Pin, GPIO_Mode, GPIO_OType, GPIO_PuPd, GPIO_Speed);
 800210e:	7838      	ldrb	r0, [r7, #0]
 8002110:	787a      	ldrb	r2, [r7, #1]
 8002112:	8879      	ldrh	r1, [r7, #2]
 8002114:	7d3b      	ldrb	r3, [r7, #20]
 8002116:	9301      	str	r3, [sp, #4]
 8002118:	7c3b      	ldrb	r3, [r7, #16]
 800211a:	9300      	str	r3, [sp, #0]
 800211c:	4603      	mov	r3, r0
 800211e:	6878      	ldr	r0, [r7, #4]
 8002120:	f000 f82e 	bl	8002180 <TM_GPIO_INT_Init>
 8002124:	e000      	b.n	8002128 <TM_GPIO_Init+0x40>
		return;
 8002126:	bf00      	nop
}
 8002128:	3708      	adds	r7, #8
 800212a:	46bd      	mov	sp, r7
 800212c:	bd80      	pop	{r7, pc}

0800212e <TM_GPIO_GetPortSource>:
	
	/* Return source */
	return pinsource;
}

uint16_t TM_GPIO_GetPortSource(GPIO_TypeDef* GPIOx) {
 800212e:	b480      	push	{r7}
 8002130:	b083      	sub	sp, #12
 8002132:	af00      	add	r7, sp, #0
 8002134:	6078      	str	r0, [r7, #4]
	/* Get port source number */
	/* Offset from GPIOA                       Difference between 2 GPIO addresses */
	return ((uint32_t)GPIOx - (GPIOA_BASE)) / ((GPIOB_BASE) - (GPIOA_BASE));
 8002136:	687b      	ldr	r3, [r7, #4]
 8002138:	f103 433f 	add.w	r3, r3, #3204448256	; 0xbf000000
 800213c:	f503 037e 	add.w	r3, r3, #16646144	; 0xfe0000
 8002140:	0a9b      	lsrs	r3, r3, #10
 8002142:	b29b      	uxth	r3, r3
}
 8002144:	4618      	mov	r0, r3
 8002146:	370c      	adds	r7, #12
 8002148:	46bd      	mov	sp, r7
 800214a:	f85d 7b04 	ldr.w	r7, [sp], #4
 800214e:	4770      	bx	lr

08002150 <TM_GPIO_INT_EnableClock>:

/* Private functions */
void TM_GPIO_INT_EnableClock(GPIO_TypeDef* GPIOx) {
 8002150:	b580      	push	{r7, lr}
 8002152:	b082      	sub	sp, #8
 8002154:	af00      	add	r7, sp, #0
 8002156:	6078      	str	r0, [r7, #4]
	/* Set bit according to the 1 << portsourcenumber */
	RCC->AHB1ENR |= (1 << TM_GPIO_GetPortSource(GPIOx));
 8002158:	6878      	ldr	r0, [r7, #4]
 800215a:	f7ff ffe8 	bl	800212e <TM_GPIO_GetPortSource>
 800215e:	4603      	mov	r3, r0
 8002160:	461a      	mov	r2, r3
 8002162:	2301      	movs	r3, #1
 8002164:	fa03 f102 	lsl.w	r1, r3, r2
 8002168:	4a04      	ldr	r2, [pc, #16]	; (800217c <TM_GPIO_INT_EnableClock+0x2c>)
 800216a:	4b04      	ldr	r3, [pc, #16]	; (800217c <TM_GPIO_INT_EnableClock+0x2c>)
 800216c:	6b1b      	ldr	r3, [r3, #48]	; 0x30
 800216e:	430b      	orrs	r3, r1
 8002170:	6313      	str	r3, [r2, #48]	; 0x30
}
 8002172:	bf00      	nop
 8002174:	3708      	adds	r7, #8
 8002176:	46bd      	mov	sp, r7
 8002178:	bd80      	pop	{r7, pc}
 800217a:	bf00      	nop
 800217c:	40023800 	.word	0x40023800

08002180 <TM_GPIO_INT_Init>:
void TM_GPIO_INT_DisableClock(GPIO_TypeDef* GPIOx) {
	/* Clear bit according to the 1 << portsourcenumber */
	RCC->AHB1ENR &= ~(1 << TM_GPIO_GetPortSource(GPIOx));
}

void TM_GPIO_INT_Init(GPIO_TypeDef* GPIOx, uint16_t GPIO_Pin, TM_GPIO_Mode_t GPIO_Mode, TM_GPIO_OType_t GPIO_OType, TM_GPIO_PuPd_t GPIO_PuPd, TM_GPIO_Speed_t GPIO_Speed) {
 8002180:	b580      	push	{r7, lr}
 8002182:	b084      	sub	sp, #16
 8002184:	af00      	add	r7, sp, #0
 8002186:	6078      	str	r0, [r7, #4]
 8002188:	4608      	mov	r0, r1
 800218a:	4611      	mov	r1, r2
 800218c:	461a      	mov	r2, r3
 800218e:	4603      	mov	r3, r0
 8002190:	807b      	strh	r3, [r7, #2]
 8002192:	460b      	mov	r3, r1
 8002194:	707b      	strb	r3, [r7, #1]
 8002196:	4613      	mov	r3, r2
 8002198:	703b      	strb	r3, [r7, #0]
	uint8_t pinpos;
	uint8_t ptr = TM_GPIO_GetPortSource(GPIOx);
 800219a:	6878      	ldr	r0, [r7, #4]
 800219c:	f7ff ffc7 	bl	800212e <TM_GPIO_GetPortSource>
 80021a0:	4603      	mov	r3, r0
 80021a2:	73bb      	strb	r3, [r7, #14]
	
	/* Go through all pins */
	for (pinpos = 0; pinpos < 0x10; pinpos++) {
 80021a4:	2300      	movs	r3, #0
 80021a6:	73fb      	strb	r3, [r7, #15]
 80021a8:	e067      	b.n	800227a <TM_GPIO_INT_Init+0xfa>
		/* Check if pin available */
		if ((GPIO_Pin & (1 << pinpos)) == 0) {
 80021aa:	887a      	ldrh	r2, [r7, #2]
 80021ac:	7bfb      	ldrb	r3, [r7, #15]
 80021ae:	fa42 f303 	asr.w	r3, r2, r3
 80021b2:	f003 0301 	and.w	r3, r3, #1
 80021b6:	2b00      	cmp	r3, #0
 80021b8:	d05b      	beq.n	8002272 <TM_GPIO_INT_Init+0xf2>
			continue;
		}
		
		/* Pin is used */
		GPIO_UsedPins[ptr] |= 1 << pinpos;
 80021ba:	7bbb      	ldrb	r3, [r7, #14]
 80021bc:	7bba      	ldrb	r2, [r7, #14]
 80021be:	4932      	ldr	r1, [pc, #200]	; (8002288 <TM_GPIO_INT_Init+0x108>)
 80021c0:	f831 2012 	ldrh.w	r2, [r1, r2, lsl #1]
 80021c4:	b211      	sxth	r1, r2
 80021c6:	7bfa      	ldrb	r2, [r7, #15]
 80021c8:	2001      	movs	r0, #1
 80021ca:	fa00 f202 	lsl.w	r2, r0, r2
 80021ce:	b212      	sxth	r2, r2
 80021d0:	430a      	orrs	r2, r1
 80021d2:	b212      	sxth	r2, r2
 80021d4:	b291      	uxth	r1, r2
 80021d6:	4a2c      	ldr	r2, [pc, #176]	; (8002288 <TM_GPIO_INT_Init+0x108>)
 80021d8:	f822 1013 	strh.w	r1, [r2, r3, lsl #1]
		
		/* Set GPIO PUPD register */
		GPIOx->PUPDR = (GPIOx->PUPDR & ~(0x03 << (2 * pinpos))) | ((uint32_t)(GPIO_PuPd << (2 * pinpos)));
 80021dc:	687b      	ldr	r3, [r7, #4]
 80021de:	68db      	ldr	r3, [r3, #12]
 80021e0:	7bfa      	ldrb	r2, [r7, #15]
 80021e2:	0052      	lsls	r2, r2, #1
 80021e4:	2103      	movs	r1, #3
 80021e6:	fa01 f202 	lsl.w	r2, r1, r2
 80021ea:	43d2      	mvns	r2, r2
 80021ec:	4013      	ands	r3, r2
 80021ee:	7e39      	ldrb	r1, [r7, #24]
 80021f0:	7bfa      	ldrb	r2, [r7, #15]
 80021f2:	0052      	lsls	r2, r2, #1
 80021f4:	fa01 f202 	lsl.w	r2, r1, r2
 80021f8:	431a      	orrs	r2, r3
 80021fa:	687b      	ldr	r3, [r7, #4]
 80021fc:	60da      	str	r2, [r3, #12]
		
		/* Set GPIO MODE register */
		GPIOx->MODER = (GPIOx->MODER & ~((uint32_t)(0x03 << (2 * pinpos)))) | ((uint32_t)(GPIO_Mode << (2 * pinpos)));
 80021fe:	687b      	ldr	r3, [r7, #4]
 8002200:	681a      	ldr	r2, [r3, #0]
 8002202:	7bfb      	ldrb	r3, [r7, #15]
 8002204:	005b      	lsls	r3, r3, #1
 8002206:	2103      	movs	r1, #3
 8002208:	fa01 f303 	lsl.w	r3, r1, r3
 800220c:	43db      	mvns	r3, r3
 800220e:	4013      	ands	r3, r2
 8002210:	7879      	ldrb	r1, [r7, #1]
 8002212:	7bfa      	ldrb	r2, [r7, #15]
 8002214:	0052      	lsls	r2, r2, #1
 8002216:	fa01 f202 	lsl.w	r2, r1, r2
 800221a:	431a      	orrs	r2, r3
 800221c:	687b      	ldr	r3, [r7, #4]
 800221e:	601a      	str	r2, [r3, #0]
		
		/* Set only if output or alternate functions */
		if (GPIO_Mode == TM_GPIO_Mode_OUT || GPIO_Mode == TM_GPIO_Mode_AF) {		
 8002220:	787b      	ldrb	r3, [r7, #1]
 8002222:	2b01      	cmp	r3, #1
 8002224:	d002      	beq.n	800222c <TM_GPIO_INT_Init+0xac>
 8002226:	787b      	ldrb	r3, [r7, #1]
 8002228:	2b02      	cmp	r3, #2
 800222a:	d123      	bne.n	8002274 <TM_GPIO_INT_Init+0xf4>
			/* Set GPIO OTYPE register */
			GPIOx->OTYPER = (GPIOx->OTYPER & ~(uint16_t)(0x01 << pinpos)) | ((uint16_t)(GPIO_OType << pinpos));
 800222c:	687b      	ldr	r3, [r7, #4]
 800222e:	685b      	ldr	r3, [r3, #4]
 8002230:	7bfa      	ldrb	r2, [r7, #15]
 8002232:	2101      	movs	r1, #1
 8002234:	fa01 f202 	lsl.w	r2, r1, r2
 8002238:	b292      	uxth	r2, r2
 800223a:	43d2      	mvns	r2, r2
 800223c:	4013      	ands	r3, r2
 800223e:	7839      	ldrb	r1, [r7, #0]
 8002240:	7bfa      	ldrb	r2, [r7, #15]
 8002242:	fa01 f202 	lsl.w	r2, r1, r2
 8002246:	b292      	uxth	r2, r2
 8002248:	431a      	orrs	r2, r3
 800224a:	687b      	ldr	r3, [r7, #4]
 800224c:	605a      	str	r2, [r3, #4]
			
			/* Set GPIO OSPEED register */
			GPIOx->OSPEEDR = (GPIOx->OSPEEDR & ~((uint32_t)(0x03 << (2 * pinpos)))) | ((uint32_t)(GPIO_Speed << (2 * pinpos)));
 800224e:	687b      	ldr	r3, [r7, #4]
 8002250:	689a      	ldr	r2, [r3, #8]
 8002252:	7bfb      	ldrb	r3, [r7, #15]
 8002254:	005b      	lsls	r3, r3, #1
 8002256:	2103      	movs	r1, #3
 8002258:	fa01 f303 	lsl.w	r3, r1, r3
 800225c:	43db      	mvns	r3, r3
 800225e:	4013      	ands	r3, r2
 8002260:	7f39      	ldrb	r1, [r7, #28]
 8002262:	7bfa      	ldrb	r2, [r7, #15]
 8002264:	0052      	lsls	r2, r2, #1
 8002266:	fa01 f202 	lsl.w	r2, r1, r2
 800226a:	431a      	orrs	r2, r3
 800226c:	687b      	ldr	r3, [r7, #4]
 800226e:	609a      	str	r2, [r3, #8]
 8002270:	e000      	b.n	8002274 <TM_GPIO_INT_Init+0xf4>
			continue;
 8002272:	bf00      	nop
	for (pinpos = 0; pinpos < 0x10; pinpos++) {
 8002274:	7bfb      	ldrb	r3, [r7, #15]
 8002276:	3301      	adds	r3, #1
 8002278:	73fb      	strb	r3, [r7, #15]
 800227a:	7bfb      	ldrb	r3, [r7, #15]
 800227c:	2b0f      	cmp	r3, #15
 800227e:	d994      	bls.n	80021aa <TM_GPIO_INT_Init+0x2a>
		}
	}
}
 8002280:	bf00      	nop
 8002282:	3710      	adds	r7, #16
 8002284:	46bd      	mov	sp, r7
 8002286:	bd80      	pop	{r7, pc}
 8002288:	20007e70 	.word	0x20007e70

0800228c <TM_TIMER_PROPERTIES_GetTimerProperties>:
 * | along with this program.  If not, see <http://www.gnu.org/licenses/>.
 * |----------------------------------------------------------------------
 */
#include "tm_stm32f4_timer_properties.h"

TM_TIMER_PROPERTIES_Result_t TM_TIMER_PROPERTIES_GetTimerProperties(TIM_TypeDef* TIMx, TM_TIMER_PROPERTIES_t* Timer_Data) {
 800228c:	b580      	push	{r7, lr}
 800228e:	b086      	sub	sp, #24
 8002290:	af00      	add	r7, sp, #0
 8002292:	6078      	str	r0, [r7, #4]
 8002294:	6039      	str	r1, [r7, #0]
	RCC_ClocksTypeDef RCC_ClocksStruct;

	/* Get clocks */
	RCC_GetClocksFreq(&RCC_ClocksStruct);
 8002296:	f107 0308 	add.w	r3, r7, #8
 800229a:	4618      	mov	r0, r3
 800229c:	f7ff f8fc 	bl	8001498 <RCC_GetClocksFreq>
	
	/* All timers have 16-bit prescaler */
	Timer_Data->MaxPrescaler = 0xFFFF;
 80022a0:	683b      	ldr	r3, [r7, #0]
 80022a2:	f64f 72ff 	movw	r2, #65535	; 0xffff
 80022a6:	609a      	str	r2, [r3, #8]
	
	if (0 /* 32bit timers with PCLK2 max frequency */
 80022a8:	687b      	ldr	r3, [r7, #4]
 80022aa:	f1b3 4f80 	cmp.w	r3, #1073741824	; 0x40000000
 80022ae:	d003      	beq.n	80022b8 <TM_TIMER_PROPERTIES_GetTimerProperties+0x2c>
#ifdef TIM2
		|| TIMx == TIM2
#endif
#ifdef TIM5
		|| TIMx == TIM5
 80022b0:	687b      	ldr	r3, [r7, #4]
 80022b2:	4a29      	ldr	r2, [pc, #164]	; (8002358 <TM_TIMER_PROPERTIES_GetTimerProperties+0xcc>)
 80022b4:	4293      	cmp	r3, r2
 80022b6:	d108      	bne.n	80022ca <TM_TIMER_PROPERTIES_GetTimerProperties+0x3e>
#endif
	) {
		Timer_Data->TimerFrequency = RCC_ClocksStruct.PCLK2_Frequency;	/* Clock */
 80022b8:	697a      	ldr	r2, [r7, #20]
 80022ba:	683b      	ldr	r3, [r7, #0]
 80022bc:	601a      	str	r2, [r3, #0]
		Timer_Data->MaxPeriod = 0xFFFFFFFF;								/* Max period */
 80022be:	683b      	ldr	r3, [r7, #0]
 80022c0:	f04f 32ff 	mov.w	r2, #4294967295
 80022c4:	605a      	str	r2, [r3, #4]
		
		/* Timer valid */
		return TM_TIMER_PROPERTIES_Result_Ok;
 80022c6:	2300      	movs	r3, #0
 80022c8:	e042      	b.n	8002350 <TM_TIMER_PROPERTIES_GetTimerProperties+0xc4>
	} else if (0	/* 16bit timers with HCLK clock frequency */
 80022ca:	687b      	ldr	r3, [r7, #4]
 80022cc:	4a23      	ldr	r2, [pc, #140]	; (800235c <TM_TIMER_PROPERTIES_GetTimerProperties+0xd0>)
 80022ce:	4293      	cmp	r3, r2
 80022d0:	d00f      	beq.n	80022f2 <TM_TIMER_PROPERTIES_GetTimerProperties+0x66>
#ifdef TIM1
		|| TIMx == TIM1
#endif
#ifdef TIM8
		|| TIMx == TIM8
 80022d2:	687b      	ldr	r3, [r7, #4]
 80022d4:	4a22      	ldr	r2, [pc, #136]	; (8002360 <TM_TIMER_PROPERTIES_GetTimerProperties+0xd4>)
 80022d6:	4293      	cmp	r3, r2
 80022d8:	d00b      	beq.n	80022f2 <TM_TIMER_PROPERTIES_GetTimerProperties+0x66>
#endif
#ifdef TIM9
		|| TIMx == TIM9
 80022da:	687b      	ldr	r3, [r7, #4]
 80022dc:	4a21      	ldr	r2, [pc, #132]	; (8002364 <TM_TIMER_PROPERTIES_GetTimerProperties+0xd8>)
 80022de:	4293      	cmp	r3, r2
 80022e0:	d007      	beq.n	80022f2 <TM_TIMER_PROPERTIES_GetTimerProperties+0x66>
#endif
#ifdef TIM10
		|| TIMx == TIM10
 80022e2:	687b      	ldr	r3, [r7, #4]
 80022e4:	4a20      	ldr	r2, [pc, #128]	; (8002368 <TM_TIMER_PROPERTIES_GetTimerProperties+0xdc>)
 80022e6:	4293      	cmp	r3, r2
 80022e8:	d003      	beq.n	80022f2 <TM_TIMER_PROPERTIES_GetTimerProperties+0x66>
#endif
#ifdef TIM11
		|| TIMx == TIM11
 80022ea:	687b      	ldr	r3, [r7, #4]
 80022ec:	4a1f      	ldr	r2, [pc, #124]	; (800236c <TM_TIMER_PROPERTIES_GetTimerProperties+0xe0>)
 80022ee:	4293      	cmp	r3, r2
 80022f0:	d108      	bne.n	8002304 <TM_TIMER_PROPERTIES_GetTimerProperties+0x78>
#endif
	) {
		Timer_Data->TimerFrequency = RCC_ClocksStruct.HCLK_Frequency;	/* Clock */
 80022f2:	68fa      	ldr	r2, [r7, #12]
 80022f4:	683b      	ldr	r3, [r7, #0]
 80022f6:	601a      	str	r2, [r3, #0]
		Timer_Data->MaxPeriod = 0xFFFF;									/* Max period */
 80022f8:	683b      	ldr	r3, [r7, #0]
 80022fa:	f64f 72ff 	movw	r2, #65535	; 0xffff
 80022fe:	605a      	str	r2, [r3, #4]
		
		/* Timer valid */
		return TM_TIMER_PROPERTIES_Result_Ok;
 8002300:	2300      	movs	r3, #0
 8002302:	e025      	b.n	8002350 <TM_TIMER_PROPERTIES_GetTimerProperties+0xc4>
	} else if (0	/* 16bit timers with PCLK2 clock frequency */
 8002304:	687b      	ldr	r3, [r7, #4]
 8002306:	4a1a      	ldr	r2, [pc, #104]	; (8002370 <TM_TIMER_PROPERTIES_GetTimerProperties+0xe4>)
 8002308:	4293      	cmp	r3, r2
 800230a:	d017      	beq.n	800233c <TM_TIMER_PROPERTIES_GetTimerProperties+0xb0>
#ifdef TIM3
		|| TIMx == TIM3
#endif
#ifdef TIM4
		|| TIMx == TIM4
 800230c:	687b      	ldr	r3, [r7, #4]
 800230e:	4a19      	ldr	r2, [pc, #100]	; (8002374 <TM_TIMER_PROPERTIES_GetTimerProperties+0xe8>)
 8002310:	4293      	cmp	r3, r2
 8002312:	d013      	beq.n	800233c <TM_TIMER_PROPERTIES_GetTimerProperties+0xb0>
#endif
#ifdef TIM6
		|| TIMx == TIM6
 8002314:	687b      	ldr	r3, [r7, #4]
 8002316:	4a18      	ldr	r2, [pc, #96]	; (8002378 <TM_TIMER_PROPERTIES_GetTimerProperties+0xec>)
 8002318:	4293      	cmp	r3, r2
 800231a:	d00f      	beq.n	800233c <TM_TIMER_PROPERTIES_GetTimerProperties+0xb0>
#endif
#ifdef TIM7
		|| TIMx == TIM7
 800231c:	687b      	ldr	r3, [r7, #4]
 800231e:	4a17      	ldr	r2, [pc, #92]	; (800237c <TM_TIMER_PROPERTIES_GetTimerProperties+0xf0>)
 8002320:	4293      	cmp	r3, r2
 8002322:	d00b      	beq.n	800233c <TM_TIMER_PROPERTIES_GetTimerProperties+0xb0>
#endif
#ifdef TIM12
		|| TIMx == TIM12
 8002324:	687b      	ldr	r3, [r7, #4]
 8002326:	4a16      	ldr	r2, [pc, #88]	; (8002380 <TM_TIMER_PROPERTIES_GetTimerProperties+0xf4>)
 8002328:	4293      	cmp	r3, r2
 800232a:	d007      	beq.n	800233c <TM_TIMER_PROPERTIES_GetTimerProperties+0xb0>
#endif
#ifdef TIM13
		|| TIMx == TIM13
 800232c:	687b      	ldr	r3, [r7, #4]
 800232e:	4a15      	ldr	r2, [pc, #84]	; (8002384 <TM_TIMER_PROPERTIES_GetTimerProperties+0xf8>)
 8002330:	4293      	cmp	r3, r2
 8002332:	d003      	beq.n	800233c <TM_TIMER_PROPERTIES_GetTimerProperties+0xb0>
#endif
#ifdef TIM14
		|| TIMx == TIM14
 8002334:	687b      	ldr	r3, [r7, #4]
 8002336:	4a14      	ldr	r2, [pc, #80]	; (8002388 <TM_TIMER_PROPERTIES_GetTimerProperties+0xfc>)
 8002338:	4293      	cmp	r3, r2
 800233a:	d108      	bne.n	800234e <TM_TIMER_PROPERTIES_GetTimerProperties+0xc2>
#endif
	) {
		Timer_Data->TimerFrequency = RCC_ClocksStruct.PCLK2_Frequency;	/* Clock */
 800233c:	697a      	ldr	r2, [r7, #20]
 800233e:	683b      	ldr	r3, [r7, #0]
 8002340:	601a      	str	r2, [r3, #0]
		Timer_Data->MaxPeriod = 0xFFFF;									/* Max period */
 8002342:	683b      	ldr	r3, [r7, #0]
 8002344:	f64f 72ff 	movw	r2, #65535	; 0xffff
 8002348:	605a      	str	r2, [r3, #4]
		
		/* Timer valid */
		return TM_TIMER_PROPERTIES_Result_Ok;
 800234a:	2300      	movs	r3, #0
 800234c:	e000      	b.n	8002350 <TM_TIMER_PROPERTIES_GetTimerProperties+0xc4>
	}
	
	/* Timer is not valid */
	return TM_TIMER_PROPERTIES_Result_TimerNotValid;
 800234e:	2302      	movs	r3, #2
}
 8002350:	4618      	mov	r0, r3
 8002352:	3718      	adds	r7, #24
 8002354:	46bd      	mov	sp, r7
 8002356:	bd80      	pop	{r7, pc}
 8002358:	40000c00 	.word	0x40000c00
 800235c:	40010000 	.word	0x40010000
 8002360:	40010400 	.word	0x40010400
 8002364:	40014000 	.word	0x40014000
 8002368:	40014400 	.word	0x40014400
 800236c:	40014800 	.word	0x40014800
 8002370:	40000400 	.word	0x40000400
 8002374:	40000800 	.word	0x40000800
 8002378:	40001000 	.word	0x40001000
 800237c:	40001400 	.word	0x40001400
 8002380:	40001800 	.word	0x40001800
 8002384:	40001c00 	.word	0x40001c00
 8002388:	40002000 	.word	0x40002000

0800238c <TM_TIMER_PROPERTIES_GenerateDataForWorkingFrequency>:

TM_TIMER_PROPERTIES_Result_t TM_TIMER_PROPERTIES_GenerateDataForWorkingFrequency(TM_TIMER_PROPERTIES_t* Timer_Data, double frequency) {
 800238c:	b590      	push	{r4, r7, lr}
 800238e:	b085      	sub	sp, #20
 8002390:	af00      	add	r7, sp, #0
 8002392:	60f8      	str	r0, [r7, #12]
 8002394:	ed87 0b00 	vstr	d0, [r7]
	if (frequency > Timer_Data->TimerFrequency) {
 8002398:	68fb      	ldr	r3, [r7, #12]
 800239a:	681b      	ldr	r3, [r3, #0]
 800239c:	4618      	mov	r0, r3
 800239e:	f7fe f855 	bl	800044c <__aeabi_ui2d>
 80023a2:	e9d7 2300 	ldrd	r2, r3, [r7]
 80023a6:	f7fe fb39 	bl	8000a1c <__aeabi_dcmplt>
 80023aa:	4603      	mov	r3, r0
 80023ac:	2b00      	cmp	r3, #0
 80023ae:	d00a      	beq.n	80023c6 <TM_TIMER_PROPERTIES_GenerateDataForWorkingFrequency+0x3a>
		/* Reset values */
		Timer_Data->Prescaler = 0;
 80023b0:	68fb      	ldr	r3, [r7, #12]
 80023b2:	2200      	movs	r2, #0
 80023b4:	611a      	str	r2, [r3, #16]
		Timer_Data->Period = 0;
 80023b6:	68fb      	ldr	r3, [r7, #12]
 80023b8:	2200      	movs	r2, #0
 80023ba:	60da      	str	r2, [r3, #12]
		Timer_Data->Frequency = 0;
 80023bc:	68fb      	ldr	r3, [r7, #12]
 80023be:	2200      	movs	r2, #0
 80023c0:	615a      	str	r2, [r3, #20]
		
		/* Frequency too high */
		return TM_TIMER_PROPERTIES_Result_FrequencyTooHigh;
 80023c2:	2303      	movs	r3, #3
 80023c4:	e069      	b.n	800249a <TM_TIMER_PROPERTIES_GenerateDataForWorkingFrequency+0x10e>
	} else if (frequency == 0) {
 80023c6:	f04f 0200 	mov.w	r2, #0
 80023ca:	f04f 0300 	mov.w	r3, #0
 80023ce:	e9d7 0100 	ldrd	r0, r1, [r7]
 80023d2:	f7fe fb19 	bl	8000a08 <__aeabi_dcmpeq>
 80023d6:	4603      	mov	r3, r0
 80023d8:	2b00      	cmp	r3, #0
 80023da:	d00a      	beq.n	80023f2 <TM_TIMER_PROPERTIES_GenerateDataForWorkingFrequency+0x66>
		/* Reset values */
		Timer_Data->Prescaler = 0;
 80023dc:	68fb      	ldr	r3, [r7, #12]
 80023de:	2200      	movs	r2, #0
 80023e0:	611a      	str	r2, [r3, #16]
		Timer_Data->Period = 0;
 80023e2:	68fb      	ldr	r3, [r7, #12]
 80023e4:	2200      	movs	r2, #0
 80023e6:	60da      	str	r2, [r3, #12]
		Timer_Data->Frequency = 0;
 80023e8:	68fb      	ldr	r3, [r7, #12]
 80023ea:	2200      	movs	r2, #0
 80023ec:	615a      	str	r2, [r3, #20]
		
		/* Not valid frequency */
		return TM_TIMER_PROPERTIES_Result_FrequencyTooLow;
 80023ee:	2304      	movs	r3, #4
 80023f0:	e053      	b.n	800249a <TM_TIMER_PROPERTIES_GenerateDataForWorkingFrequency+0x10e>
	}
	
	/* Fix for 16/32bit timers */
	if (Timer_Data->MaxPeriod <= 0xFFFF) {
 80023f2:	68fb      	ldr	r3, [r7, #12]
 80023f4:	685b      	ldr	r3, [r3, #4]
 80023f6:	f5b3 3f80 	cmp.w	r3, #65536	; 0x10000
 80023fa:	d204      	bcs.n	8002406 <TM_TIMER_PROPERTIES_GenerateDataForWorkingFrequency+0x7a>
		Timer_Data->MaxPeriod++;
 80023fc:	68fb      	ldr	r3, [r7, #12]
 80023fe:	685b      	ldr	r3, [r3, #4]
 8002400:	1c5a      	adds	r2, r3, #1
 8002402:	68fb      	ldr	r3, [r7, #12]
 8002404:	605a      	str	r2, [r3, #4]
	}
	
	/* Get minimum prescaler and maximum resolution for timer */
	Timer_Data->Prescaler = 0;
 8002406:	68fb      	ldr	r3, [r7, #12]
 8002408:	2200      	movs	r2, #0
 800240a:	611a      	str	r2, [r3, #16]
	do {
		/* Get clock */
		Timer_Data->Period = (Timer_Data->TimerFrequency / (Timer_Data->Prescaler + 1));
 800240c:	68fb      	ldr	r3, [r7, #12]
 800240e:	681a      	ldr	r2, [r3, #0]
 8002410:	68fb      	ldr	r3, [r7, #12]
 8002412:	691b      	ldr	r3, [r3, #16]
 8002414:	3301      	adds	r3, #1
 8002416:	fbb2 f2f3 	udiv	r2, r2, r3
 800241a:	68fb      	ldr	r3, [r7, #12]
 800241c:	60da      	str	r2, [r3, #12]
		/* Get period */
		Timer_Data->Period = (Timer_Data->Period / frequency);
 800241e:	68fb      	ldr	r3, [r7, #12]
 8002420:	68db      	ldr	r3, [r3, #12]
 8002422:	4618      	mov	r0, r3
 8002424:	f7fe f812 	bl	800044c <__aeabi_ui2d>
 8002428:	e9d7 2300 	ldrd	r2, r3, [r7]
 800242c:	f7fe f9ae 	bl	800078c <__aeabi_ddiv>
 8002430:	4603      	mov	r3, r0
 8002432:	460c      	mov	r4, r1
 8002434:	4618      	mov	r0, r3
 8002436:	4621      	mov	r1, r4
 8002438:	f7fe fb18 	bl	8000a6c <__aeabi_d2uiz>
 800243c:	4602      	mov	r2, r0
 800243e:	68fb      	ldr	r3, [r7, #12]
 8002440:	60da      	str	r2, [r3, #12]
		/* Increase prescaler value */
		Timer_Data->Prescaler++;
 8002442:	68fb      	ldr	r3, [r7, #12]
 8002444:	691b      	ldr	r3, [r3, #16]
 8002446:	1c5a      	adds	r2, r3, #1
 8002448:	68fb      	ldr	r3, [r7, #12]
 800244a:	611a      	str	r2, [r3, #16]
	} while (Timer_Data->Period > (Timer_Data->MaxPeriod) && Timer_Data->Prescaler <= (Timer_Data->MaxPrescaler + 1));
 800244c:	68fb      	ldr	r3, [r7, #12]
 800244e:	68da      	ldr	r2, [r3, #12]
 8002450:	68fb      	ldr	r3, [r7, #12]
 8002452:	685b      	ldr	r3, [r3, #4]
 8002454:	429a      	cmp	r2, r3
 8002456:	d906      	bls.n	8002466 <TM_TIMER_PROPERTIES_GenerateDataForWorkingFrequency+0xda>
 8002458:	68fb      	ldr	r3, [r7, #12]
 800245a:	691a      	ldr	r2, [r3, #16]
 800245c:	68fb      	ldr	r3, [r7, #12]
 800245e:	689b      	ldr	r3, [r3, #8]
 8002460:	3301      	adds	r3, #1
 8002462:	429a      	cmp	r2, r3
 8002464:	d9d2      	bls.n	800240c <TM_TIMER_PROPERTIES_GenerateDataForWorkingFrequency+0x80>
	/* Check for too low frequency */ 
	if (Timer_Data->Prescaler > (Timer_Data->MaxPrescaler + 1)) {
 8002466:	68fb      	ldr	r3, [r7, #12]
 8002468:	691a      	ldr	r2, [r3, #16]
 800246a:	68fb      	ldr	r3, [r7, #12]
 800246c:	689b      	ldr	r3, [r3, #8]
 800246e:	3301      	adds	r3, #1
 8002470:	429a      	cmp	r2, r3
 8002472:	d90a      	bls.n	800248a <TM_TIMER_PROPERTIES_GenerateDataForWorkingFrequency+0xfe>
		/* Reset values */
		Timer_Data->Prescaler = 0;
 8002474:	68fb      	ldr	r3, [r7, #12]
 8002476:	2200      	movs	r2, #0
 8002478:	611a      	str	r2, [r3, #16]
		Timer_Data->Period = 0;
 800247a:	68fb      	ldr	r3, [r7, #12]
 800247c:	2200      	movs	r2, #0
 800247e:	60da      	str	r2, [r3, #12]
		Timer_Data->Frequency = 0;
 8002480:	68fb      	ldr	r3, [r7, #12]
 8002482:	2200      	movs	r2, #0
 8002484:	615a      	str	r2, [r3, #20]
		
		/* Prescaler too high, frequency is too low for use */
		return TM_TIMER_PROPERTIES_Result_FrequencyTooLow;
 8002486:	2304      	movs	r3, #4
 8002488:	e007      	b.n	800249a <TM_TIMER_PROPERTIES_GenerateDataForWorkingFrequency+0x10e>
	}
	
	/* Set frequency */
	Timer_Data->Frequency = frequency;
 800248a:	e9d7 0100 	ldrd	r0, r1, [r7]
 800248e:	f7fe faed 	bl	8000a6c <__aeabi_d2uiz>
 8002492:	4602      	mov	r2, r0
 8002494:	68fb      	ldr	r3, [r7, #12]
 8002496:	615a      	str	r2, [r3, #20]
	
	/* Return OK */
	return TM_TIMER_PROPERTIES_Result_Ok;
 8002498:	2300      	movs	r3, #0
}
 800249a:	4618      	mov	r0, r3
 800249c:	3714      	adds	r7, #20
 800249e:	46bd      	mov	sp, r7
 80024a0:	bd90      	pop	{r4, r7, pc}
	...

080024a4 <TM_TIMER_PROPERTIES_EnableClock>:

TM_TIMER_PROPERTIES_Result_t TM_TIMER_PROPERTIES_EnableClock(TIM_TypeDef* TIMx) {
 80024a4:	b480      	push	{r7}
 80024a6:	b083      	sub	sp, #12
 80024a8:	af00      	add	r7, sp, #0
 80024aa:	6078      	str	r0, [r7, #4]
#ifdef TIM1
	if (TIMx == TIM1) {
 80024ac:	687b      	ldr	r3, [r7, #4]
 80024ae:	4a49      	ldr	r2, [pc, #292]	; (80025d4 <TM_TIMER_PROPERTIES_EnableClock+0x130>)
 80024b0:	4293      	cmp	r3, r2
 80024b2:	d105      	bne.n	80024c0 <TM_TIMER_PROPERTIES_EnableClock+0x1c>
		RCC->APB2ENR |= RCC_APB2ENR_TIM1EN;
 80024b4:	4a48      	ldr	r2, [pc, #288]	; (80025d8 <TM_TIMER_PROPERTIES_EnableClock+0x134>)
 80024b6:	4b48      	ldr	r3, [pc, #288]	; (80025d8 <TM_TIMER_PROPERTIES_EnableClock+0x134>)
 80024b8:	6c5b      	ldr	r3, [r3, #68]	; 0x44
 80024ba:	f043 0301 	orr.w	r3, r3, #1
 80024be:	6453      	str	r3, [r2, #68]	; 0x44
	}
#endif
#ifdef TIM2
	if (TIMx == TIM2) {
 80024c0:	687b      	ldr	r3, [r7, #4]
 80024c2:	f1b3 4f80 	cmp.w	r3, #1073741824	; 0x40000000
 80024c6:	d105      	bne.n	80024d4 <TM_TIMER_PROPERTIES_EnableClock+0x30>
		RCC->APB1ENR |= RCC_APB1ENR_TIM2EN;
 80024c8:	4a43      	ldr	r2, [pc, #268]	; (80025d8 <TM_TIMER_PROPERTIES_EnableClock+0x134>)
 80024ca:	4b43      	ldr	r3, [pc, #268]	; (80025d8 <TM_TIMER_PROPERTIES_EnableClock+0x134>)
 80024cc:	6c1b      	ldr	r3, [r3, #64]	; 0x40
 80024ce:	f043 0301 	orr.w	r3, r3, #1
 80024d2:	6413      	str	r3, [r2, #64]	; 0x40
	}
#endif
#ifdef TIM3
	if (TIMx == TIM3) {
 80024d4:	687b      	ldr	r3, [r7, #4]
 80024d6:	4a41      	ldr	r2, [pc, #260]	; (80025dc <TM_TIMER_PROPERTIES_EnableClock+0x138>)
 80024d8:	4293      	cmp	r3, r2
 80024da:	d105      	bne.n	80024e8 <TM_TIMER_PROPERTIES_EnableClock+0x44>
		RCC->APB1ENR |= RCC_APB1ENR_TIM3EN;
 80024dc:	4a3e      	ldr	r2, [pc, #248]	; (80025d8 <TM_TIMER_PROPERTIES_EnableClock+0x134>)
 80024de:	4b3e      	ldr	r3, [pc, #248]	; (80025d8 <TM_TIMER_PROPERTIES_EnableClock+0x134>)
 80024e0:	6c1b      	ldr	r3, [r3, #64]	; 0x40
 80024e2:	f043 0302 	orr.w	r3, r3, #2
 80024e6:	6413      	str	r3, [r2, #64]	; 0x40
	}
#endif
#ifdef TIM4
	if (TIMx == TIM4) {
 80024e8:	687b      	ldr	r3, [r7, #4]
 80024ea:	4a3d      	ldr	r2, [pc, #244]	; (80025e0 <TM_TIMER_PROPERTIES_EnableClock+0x13c>)
 80024ec:	4293      	cmp	r3, r2
 80024ee:	d105      	bne.n	80024fc <TM_TIMER_PROPERTIES_EnableClock+0x58>
		RCC->APB1ENR |= RCC_APB1ENR_TIM4EN;
 80024f0:	4a39      	ldr	r2, [pc, #228]	; (80025d8 <TM_TIMER_PROPERTIES_EnableClock+0x134>)
 80024f2:	4b39      	ldr	r3, [pc, #228]	; (80025d8 <TM_TIMER_PROPERTIES_EnableClock+0x134>)
 80024f4:	6c1b      	ldr	r3, [r3, #64]	; 0x40
 80024f6:	f043 0304 	orr.w	r3, r3, #4
 80024fa:	6413      	str	r3, [r2, #64]	; 0x40
	}
#endif
#ifdef TIM5
	if (TIMx == TIM5) {
 80024fc:	687b      	ldr	r3, [r7, #4]
 80024fe:	4a39      	ldr	r2, [pc, #228]	; (80025e4 <TM_TIMER_PROPERTIES_EnableClock+0x140>)
 8002500:	4293      	cmp	r3, r2
 8002502:	d105      	bne.n	8002510 <TM_TIMER_PROPERTIES_EnableClock+0x6c>
		RCC->APB1ENR |= RCC_APB1ENR_TIM5EN;
 8002504:	4a34      	ldr	r2, [pc, #208]	; (80025d8 <TM_TIMER_PROPERTIES_EnableClock+0x134>)
 8002506:	4b34      	ldr	r3, [pc, #208]	; (80025d8 <TM_TIMER_PROPERTIES_EnableClock+0x134>)
 8002508:	6c1b      	ldr	r3, [r3, #64]	; 0x40
 800250a:	f043 0308 	orr.w	r3, r3, #8
 800250e:	6413      	str	r3, [r2, #64]	; 0x40
	}
#endif
#ifdef TIM6
	if (TIMx == TIM6) {
 8002510:	687b      	ldr	r3, [r7, #4]
 8002512:	4a35      	ldr	r2, [pc, #212]	; (80025e8 <TM_TIMER_PROPERTIES_EnableClock+0x144>)
 8002514:	4293      	cmp	r3, r2
 8002516:	d105      	bne.n	8002524 <TM_TIMER_PROPERTIES_EnableClock+0x80>
		RCC->APB1ENR |= RCC_APB1ENR_TIM6EN;
 8002518:	4a2f      	ldr	r2, [pc, #188]	; (80025d8 <TM_TIMER_PROPERTIES_EnableClock+0x134>)
 800251a:	4b2f      	ldr	r3, [pc, #188]	; (80025d8 <TM_TIMER_PROPERTIES_EnableClock+0x134>)
 800251c:	6c1b      	ldr	r3, [r3, #64]	; 0x40
 800251e:	f043 0310 	orr.w	r3, r3, #16
 8002522:	6413      	str	r3, [r2, #64]	; 0x40
	}
#endif
#ifdef TIM7
	if (TIMx == TIM7) {
 8002524:	687b      	ldr	r3, [r7, #4]
 8002526:	4a31      	ldr	r2, [pc, #196]	; (80025ec <TM_TIMER_PROPERTIES_EnableClock+0x148>)
 8002528:	4293      	cmp	r3, r2
 800252a:	d105      	bne.n	8002538 <TM_TIMER_PROPERTIES_EnableClock+0x94>
		RCC->APB1ENR |= RCC_APB1ENR_TIM7EN;
 800252c:	4a2a      	ldr	r2, [pc, #168]	; (80025d8 <TM_TIMER_PROPERTIES_EnableClock+0x134>)
 800252e:	4b2a      	ldr	r3, [pc, #168]	; (80025d8 <TM_TIMER_PROPERTIES_EnableClock+0x134>)
 8002530:	6c1b      	ldr	r3, [r3, #64]	; 0x40
 8002532:	f043 0320 	orr.w	r3, r3, #32
 8002536:	6413      	str	r3, [r2, #64]	; 0x40
	}
#endif
#ifdef TIM8
	if (TIMx == TIM8) {
 8002538:	687b      	ldr	r3, [r7, #4]
 800253a:	4a2d      	ldr	r2, [pc, #180]	; (80025f0 <TM_TIMER_PROPERTIES_EnableClock+0x14c>)
 800253c:	4293      	cmp	r3, r2
 800253e:	d105      	bne.n	800254c <TM_TIMER_PROPERTIES_EnableClock+0xa8>
		RCC->APB2ENR |= RCC_APB2ENR_TIM8EN;
 8002540:	4a25      	ldr	r2, [pc, #148]	; (80025d8 <TM_TIMER_PROPERTIES_EnableClock+0x134>)
 8002542:	4b25      	ldr	r3, [pc, #148]	; (80025d8 <TM_TIMER_PROPERTIES_EnableClock+0x134>)
 8002544:	6c5b      	ldr	r3, [r3, #68]	; 0x44
 8002546:	f043 0302 	orr.w	r3, r3, #2
 800254a:	6453      	str	r3, [r2, #68]	; 0x44
	}
#endif
#ifdef TIM9
	if (TIMx == TIM9) {
 800254c:	687b      	ldr	r3, [r7, #4]
 800254e:	4a29      	ldr	r2, [pc, #164]	; (80025f4 <TM_TIMER_PROPERTIES_EnableClock+0x150>)
 8002550:	4293      	cmp	r3, r2
 8002552:	d105      	bne.n	8002560 <TM_TIMER_PROPERTIES_EnableClock+0xbc>
		RCC->APB2ENR |= RCC_APB2ENR_TIM9EN;
 8002554:	4a20      	ldr	r2, [pc, #128]	; (80025d8 <TM_TIMER_PROPERTIES_EnableClock+0x134>)
 8002556:	4b20      	ldr	r3, [pc, #128]	; (80025d8 <TM_TIMER_PROPERTIES_EnableClock+0x134>)
 8002558:	6c5b      	ldr	r3, [r3, #68]	; 0x44
 800255a:	f443 3380 	orr.w	r3, r3, #65536	; 0x10000
 800255e:	6453      	str	r3, [r2, #68]	; 0x44
	}
#endif
#ifdef TIM10
	if (TIMx == TIM10) {
 8002560:	687b      	ldr	r3, [r7, #4]
 8002562:	4a25      	ldr	r2, [pc, #148]	; (80025f8 <TM_TIMER_PROPERTIES_EnableClock+0x154>)
 8002564:	4293      	cmp	r3, r2
 8002566:	d105      	bne.n	8002574 <TM_TIMER_PROPERTIES_EnableClock+0xd0>
		RCC->APB2ENR |= RCC_APB2ENR_TIM10EN;
 8002568:	4a1b      	ldr	r2, [pc, #108]	; (80025d8 <TM_TIMER_PROPERTIES_EnableClock+0x134>)
 800256a:	4b1b      	ldr	r3, [pc, #108]	; (80025d8 <TM_TIMER_PROPERTIES_EnableClock+0x134>)
 800256c:	6c5b      	ldr	r3, [r3, #68]	; 0x44
 800256e:	f443 3300 	orr.w	r3, r3, #131072	; 0x20000
 8002572:	6453      	str	r3, [r2, #68]	; 0x44
	}
#endif
#ifdef TIM11
	if (TIMx == TIM11) {
 8002574:	687b      	ldr	r3, [r7, #4]
 8002576:	4a21      	ldr	r2, [pc, #132]	; (80025fc <TM_TIMER_PROPERTIES_EnableClock+0x158>)
 8002578:	4293      	cmp	r3, r2
 800257a:	d105      	bne.n	8002588 <TM_TIMER_PROPERTIES_EnableClock+0xe4>
		RCC->APB2ENR |= RCC_APB2ENR_TIM11EN;
 800257c:	4a16      	ldr	r2, [pc, #88]	; (80025d8 <TM_TIMER_PROPERTIES_EnableClock+0x134>)
 800257e:	4b16      	ldr	r3, [pc, #88]	; (80025d8 <TM_TIMER_PROPERTIES_EnableClock+0x134>)
 8002580:	6c5b      	ldr	r3, [r3, #68]	; 0x44
 8002582:	f443 2380 	orr.w	r3, r3, #262144	; 0x40000
 8002586:	6453      	str	r3, [r2, #68]	; 0x44
	}
#endif
#ifdef TIM12
	if (TIMx == TIM12) {
 8002588:	687b      	ldr	r3, [r7, #4]
 800258a:	4a1d      	ldr	r2, [pc, #116]	; (8002600 <TM_TIMER_PROPERTIES_EnableClock+0x15c>)
 800258c:	4293      	cmp	r3, r2
 800258e:	d105      	bne.n	800259c <TM_TIMER_PROPERTIES_EnableClock+0xf8>
		RCC->APB1ENR |= RCC_APB1ENR_TIM12EN;
 8002590:	4a11      	ldr	r2, [pc, #68]	; (80025d8 <TM_TIMER_PROPERTIES_EnableClock+0x134>)
 8002592:	4b11      	ldr	r3, [pc, #68]	; (80025d8 <TM_TIMER_PROPERTIES_EnableClock+0x134>)
 8002594:	6c1b      	ldr	r3, [r3, #64]	; 0x40
 8002596:	f043 0340 	orr.w	r3, r3, #64	; 0x40
 800259a:	6413      	str	r3, [r2, #64]	; 0x40
	}
#endif
#ifdef TIM13
	if (TIMx == TIM13) {
 800259c:	687b      	ldr	r3, [r7, #4]
 800259e:	4a19      	ldr	r2, [pc, #100]	; (8002604 <TM_TIMER_PROPERTIES_EnableClock+0x160>)
 80025a0:	4293      	cmp	r3, r2
 80025a2:	d105      	bne.n	80025b0 <TM_TIMER_PROPERTIES_EnableClock+0x10c>
		RCC->APB1ENR |= RCC_APB1ENR_TIM13EN;
 80025a4:	4a0c      	ldr	r2, [pc, #48]	; (80025d8 <TM_TIMER_PROPERTIES_EnableClock+0x134>)
 80025a6:	4b0c      	ldr	r3, [pc, #48]	; (80025d8 <TM_TIMER_PROPERTIES_EnableClock+0x134>)
 80025a8:	6c1b      	ldr	r3, [r3, #64]	; 0x40
 80025aa:	f043 0380 	orr.w	r3, r3, #128	; 0x80
 80025ae:	6413      	str	r3, [r2, #64]	; 0x40
	}
#endif
#ifdef TIM14
	if (TIMx == TIM14) {
 80025b0:	687b      	ldr	r3, [r7, #4]
 80025b2:	4a15      	ldr	r2, [pc, #84]	; (8002608 <TM_TIMER_PROPERTIES_EnableClock+0x164>)
 80025b4:	4293      	cmp	r3, r2
 80025b6:	d105      	bne.n	80025c4 <TM_TIMER_PROPERTIES_EnableClock+0x120>
		RCC->APB1ENR |= RCC_APB1ENR_TIM14EN;
 80025b8:	4a07      	ldr	r2, [pc, #28]	; (80025d8 <TM_TIMER_PROPERTIES_EnableClock+0x134>)
 80025ba:	4b07      	ldr	r3, [pc, #28]	; (80025d8 <TM_TIMER_PROPERTIES_EnableClock+0x134>)
 80025bc:	6c1b      	ldr	r3, [r3, #64]	; 0x40
 80025be:	f443 7380 	orr.w	r3, r3, #256	; 0x100
 80025c2:	6413      	str	r3, [r2, #64]	; 0x40
	}
#endif
	
	/* Return OK */
	return TM_TIMER_PROPERTIES_Result_Ok;
 80025c4:	2300      	movs	r3, #0
}
 80025c6:	4618      	mov	r0, r3
 80025c8:	370c      	adds	r7, #12
 80025ca:	46bd      	mov	sp, r7
 80025cc:	f85d 7b04 	ldr.w	r7, [sp], #4
 80025d0:	4770      	bx	lr
 80025d2:	bf00      	nop
 80025d4:	40010000 	.word	0x40010000
 80025d8:	40023800 	.word	0x40023800
 80025dc:	40000400 	.word	0x40000400
 80025e0:	40000800 	.word	0x40000800
 80025e4:	40000c00 	.word	0x40000c00
 80025e8:	40001000 	.word	0x40001000
 80025ec:	40001400 	.word	0x40001400
 80025f0:	40010400 	.word	0x40010400
 80025f4:	40014000 	.word	0x40014000
 80025f8:	40014400 	.word	0x40014400
 80025fc:	40014800 	.word	0x40014800
 8002600:	40001800 	.word	0x40001800
 8002604:	40001c00 	.word	0x40001c00
 8002608:	40002000 	.word	0x40002000

0800260c <TM_USB_VCP_Init>:
USB_OTG_CORE_HANDLE	USB_OTG_dev;

/* USB VCP Internal receive buffer */
extern uint8_t TM_INT_USB_VCP_ReceiveBuffer[USB_VCP_RECEIVE_BUFFER_LENGTH];

TM_USB_VCP_Result TM_USB_VCP_Init(void) {
 800260c:	b580      	push	{r7, lr}
 800260e:	b082      	sub	sp, #8
 8002610:	af02      	add	r7, sp, #8
	/* Initialize USB */
	USBD_Init(	&USB_OTG_dev,
 8002612:	4b0c      	ldr	r3, [pc, #48]	; (8002644 <TM_USB_VCP_Init+0x38>)
 8002614:	9300      	str	r3, [sp, #0]
 8002616:	4b0c      	ldr	r3, [pc, #48]	; (8002648 <TM_USB_VCP_Init+0x3c>)
 8002618:	4a0c      	ldr	r2, [pc, #48]	; (800264c <TM_USB_VCP_Init+0x40>)
 800261a:	2101      	movs	r1, #1
 800261c:	480c      	ldr	r0, [pc, #48]	; (8002650 <TM_USB_VCP_Init+0x44>)
 800261e:	f002 fcb2 	bl	8004f86 <USBD_Init>
				&USR_desc, 
				&USBD_CDC_cb, 
				&USR_cb);
	
	/* Reset buffer counters */
	tm_int_usb_vcp_buf_in = 0;
 8002622:	4b0c      	ldr	r3, [pc, #48]	; (8002654 <TM_USB_VCP_Init+0x48>)
 8002624:	2200      	movs	r2, #0
 8002626:	601a      	str	r2, [r3, #0]
	tm_int_usb_vcp_buf_out = 0;
 8002628:	4b0b      	ldr	r3, [pc, #44]	; (8002658 <TM_USB_VCP_Init+0x4c>)
 800262a:	2200      	movs	r2, #0
 800262c:	601a      	str	r2, [r3, #0]
	tm_int_usb_vcp_buf_num = 0;
 800262e:	4b0b      	ldr	r3, [pc, #44]	; (800265c <TM_USB_VCP_Init+0x50>)
 8002630:	2200      	movs	r2, #0
 8002632:	601a      	str	r2, [r3, #0]
	
	/* Initialized */
	TM_USB_VCP_INT_Init = 1;
 8002634:	4b0a      	ldr	r3, [pc, #40]	; (8002660 <TM_USB_VCP_Init+0x54>)
 8002636:	2201      	movs	r2, #1
 8002638:	701a      	strb	r2, [r3, #0]
	
	/* Return OK */
	return TM_USB_VCP_OK;
 800263a:	2300      	movs	r3, #0
}
 800263c:	4618      	mov	r0, r3
 800263e:	46bd      	mov	sp, r7
 8002640:	bd80      	pop	{r7, pc}
 8002642:	bf00      	nop
 8002644:	20007e08 	.word	0x20007e08
 8002648:	20007d58 	.word	0x20007d58
 800264c:	20007dd0 	.word	0x20007dd0
 8002650:	20007f48 	.word	0x20007f48
 8002654:	20007ebc 	.word	0x20007ebc
 8002658:	20007ec4 	.word	0x20007ec4
 800265c:	20007ec0 	.word	0x20007ec0
 8002660:	20007e86 	.word	0x20007e86

08002664 <TM_USB_VCP_Getc>:
	
	/* Character is not in buffer */
	return 0;
}

TM_USB_VCP_Result TM_USB_VCP_Getc(uint8_t* c) {
 8002664:	b480      	push	{r7}
 8002666:	b083      	sub	sp, #12
 8002668:	af00      	add	r7, sp, #0
 800266a:	6078      	str	r0, [r7, #4]
	/* Any data in buffer */
	if (tm_int_usb_vcp_buf_num > 0) {
 800266c:	4b15      	ldr	r3, [pc, #84]	; (80026c4 <TM_USB_VCP_Getc+0x60>)
 800266e:	681b      	ldr	r3, [r3, #0]
 8002670:	2b00      	cmp	r3, #0
 8002672:	d01d      	beq.n	80026b0 <TM_USB_VCP_Getc+0x4c>
		/* Check overflow */
		if (tm_int_usb_vcp_buf_out >= USB_VCP_RECEIVE_BUFFER_LENGTH) {
 8002674:	4b14      	ldr	r3, [pc, #80]	; (80026c8 <TM_USB_VCP_Getc+0x64>)
 8002676:	681b      	ldr	r3, [r3, #0]
 8002678:	2b7f      	cmp	r3, #127	; 0x7f
 800267a:	d902      	bls.n	8002682 <TM_USB_VCP_Getc+0x1e>
			tm_int_usb_vcp_buf_out = 0;
 800267c:	4b12      	ldr	r3, [pc, #72]	; (80026c8 <TM_USB_VCP_Getc+0x64>)
 800267e:	2200      	movs	r2, #0
 8002680:	601a      	str	r2, [r3, #0]
		}
		*c = TM_INT_USB_VCP_ReceiveBuffer[tm_int_usb_vcp_buf_out];
 8002682:	4b11      	ldr	r3, [pc, #68]	; (80026c8 <TM_USB_VCP_Getc+0x64>)
 8002684:	681b      	ldr	r3, [r3, #0]
 8002686:	4a11      	ldr	r2, [pc, #68]	; (80026cc <TM_USB_VCP_Getc+0x68>)
 8002688:	5cd2      	ldrb	r2, [r2, r3]
 800268a:	687b      	ldr	r3, [r7, #4]
 800268c:	701a      	strb	r2, [r3, #0]
		TM_INT_USB_VCP_ReceiveBuffer[tm_int_usb_vcp_buf_out] = 0;
 800268e:	4b0e      	ldr	r3, [pc, #56]	; (80026c8 <TM_USB_VCP_Getc+0x64>)
 8002690:	681b      	ldr	r3, [r3, #0]
 8002692:	4a0e      	ldr	r2, [pc, #56]	; (80026cc <TM_USB_VCP_Getc+0x68>)
 8002694:	2100      	movs	r1, #0
 8002696:	54d1      	strb	r1, [r2, r3]
		
		/* Set counters */
		tm_int_usb_vcp_buf_out++;
 8002698:	4b0b      	ldr	r3, [pc, #44]	; (80026c8 <TM_USB_VCP_Getc+0x64>)
 800269a:	681b      	ldr	r3, [r3, #0]
 800269c:	3301      	adds	r3, #1
 800269e:	4a0a      	ldr	r2, [pc, #40]	; (80026c8 <TM_USB_VCP_Getc+0x64>)
 80026a0:	6013      	str	r3, [r2, #0]
		tm_int_usb_vcp_buf_num--;
 80026a2:	4b08      	ldr	r3, [pc, #32]	; (80026c4 <TM_USB_VCP_Getc+0x60>)
 80026a4:	681b      	ldr	r3, [r3, #0]
 80026a6:	3b01      	subs	r3, #1
 80026a8:	4a06      	ldr	r2, [pc, #24]	; (80026c4 <TM_USB_VCP_Getc+0x60>)
 80026aa:	6013      	str	r3, [r2, #0]
		
		/* Data OK */
		return TM_USB_VCP_DATA_OK;
 80026ac:	2303      	movs	r3, #3
 80026ae:	e003      	b.n	80026b8 <TM_USB_VCP_Getc+0x54>
	}
	*c = 0;
 80026b0:	687b      	ldr	r3, [r7, #4]
 80026b2:	2200      	movs	r2, #0
 80026b4:	701a      	strb	r2, [r3, #0]
	/* Data not ready */
	return TM_USB_VCP_DATA_EMPTY;
 80026b6:	2304      	movs	r3, #4
}
 80026b8:	4618      	mov	r0, r3
 80026ba:	370c      	adds	r7, #12
 80026bc:	46bd      	mov	sp, r7
 80026be:	f85d 7b04 	ldr.w	r7, [sp], #4
 80026c2:	4770      	bx	lr
 80026c4:	20007ec0 	.word	0x20007ec0
 80026c8:	20007ec4 	.word	0x20007ec4
 80026cc:	20007ec8 	.word	0x20007ec8

080026d0 <TM_USB_VCP_Putc>:

TM_USB_VCP_Result TM_USB_VCP_Putc(volatile char c) {
 80026d0:	b580      	push	{r7, lr}
 80026d2:	b084      	sub	sp, #16
 80026d4:	af00      	add	r7, sp, #0
 80026d6:	4603      	mov	r3, r0
 80026d8:	71fb      	strb	r3, [r7, #7]
	uint8_t ce = (uint8_t)c;
 80026da:	79fb      	ldrb	r3, [r7, #7]
 80026dc:	b2db      	uxtb	r3, r3
 80026de:	73fb      	strb	r3, [r7, #15]
	
	/* Send data over USB */
	VCP_DataTx(&ce, 1);
 80026e0:	f107 030f 	add.w	r3, r7, #15
 80026e4:	2101      	movs	r1, #1
 80026e6:	4618      	mov	r0, r3
 80026e8:	f002 fc02 	bl	8004ef0 <VCP_DataTx>
	
	/* Return OK */
	return TM_USB_VCP_OK;
 80026ec:	2300      	movs	r3, #0
}
 80026ee:	4618      	mov	r0, r3
 80026f0:	3710      	adds	r7, #16
 80026f2:	46bd      	mov	sp, r7
 80026f4:	bd80      	pop	{r7, pc}

080026f6 <TM_USB_VCP_Puts>:

TM_USB_VCP_Result TM_USB_VCP_Puts(char* str) {
 80026f6:	b580      	push	{r7, lr}
 80026f8:	b082      	sub	sp, #8
 80026fa:	af00      	add	r7, sp, #0
 80026fc:	6078      	str	r0, [r7, #4]
	while (*str) {
 80026fe:	e006      	b.n	800270e <TM_USB_VCP_Puts+0x18>
		TM_USB_VCP_Putc(*str++);
 8002700:	687b      	ldr	r3, [r7, #4]
 8002702:	1c5a      	adds	r2, r3, #1
 8002704:	607a      	str	r2, [r7, #4]
 8002706:	781b      	ldrb	r3, [r3, #0]
 8002708:	4618      	mov	r0, r3
 800270a:	f7ff ffe1 	bl	80026d0 <TM_USB_VCP_Putc>
	while (*str) {
 800270e:	687b      	ldr	r3, [r7, #4]
 8002710:	781b      	ldrb	r3, [r3, #0]
 8002712:	2b00      	cmp	r3, #0
 8002714:	d1f4      	bne.n	8002700 <TM_USB_VCP_Puts+0xa>
	}
	
	/* Return OK */
	return TM_USB_VCP_OK;
 8002716:	2300      	movs	r3, #0
}
 8002718:	4618      	mov	r0, r3
 800271a:	3708      	adds	r7, #8
 800271c:	46bd      	mov	sp, r7
 800271e:	bd80      	pop	{r7, pc}

08002720 <TM_USB_VCP_Send>:

TM_USB_VCP_Result TM_USB_VCP_Send(uint8_t* DataArray, uint32_t Length) {
 8002720:	b580      	push	{r7, lr}
 8002722:	b082      	sub	sp, #8
 8002724:	af00      	add	r7, sp, #0
 8002726:	6078      	str	r0, [r7, #4]
 8002728:	6039      	str	r1, [r7, #0]
	/* Send array */
	VCP_DataTx(DataArray, Length);
 800272a:	6839      	ldr	r1, [r7, #0]
 800272c:	6878      	ldr	r0, [r7, #4]
 800272e:	f002 fbdf 	bl	8004ef0 <VCP_DataTx>
	
	/* Return OK */
	return TM_USB_VCP_OK;
 8002732:	2300      	movs	r3, #0
}
 8002734:	4618      	mov	r0, r3
 8002736:	3708      	adds	r7, #8
 8002738:	46bd      	mov	sp, r7
 800273a:	bd80      	pop	{r7, pc}

0800273c <TM_INT_USB_VCP_AddReceived>:

	/* Return number of characters in string */
	return i;
}

TM_USB_VCP_Result TM_INT_USB_VCP_AddReceived(uint8_t c) {
 800273c:	b480      	push	{r7}
 800273e:	b083      	sub	sp, #12
 8002740:	af00      	add	r7, sp, #0
 8002742:	4603      	mov	r3, r0
 8002744:	71fb      	strb	r3, [r7, #7]
	/* Still available data in buffer */
	if (tm_int_usb_vcp_buf_num < USB_VCP_RECEIVE_BUFFER_LENGTH) {
 8002746:	4b11      	ldr	r3, [pc, #68]	; (800278c <TM_INT_USB_VCP_AddReceived+0x50>)
 8002748:	681b      	ldr	r3, [r3, #0]
 800274a:	2b7f      	cmp	r3, #127	; 0x7f
 800274c:	d817      	bhi.n	800277e <TM_INT_USB_VCP_AddReceived+0x42>
		/* Check for overflow */
		if (tm_int_usb_vcp_buf_in >= USB_VCP_RECEIVE_BUFFER_LENGTH) {
 800274e:	4b10      	ldr	r3, [pc, #64]	; (8002790 <TM_INT_USB_VCP_AddReceived+0x54>)
 8002750:	681b      	ldr	r3, [r3, #0]
 8002752:	2b7f      	cmp	r3, #127	; 0x7f
 8002754:	d902      	bls.n	800275c <TM_INT_USB_VCP_AddReceived+0x20>
			tm_int_usb_vcp_buf_in = 0;
 8002756:	4b0e      	ldr	r3, [pc, #56]	; (8002790 <TM_INT_USB_VCP_AddReceived+0x54>)
 8002758:	2200      	movs	r2, #0
 800275a:	601a      	str	r2, [r3, #0]
		}
		/* Add character to buffer */
		TM_INT_USB_VCP_ReceiveBuffer[tm_int_usb_vcp_buf_in] = c;
 800275c:	4b0c      	ldr	r3, [pc, #48]	; (8002790 <TM_INT_USB_VCP_AddReceived+0x54>)
 800275e:	681b      	ldr	r3, [r3, #0]
 8002760:	490c      	ldr	r1, [pc, #48]	; (8002794 <TM_INT_USB_VCP_AddReceived+0x58>)
 8002762:	79fa      	ldrb	r2, [r7, #7]
 8002764:	54ca      	strb	r2, [r1, r3]
		/* Increase counters */
		tm_int_usb_vcp_buf_in++;
 8002766:	4b0a      	ldr	r3, [pc, #40]	; (8002790 <TM_INT_USB_VCP_AddReceived+0x54>)
 8002768:	681b      	ldr	r3, [r3, #0]
 800276a:	3301      	adds	r3, #1
 800276c:	4a08      	ldr	r2, [pc, #32]	; (8002790 <TM_INT_USB_VCP_AddReceived+0x54>)
 800276e:	6013      	str	r3, [r2, #0]
		tm_int_usb_vcp_buf_num++;
 8002770:	4b06      	ldr	r3, [pc, #24]	; (800278c <TM_INT_USB_VCP_AddReceived+0x50>)
 8002772:	681b      	ldr	r3, [r3, #0]
 8002774:	3301      	adds	r3, #1
 8002776:	4a05      	ldr	r2, [pc, #20]	; (800278c <TM_INT_USB_VCP_AddReceived+0x50>)
 8002778:	6013      	str	r3, [r2, #0]
		
		/* Return OK */
		return TM_USB_VCP_OK;
 800277a:	2300      	movs	r3, #0
 800277c:	e000      	b.n	8002780 <TM_INT_USB_VCP_AddReceived+0x44>
	}
	
	/* Return Buffer full */
	return TM_USB_VCP_RECEIVE_BUFFER_FULL;
 800277e:	2302      	movs	r3, #2
}
 8002780:	4618      	mov	r0, r3
 8002782:	370c      	adds	r7, #12
 8002784:	46bd      	mov	sp, r7
 8002786:	f85d 7b04 	ldr.w	r7, [sp], #4
 800278a:	4770      	bx	lr
 800278c:	20007ec0 	.word	0x20007ec0
 8002790:	20007ebc 	.word	0x20007ebc
 8002794:	20007ec8 	.word	0x20007ec8

08002798 <USB_OTG_BSP_Init>:
*         Initilizes BSP configurations
* @param  None
* @retval None
*/

void USB_OTG_BSP_Init(USB_OTG_CORE_HANDLE *pdev) {
 8002798:	b580      	push	{r7, lr}
 800279a:	b084      	sub	sp, #16
 800279c:	af00      	add	r7, sp, #0
 800279e:	6078      	str	r0, [r7, #4]
  GPIO_InitTypeDef GPIO_InitStructure;   
#ifdef USE_USB_OTG_FS
	RCC_AHB1PeriphClockCmd( RCC_AHB1Periph_GPIOA , ENABLE);  
 80027a0:	2101      	movs	r1, #1
 80027a2:	2001      	movs	r0, #1
 80027a4:	f7fe ff20 	bl	80015e8 <RCC_AHB1PeriphClockCmd>
	GPIO_InitStructure.GPIO_Pin = 	GPIO_Pin_11 | 	// OTG FS Data -
 80027a8:	f44f 53c0 	mov.w	r3, #6144	; 0x1800
 80027ac:	60bb      	str	r3, [r7, #8]
									GPIO_Pin_12;	// OTG FS Data +

	GPIO_InitStructure.GPIO_Speed = GPIO_Speed_100MHz;
 80027ae:	2303      	movs	r3, #3
 80027b0:	737b      	strb	r3, [r7, #13]
	GPIO_InitStructure.GPIO_Mode = GPIO_Mode_AF;
 80027b2:	2302      	movs	r3, #2
 80027b4:	733b      	strb	r3, [r7, #12]
	GPIO_InitStructure.GPIO_OType = GPIO_OType_PP;
 80027b6:	2300      	movs	r3, #0
 80027b8:	73bb      	strb	r3, [r7, #14]
	GPIO_InitStructure.GPIO_PuPd = GPIO_PuPd_NOPULL ;
 80027ba:	2300      	movs	r3, #0
 80027bc:	73fb      	strb	r3, [r7, #15]
	GPIO_Init(GPIOA, &GPIO_InitStructure);  
 80027be:	f107 0308 	add.w	r3, r7, #8
 80027c2:	4619      	mov	r1, r3
 80027c4:	481f      	ldr	r0, [pc, #124]	; (8002844 <USB_OTG_BSP_Init+0xac>)
 80027c6:	f7fe fd8f 	bl	80012e8 <GPIO_Init>

	GPIO_PinAFConfig(GPIOA, GPIO_PinSource11, GPIO_AF_OTG1_FS); 
 80027ca:	220a      	movs	r2, #10
 80027cc:	210b      	movs	r1, #11
 80027ce:	481d      	ldr	r0, [pc, #116]	; (8002844 <USB_OTG_BSP_Init+0xac>)
 80027d0:	f7fe fe18 	bl	8001404 <GPIO_PinAFConfig>
	GPIO_PinAFConfig(GPIOA, GPIO_PinSource12, GPIO_AF_OTG1_FS);
 80027d4:	220a      	movs	r2, #10
 80027d6:	210c      	movs	r1, #12
 80027d8:	481a      	ldr	r0, [pc, #104]	; (8002844 <USB_OTG_BSP_Init+0xac>)
 80027da:	f7fe fe13 	bl	8001404 <GPIO_PinAFConfig>
#ifndef USB_VCP_DISABLE_VBUS
	// Configure  VBUS Pin
	GPIO_InitStructure.GPIO_Pin = GPIO_Pin_9;
 80027de:	f44f 7300 	mov.w	r3, #512	; 0x200
 80027e2:	60bb      	str	r3, [r7, #8]
	GPIO_InitStructure.GPIO_Speed = GPIO_Speed_100MHz;
 80027e4:	2303      	movs	r3, #3
 80027e6:	737b      	strb	r3, [r7, #13]
	GPIO_InitStructure.GPIO_Mode = GPIO_Mode_IN;
 80027e8:	2300      	movs	r3, #0
 80027ea:	733b      	strb	r3, [r7, #12]
	GPIO_InitStructure.GPIO_OType = GPIO_OType_OD;
 80027ec:	2301      	movs	r3, #1
 80027ee:	73bb      	strb	r3, [r7, #14]
	GPIO_InitStructure.GPIO_PuPd = GPIO_PuPd_NOPULL ;
 80027f0:	2300      	movs	r3, #0
 80027f2:	73fb      	strb	r3, [r7, #15]
	GPIO_Init(GPIOA, &GPIO_InitStructure);    
 80027f4:	f107 0308 	add.w	r3, r7, #8
 80027f8:	4619      	mov	r1, r3
 80027fa:	4812      	ldr	r0, [pc, #72]	; (8002844 <USB_OTG_BSP_Init+0xac>)
 80027fc:	f7fe fd74 	bl	80012e8 <GPIO_Init>
#endif

#ifndef USB_VCP_DISABLE_ID
	// Configure ID pin
	GPIO_InitStructure.GPIO_Pin = GPIO_Pin_10;
 8002800:	f44f 6380 	mov.w	r3, #1024	; 0x400
 8002804:	60bb      	str	r3, [r7, #8]
	GPIO_InitStructure.GPIO_OType = GPIO_OType_OD;
 8002806:	2301      	movs	r3, #1
 8002808:	73bb      	strb	r3, [r7, #14]
	GPIO_InitStructure.GPIO_PuPd = GPIO_PuPd_UP ;  
 800280a:	2301      	movs	r3, #1
 800280c:	73fb      	strb	r3, [r7, #15]
	GPIO_InitStructure.GPIO_Speed = GPIO_Speed_100MHz;
 800280e:	2303      	movs	r3, #3
 8002810:	737b      	strb	r3, [r7, #13]
	GPIO_Init(GPIOA, &GPIO_InitStructure);  
 8002812:	f107 0308 	add.w	r3, r7, #8
 8002816:	4619      	mov	r1, r3
 8002818:	480a      	ldr	r0, [pc, #40]	; (8002844 <USB_OTG_BSP_Init+0xac>)
 800281a:	f7fe fd65 	bl	80012e8 <GPIO_Init>
	GPIO_PinAFConfig(GPIOA, GPIO_PinSource10, GPIO_AF_OTG1_FS); 
 800281e:	220a      	movs	r2, #10
 8002820:	210a      	movs	r1, #10
 8002822:	4808      	ldr	r0, [pc, #32]	; (8002844 <USB_OTG_BSP_Init+0xac>)
 8002824:	f7fe fdee 	bl	8001404 <GPIO_PinAFConfig>
#endif

	RCC_APB2PeriphClockCmd(RCC_APB2Periph_SYSCFG, ENABLE);
 8002828:	2101      	movs	r1, #1
 800282a:	f44f 4080 	mov.w	r0, #16384	; 0x4000
 800282e:	f7fe ff1b 	bl	8001668 <RCC_APB2PeriphClockCmd>
	RCC_AHB2PeriphClockCmd(RCC_AHB2Periph_OTG_FS, ENABLE); 
 8002832:	2101      	movs	r1, #1
 8002834:	2080      	movs	r0, #128	; 0x80
 8002836:	f7fe fef7 	bl	8001628 <RCC_AHB2PeriphClockCmd>

	RCC_APB2PeriphClockCmd(RCC_APB2Periph_SYSCFG, ENABLE);
	RCC_AHB1PeriphClockCmd(RCC_AHB1Periph_OTG_HS, ENABLE);

#endif
}
 800283a:	bf00      	nop
 800283c:	3710      	adds	r7, #16
 800283e:	46bd      	mov	sp, r7
 8002840:	bd80      	pop	{r7, pc}
 8002842:	bf00      	nop
 8002844:	40020000 	.word	0x40020000

08002848 <USB_OTG_BSP_EnableInterrupt>:
* @brief  USB_OTG_BSP_EnableInterrupt
*         Enabele USB Global interrupt
* @param  None
* @retval None
*/
void USB_OTG_BSP_EnableInterrupt(USB_OTG_CORE_HANDLE *pdev) {
 8002848:	b580      	push	{r7, lr}
 800284a:	b084      	sub	sp, #16
 800284c:	af00      	add	r7, sp, #0
 800284e:	6078      	str	r0, [r7, #4]
	NVIC_InitTypeDef NVIC_InitStructure;
#ifdef USE_USB_OTG_FS
	NVIC_PriorityGroupConfig(NVIC_PriorityGroup_1);
 8002850:	f44f 60c0 	mov.w	r0, #1536	; 0x600
 8002854:	f7fe f92a 	bl	8000aac <NVIC_PriorityGroupConfig>
	NVIC_InitStructure.NVIC_IRQChannel = OTG_FS_IRQn;  
 8002858:	2343      	movs	r3, #67	; 0x43
 800285a:	733b      	strb	r3, [r7, #12]
	NVIC_InitStructure.NVIC_IRQChannelPreemptionPriority = USB_VCP_NVIC_PRIORITY;
 800285c:	2301      	movs	r3, #1
 800285e:	737b      	strb	r3, [r7, #13]
	NVIC_InitStructure.NVIC_IRQChannelSubPriority = USB_VCP_NVIC_SUBPRIORITY + 2;
 8002860:	2303      	movs	r3, #3
 8002862:	73bb      	strb	r3, [r7, #14]
	NVIC_InitStructure.NVIC_IRQChannelCmd = ENABLE;
 8002864:	2301      	movs	r3, #1
 8002866:	73fb      	strb	r3, [r7, #15]
	NVIC_Init(&NVIC_InitStructure);
 8002868:	f107 030c 	add.w	r3, r7, #12
 800286c:	4618      	mov	r0, r3
 800286e:	f7fe f931 	bl	8000ad4 <NVIC_Init>
	NVIC_InitStructure.NVIC_IRQChannelSubPriority = USB_VCP_NVIC_SUBPRIORITY;
	NVIC_InitStructure.NVIC_IRQChannelCmd = ENABLE;
	NVIC_Init(&NVIC_InitStructure); 

#endif
}
 8002872:	bf00      	nop
 8002874:	3710      	adds	r7, #16
 8002876:	46bd      	mov	sp, r7
 8002878:	bd80      	pop	{r7, pc}
	...

0800287c <USB_OTG_BSP_uDelay>:
* @brief  USB_OTG_BSP_uDelay
*         This function provides delay time in micro sec
* @param  usec : Value of delay required in micro sec
* @retval None
*/
void USB_OTG_BSP_uDelay (const uint32_t usec) {
 800287c:	b480      	push	{r7}
 800287e:	b085      	sub	sp, #20
 8002880:	af00      	add	r7, sp, #0
 8002882:	6078      	str	r0, [r7, #4]
	uint32_t count = 0;
 8002884:	2300      	movs	r3, #0
 8002886:	60fb      	str	r3, [r7, #12]
	const uint32_t utime = (120 * usec / 7);
 8002888:	687a      	ldr	r2, [r7, #4]
 800288a:	4613      	mov	r3, r2
 800288c:	011b      	lsls	r3, r3, #4
 800288e:	1a9b      	subs	r3, r3, r2
 8002890:	00db      	lsls	r3, r3, #3
 8002892:	461a      	mov	r2, r3
 8002894:	4b0a      	ldr	r3, [pc, #40]	; (80028c0 <USB_OTG_BSP_uDelay+0x44>)
 8002896:	fba3 1302 	umull	r1, r3, r3, r2
 800289a:	1ad2      	subs	r2, r2, r3
 800289c:	0852      	lsrs	r2, r2, #1
 800289e:	4413      	add	r3, r2
 80028a0:	089b      	lsrs	r3, r3, #2
 80028a2:	60bb      	str	r3, [r7, #8]
	
	do
	{
		if ( ++count > utime ) {
 80028a4:	68fb      	ldr	r3, [r7, #12]
 80028a6:	3301      	adds	r3, #1
 80028a8:	60fb      	str	r3, [r7, #12]
 80028aa:	68fa      	ldr	r2, [r7, #12]
 80028ac:	68bb      	ldr	r3, [r7, #8]
 80028ae:	429a      	cmp	r2, r3
 80028b0:	d800      	bhi.n	80028b4 <USB_OTG_BSP_uDelay+0x38>
 80028b2:	e7f7      	b.n	80028a4 <USB_OTG_BSP_uDelay+0x28>
			return ;
 80028b4:	bf00      	nop
		}
	} while (1);
}
 80028b6:	3714      	adds	r7, #20
 80028b8:	46bd      	mov	sp, r7
 80028ba:	f85d 7b04 	ldr.w	r7, [sp], #4
 80028be:	4770      	bx	lr
 80028c0:	24924925 	.word	0x24924925

080028c4 <USB_OTG_BSP_mDelay>:
* @brief  USB_OTG_BSP_mDelay
*          This function provides delay time in milli sec
* @param  msec : Value of delay required in milli sec
* @retval None
*/
void USB_OTG_BSP_mDelay (const uint32_t msec) {
 80028c4:	b580      	push	{r7, lr}
 80028c6:	b082      	sub	sp, #8
 80028c8:	af00      	add	r7, sp, #0
 80028ca:	6078      	str	r0, [r7, #4]
	USB_OTG_BSP_uDelay(msec * 1000);   
 80028cc:	687b      	ldr	r3, [r7, #4]
 80028ce:	f44f 727a 	mov.w	r2, #1000	; 0x3e8
 80028d2:	fb02 f303 	mul.w	r3, r2, r3
 80028d6:	4618      	mov	r0, r3
 80028d8:	f7ff ffd0 	bl	800287c <USB_OTG_BSP_uDelay>
}
 80028dc:	bf00      	nop
 80028de:	3708      	adds	r7, #8
 80028e0:	46bd      	mov	sp, r7
 80028e2:	bd80      	pop	{r7, pc}

080028e4 <OTG_FS_WKUP_IRQHandler>:


#ifdef USE_USB_OTG_FS

void OTG_FS_WKUP_IRQHandler(void) {
 80028e4:	b580      	push	{r7, lr}
 80028e6:	af00      	add	r7, sp, #0
	EXTI_ClearITPendingBit(EXTI_Line18);
 80028e8:	f44f 2080 	mov.w	r0, #262144	; 0x40000
 80028ec:	f7fe fcec 	bl	80012c8 <EXTI_ClearITPendingBit>
}
 80028f0:	bf00      	nop
 80028f2:	bd80      	pop	{r7, pc}

080028f4 <OTG_FS_IRQHandler>:

void OTG_FS_IRQHandler(void) {
 80028f4:	b580      	push	{r7, lr}
 80028f6:	af00      	add	r7, sp, #0
	USBD_OTG_ISR_Handler (&USB_OTG_dev);
 80028f8:	4802      	ldr	r0, [pc, #8]	; (8002904 <OTG_FS_IRQHandler+0x10>)
 80028fa:	f001 fb35 	bl	8003f68 <USBD_OTG_ISR_Handler>
}
 80028fe:	bf00      	nop
 8002900:	bd80      	pop	{r7, pc}
 8002902:	bf00      	nop
 8002904:	20007f48 	.word	0x20007f48

08002908 <USB_OTG_EnableCommonInt>:
*         Initializes the commmon interrupts, used in both device and modes
* @param  pdev : Selected device
* @retval None
*/
static void USB_OTG_EnableCommonInt(USB_OTG_CORE_HANDLE *pdev)
{
 8002908:	b480      	push	{r7}
 800290a:	b085      	sub	sp, #20
 800290c:	af00      	add	r7, sp, #0
 800290e:	6078      	str	r0, [r7, #4]
  USB_OTG_GINTMSK_TypeDef  int_mask;
  
  int_mask.d32 = 0;
 8002910:	2300      	movs	r3, #0
 8002912:	60fb      	str	r3, [r7, #12]
  /* Clear any pending USB_OTG Interrupts */
#ifndef USE_OTG_MODE
  USB_OTG_WRITE_REG32( &pdev->regs.GREGS->GOTGINT, 0xFFFFFFFF);
 8002914:	687b      	ldr	r3, [r7, #4]
 8002916:	68db      	ldr	r3, [r3, #12]
 8002918:	f04f 32ff 	mov.w	r2, #4294967295
 800291c:	605a      	str	r2, [r3, #4]
#endif
  /* Clear any pending interrupts */
  USB_OTG_WRITE_REG32( &pdev->regs.GREGS->GINTSTS, 0xBFFFFFFF);
 800291e:	687b      	ldr	r3, [r7, #4]
 8002920:	68db      	ldr	r3, [r3, #12]
 8002922:	f06f 4280 	mvn.w	r2, #1073741824	; 0x40000000
 8002926:	615a      	str	r2, [r3, #20]
  /* Enable the interrupts in the INTMSK */
  int_mask.b.wkupintr = 1;
 8002928:	7bfb      	ldrb	r3, [r7, #15]
 800292a:	f043 0380 	orr.w	r3, r3, #128	; 0x80
 800292e:	73fb      	strb	r3, [r7, #15]
  int_mask.b.usbsuspend = 1; 
 8002930:	7b7b      	ldrb	r3, [r7, #13]
 8002932:	f043 0308 	orr.w	r3, r3, #8
 8002936:	737b      	strb	r3, [r7, #13]
#ifdef USE_OTG_MODE
  int_mask.b.otgintr = 1;
  int_mask.b.sessreqintr = 1;
  int_mask.b.conidstschng = 1;
#endif
  USB_OTG_WRITE_REG32( &pdev->regs.GREGS->GINTMSK, int_mask.d32);
 8002938:	687b      	ldr	r3, [r7, #4]
 800293a:	68db      	ldr	r3, [r3, #12]
 800293c:	68fa      	ldr	r2, [r7, #12]
 800293e:	619a      	str	r2, [r3, #24]
}
 8002940:	bf00      	nop
 8002942:	3714      	adds	r7, #20
 8002944:	46bd      	mov	sp, r7
 8002946:	f85d 7b04 	ldr.w	r7, [sp], #4
 800294a:	4770      	bx	lr

0800294c <USB_OTG_CoreReset>:
* @brief  USB_OTG_CoreReset : Soft reset of the core
* @param  pdev : Selected device
* @retval USB_OTG_STS : status
*/
static USB_OTG_STS USB_OTG_CoreReset(USB_OTG_CORE_HANDLE *pdev)
{
 800294c:	b580      	push	{r7, lr}
 800294e:	b086      	sub	sp, #24
 8002950:	af00      	add	r7, sp, #0
 8002952:	6078      	str	r0, [r7, #4]
  USB_OTG_STS status = USB_OTG_OK;
 8002954:	2300      	movs	r3, #0
 8002956:	74fb      	strb	r3, [r7, #19]
  __IO USB_OTG_GRSTCTL_TypeDef  greset;
  uint32_t count = 0;
 8002958:	2300      	movs	r3, #0
 800295a:	617b      	str	r3, [r7, #20]
  
  greset.d32 = 0;
 800295c:	2300      	movs	r3, #0
 800295e:	60fb      	str	r3, [r7, #12]
  /* Wait for AHB master IDLE state. */
  do
  {
    USB_OTG_BSP_uDelay(3);
 8002960:	2003      	movs	r0, #3
 8002962:	f7ff ff8b 	bl	800287c <USB_OTG_BSP_uDelay>
    greset.d32 = USB_OTG_READ_REG32(&pdev->regs.GREGS->GRSTCTL);
 8002966:	687b      	ldr	r3, [r7, #4]
 8002968:	68db      	ldr	r3, [r3, #12]
 800296a:	691b      	ldr	r3, [r3, #16]
 800296c:	60fb      	str	r3, [r7, #12]
    if (++count > 200000)
 800296e:	697b      	ldr	r3, [r7, #20]
 8002970:	3301      	adds	r3, #1
 8002972:	617b      	str	r3, [r7, #20]
 8002974:	697b      	ldr	r3, [r7, #20]
 8002976:	4a18      	ldr	r2, [pc, #96]	; (80029d8 <USB_OTG_CoreReset+0x8c>)
 8002978:	4293      	cmp	r3, r2
 800297a:	d901      	bls.n	8002980 <USB_OTG_CoreReset+0x34>
    {
      return USB_OTG_OK;
 800297c:	2300      	movs	r3, #0
 800297e:	e026      	b.n	80029ce <USB_OTG_CoreReset+0x82>
    }
  }
  while (greset.b.ahbidle == 0);
 8002980:	68fb      	ldr	r3, [r7, #12]
 8002982:	f3c3 73c0 	ubfx	r3, r3, #31, #1
 8002986:	b2db      	uxtb	r3, r3
 8002988:	2b00      	cmp	r3, #0
 800298a:	d0e9      	beq.n	8002960 <USB_OTG_CoreReset+0x14>
  /* Core Soft Reset */
  count = 0;
 800298c:	2300      	movs	r3, #0
 800298e:	617b      	str	r3, [r7, #20]
  greset.b.csftrst = 1;
 8002990:	68fb      	ldr	r3, [r7, #12]
 8002992:	f043 0301 	orr.w	r3, r3, #1
 8002996:	60fb      	str	r3, [r7, #12]
  USB_OTG_WRITE_REG32(&pdev->regs.GREGS->GRSTCTL, greset.d32 );
 8002998:	687b      	ldr	r3, [r7, #4]
 800299a:	68db      	ldr	r3, [r3, #12]
 800299c:	68fa      	ldr	r2, [r7, #12]
 800299e:	611a      	str	r2, [r3, #16]
  do
  {
    greset.d32 = USB_OTG_READ_REG32(&pdev->regs.GREGS->GRSTCTL);
 80029a0:	687b      	ldr	r3, [r7, #4]
 80029a2:	68db      	ldr	r3, [r3, #12]
 80029a4:	691b      	ldr	r3, [r3, #16]
 80029a6:	60fb      	str	r3, [r7, #12]
    if (++count > 200000)
 80029a8:	697b      	ldr	r3, [r7, #20]
 80029aa:	3301      	adds	r3, #1
 80029ac:	617b      	str	r3, [r7, #20]
 80029ae:	697b      	ldr	r3, [r7, #20]
 80029b0:	4a09      	ldr	r2, [pc, #36]	; (80029d8 <USB_OTG_CoreReset+0x8c>)
 80029b2:	4293      	cmp	r3, r2
 80029b4:	d806      	bhi.n	80029c4 <USB_OTG_CoreReset+0x78>
    {
      break;
    }
  }
  while (greset.b.csftrst == 1);
 80029b6:	68fb      	ldr	r3, [r7, #12]
 80029b8:	f3c3 0300 	ubfx	r3, r3, #0, #1
 80029bc:	b2db      	uxtb	r3, r3
 80029be:	2b01      	cmp	r3, #1
 80029c0:	d0ee      	beq.n	80029a0 <USB_OTG_CoreReset+0x54>
 80029c2:	e000      	b.n	80029c6 <USB_OTG_CoreReset+0x7a>
      break;
 80029c4:	bf00      	nop
  /* Wait for 3 PHY Clocks*/
  USB_OTG_BSP_uDelay(3);
 80029c6:	2003      	movs	r0, #3
 80029c8:	f7ff ff58 	bl	800287c <USB_OTG_BSP_uDelay>
  return status;
 80029cc:	7cfb      	ldrb	r3, [r7, #19]
}
 80029ce:	4618      	mov	r0, r3
 80029d0:	3718      	adds	r7, #24
 80029d2:	46bd      	mov	sp, r7
 80029d4:	bd80      	pop	{r7, pc}
 80029d6:	bf00      	nop
 80029d8:	00030d40 	.word	0x00030d40

080029dc <USB_OTG_WritePacket>:
*/
USB_OTG_STS USB_OTG_WritePacket(USB_OTG_CORE_HANDLE *pdev, 
                                uint8_t             *src, 
                                uint8_t             ch_ep_num, 
                                uint16_t            len)
{
 80029dc:	b480      	push	{r7}
 80029de:	b089      	sub	sp, #36	; 0x24
 80029e0:	af00      	add	r7, sp, #0
 80029e2:	60f8      	str	r0, [r7, #12]
 80029e4:	60b9      	str	r1, [r7, #8]
 80029e6:	4611      	mov	r1, r2
 80029e8:	461a      	mov	r2, r3
 80029ea:	460b      	mov	r3, r1
 80029ec:	71fb      	strb	r3, [r7, #7]
 80029ee:	4613      	mov	r3, r2
 80029f0:	80bb      	strh	r3, [r7, #4]
  USB_OTG_STS status = USB_OTG_OK;
 80029f2:	2300      	movs	r3, #0
 80029f4:	76fb      	strb	r3, [r7, #27]
  if (pdev->cfg.dma_enable == 0)
 80029f6:	68fb      	ldr	r3, [r7, #12]
 80029f8:	78db      	ldrb	r3, [r3, #3]
 80029fa:	2b00      	cmp	r3, #0
 80029fc:	d122      	bne.n	8002a44 <USB_OTG_WritePacket+0x68>
  {
    uint32_t count32b= 0 , i= 0;
 80029fe:	2300      	movs	r3, #0
 8002a00:	617b      	str	r3, [r7, #20]
 8002a02:	2300      	movs	r3, #0
 8002a04:	61fb      	str	r3, [r7, #28]
    __IO uint32_t *fifo;
    
    count32b =  (len + 3) / 4;
 8002a06:	88bb      	ldrh	r3, [r7, #4]
 8002a08:	3303      	adds	r3, #3
 8002a0a:	2b00      	cmp	r3, #0
 8002a0c:	da00      	bge.n	8002a10 <USB_OTG_WritePacket+0x34>
 8002a0e:	3303      	adds	r3, #3
 8002a10:	109b      	asrs	r3, r3, #2
 8002a12:	617b      	str	r3, [r7, #20]
    fifo = pdev->regs.DFIFO[ch_ep_num];
 8002a14:	79fb      	ldrb	r3, [r7, #7]
 8002a16:	68fa      	ldr	r2, [r7, #12]
 8002a18:	3332      	adds	r3, #50	; 0x32
 8002a1a:	009b      	lsls	r3, r3, #2
 8002a1c:	4413      	add	r3, r2
 8002a1e:	689b      	ldr	r3, [r3, #8]
 8002a20:	613b      	str	r3, [r7, #16]
    for (i = 0; i < count32b; i++, src+=4)
 8002a22:	2300      	movs	r3, #0
 8002a24:	61fb      	str	r3, [r7, #28]
 8002a26:	e009      	b.n	8002a3c <USB_OTG_WritePacket+0x60>
    {
      USB_OTG_WRITE_REG32( fifo, *((__packed uint32_t *)src) );
 8002a28:	68bb      	ldr	r3, [r7, #8]
 8002a2a:	681a      	ldr	r2, [r3, #0]
 8002a2c:	693b      	ldr	r3, [r7, #16]
 8002a2e:	601a      	str	r2, [r3, #0]
    for (i = 0; i < count32b; i++, src+=4)
 8002a30:	69fb      	ldr	r3, [r7, #28]
 8002a32:	3301      	adds	r3, #1
 8002a34:	61fb      	str	r3, [r7, #28]
 8002a36:	68bb      	ldr	r3, [r7, #8]
 8002a38:	3304      	adds	r3, #4
 8002a3a:	60bb      	str	r3, [r7, #8]
 8002a3c:	69fa      	ldr	r2, [r7, #28]
 8002a3e:	697b      	ldr	r3, [r7, #20]
 8002a40:	429a      	cmp	r2, r3
 8002a42:	d3f1      	bcc.n	8002a28 <USB_OTG_WritePacket+0x4c>
    }
  }
  return status;
 8002a44:	7efb      	ldrb	r3, [r7, #27]
}
 8002a46:	4618      	mov	r0, r3
 8002a48:	3724      	adds	r7, #36	; 0x24
 8002a4a:	46bd      	mov	sp, r7
 8002a4c:	f85d 7b04 	ldr.w	r7, [sp], #4
 8002a50:	4770      	bx	lr

08002a52 <USB_OTG_ReadPacket>:
* @retval None
*/
void *USB_OTG_ReadPacket(USB_OTG_CORE_HANDLE *pdev, 
                         uint8_t *dest, 
                         uint16_t len)
{
 8002a52:	b480      	push	{r7}
 8002a54:	b089      	sub	sp, #36	; 0x24
 8002a56:	af00      	add	r7, sp, #0
 8002a58:	60f8      	str	r0, [r7, #12]
 8002a5a:	60b9      	str	r1, [r7, #8]
 8002a5c:	4613      	mov	r3, r2
 8002a5e:	80fb      	strh	r3, [r7, #6]
  uint32_t i=0;
 8002a60:	2300      	movs	r3, #0
 8002a62:	61fb      	str	r3, [r7, #28]
  uint32_t count32b = (len + 3) / 4;
 8002a64:	88fb      	ldrh	r3, [r7, #6]
 8002a66:	3303      	adds	r3, #3
 8002a68:	2b00      	cmp	r3, #0
 8002a6a:	da00      	bge.n	8002a6e <USB_OTG_ReadPacket+0x1c>
 8002a6c:	3303      	adds	r3, #3
 8002a6e:	109b      	asrs	r3, r3, #2
 8002a70:	61bb      	str	r3, [r7, #24]
  
  __IO uint32_t *fifo = pdev->regs.DFIFO[0];
 8002a72:	68fb      	ldr	r3, [r7, #12]
 8002a74:	f8d3 30d0 	ldr.w	r3, [r3, #208]	; 0xd0
 8002a78:	617b      	str	r3, [r7, #20]
  
  for ( i = 0; i < count32b; i++, dest += 4 )
 8002a7a:	2300      	movs	r3, #0
 8002a7c:	61fb      	str	r3, [r7, #28]
 8002a7e:	e009      	b.n	8002a94 <USB_OTG_ReadPacket+0x42>
  {
    *(__packed uint32_t *)dest = USB_OTG_READ_REG32(fifo);
 8002a80:	697b      	ldr	r3, [r7, #20]
 8002a82:	681a      	ldr	r2, [r3, #0]
 8002a84:	68bb      	ldr	r3, [r7, #8]
 8002a86:	601a      	str	r2, [r3, #0]
  for ( i = 0; i < count32b; i++, dest += 4 )
 8002a88:	69fb      	ldr	r3, [r7, #28]
 8002a8a:	3301      	adds	r3, #1
 8002a8c:	61fb      	str	r3, [r7, #28]
 8002a8e:	68bb      	ldr	r3, [r7, #8]
 8002a90:	3304      	adds	r3, #4
 8002a92:	60bb      	str	r3, [r7, #8]
 8002a94:	69fa      	ldr	r2, [r7, #28]
 8002a96:	69bb      	ldr	r3, [r7, #24]
 8002a98:	429a      	cmp	r2, r3
 8002a9a:	d3f1      	bcc.n	8002a80 <USB_OTG_ReadPacket+0x2e>
    
  }
  return ((void *)dest);
 8002a9c:	68bb      	ldr	r3, [r7, #8]
}
 8002a9e:	4618      	mov	r0, r3
 8002aa0:	3724      	adds	r7, #36	; 0x24
 8002aa2:	46bd      	mov	sp, r7
 8002aa4:	f85d 7b04 	ldr.w	r7, [sp], #4
 8002aa8:	4770      	bx	lr
	...

08002aac <USB_OTG_SelectCore>:
* @param  coreID : USB OTG Core ID
* @retval USB_OTG_STS : status
*/
USB_OTG_STS USB_OTG_SelectCore(USB_OTG_CORE_HANDLE *pdev, 
                               USB_OTG_CORE_ID_TypeDef coreID)
{
 8002aac:	b480      	push	{r7}
 8002aae:	b087      	sub	sp, #28
 8002ab0:	af00      	add	r7, sp, #0
 8002ab2:	6078      	str	r0, [r7, #4]
 8002ab4:	460b      	mov	r3, r1
 8002ab6:	70fb      	strb	r3, [r7, #3]
  uint32_t i , baseAddress = 0;
 8002ab8:	2300      	movs	r3, #0
 8002aba:	613b      	str	r3, [r7, #16]
  USB_OTG_STS status = USB_OTG_OK;
 8002abc:	2300      	movs	r3, #0
 8002abe:	73fb      	strb	r3, [r7, #15]
  
  pdev->cfg.dma_enable       = 0;
 8002ac0:	687b      	ldr	r3, [r7, #4]
 8002ac2:	2200      	movs	r2, #0
 8002ac4:	70da      	strb	r2, [r3, #3]
  
  /* at startup the core is in FS mode */
  pdev->cfg.speed            = USB_OTG_SPEED_FULL;
 8002ac6:	687b      	ldr	r3, [r7, #4]
 8002ac8:	2201      	movs	r2, #1
 8002aca:	709a      	strb	r2, [r3, #2]
  pdev->cfg.mps              = USB_OTG_FS_MAX_PACKET_SIZE ;    
 8002acc:	687b      	ldr	r3, [r7, #4]
 8002ace:	2240      	movs	r2, #64	; 0x40
 8002ad0:	809a      	strh	r2, [r3, #4]
  
  /* initialize device cfg following its address */
  if (coreID == USB_OTG_FS_CORE_ID)
 8002ad2:	78fb      	ldrb	r3, [r7, #3]
 8002ad4:	2b01      	cmp	r3, #1
 8002ad6:	d113      	bne.n	8002b00 <USB_OTG_SelectCore+0x54>
  {
    baseAddress                = USB_OTG_FS_BASE_ADDR;
 8002ad8:	f04f 43a0 	mov.w	r3, #1342177280	; 0x50000000
 8002adc:	613b      	str	r3, [r7, #16]
    pdev->cfg.coreID           = USB_OTG_FS_CORE_ID;
 8002ade:	687b      	ldr	r3, [r7, #4]
 8002ae0:	2201      	movs	r2, #1
 8002ae2:	72da      	strb	r2, [r3, #11]
    pdev->cfg.host_channels    = 8 ;
 8002ae4:	687b      	ldr	r3, [r7, #4]
 8002ae6:	2208      	movs	r2, #8
 8002ae8:	701a      	strb	r2, [r3, #0]
    pdev->cfg.dev_endpoints    = 4 ;
 8002aea:	687b      	ldr	r3, [r7, #4]
 8002aec:	2204      	movs	r2, #4
 8002aee:	705a      	strb	r2, [r3, #1]
    pdev->cfg.TotalFifoSize    = 320; /* in 32-bits */
 8002af0:	687b      	ldr	r3, [r7, #4]
 8002af2:	f44f 72a0 	mov.w	r2, #320	; 0x140
 8002af6:	80da      	strh	r2, [r3, #6]
    pdev->cfg.phy_itface       = USB_OTG_EMBEDDED_PHY;     
 8002af8:	687b      	ldr	r3, [r7, #4]
 8002afa:	2202      	movs	r2, #2
 8002afc:	721a      	strb	r2, [r3, #8]
 8002afe:	e011      	b.n	8002b24 <USB_OTG_SelectCore+0x78>
    
#ifdef USB_OTG_FS_LOW_PWR_MGMT_SUPPORT    
    pdev->cfg.low_power        = 1;    
#endif     
  }
  else if (coreID == USB_OTG_HS_CORE_ID)
 8002b00:	78fb      	ldrb	r3, [r7, #3]
 8002b02:	2b00      	cmp	r3, #0
 8002b04:	d10e      	bne.n	8002b24 <USB_OTG_SelectCore+0x78>
  {
    baseAddress                = USB_OTG_HS_BASE_ADDR;
 8002b06:	4b45      	ldr	r3, [pc, #276]	; (8002c1c <USB_OTG_SelectCore+0x170>)
 8002b08:	613b      	str	r3, [r7, #16]
    pdev->cfg.coreID           = USB_OTG_HS_CORE_ID;    
 8002b0a:	687b      	ldr	r3, [r7, #4]
 8002b0c:	2200      	movs	r2, #0
 8002b0e:	72da      	strb	r2, [r3, #11]
    pdev->cfg.host_channels    = 12 ;
 8002b10:	687b      	ldr	r3, [r7, #4]
 8002b12:	220c      	movs	r2, #12
 8002b14:	701a      	strb	r2, [r3, #0]
    pdev->cfg.dev_endpoints    = 6 ;
 8002b16:	687b      	ldr	r3, [r7, #4]
 8002b18:	2206      	movs	r2, #6
 8002b1a:	705a      	strb	r2, [r3, #1]
    pdev->cfg.TotalFifoSize    = 1280;/* in 32-bits */
 8002b1c:	687b      	ldr	r3, [r7, #4]
 8002b1e:	f44f 62a0 	mov.w	r2, #1280	; 0x500
 8002b22:	80da      	strh	r2, [r3, #6]
    pdev->cfg.low_power        = 1;    
#endif 
    
  }
  
  pdev->regs.GREGS = (USB_OTG_GREGS *)(baseAddress + \
 8002b24:	693a      	ldr	r2, [r7, #16]
 8002b26:	687b      	ldr	r3, [r7, #4]
 8002b28:	60da      	str	r2, [r3, #12]
    USB_OTG_CORE_GLOBAL_REGS_OFFSET);
  pdev->regs.DREGS =  (USB_OTG_DREGS  *)  (baseAddress + \
 8002b2a:	693b      	ldr	r3, [r7, #16]
 8002b2c:	f503 6300 	add.w	r3, r3, #2048	; 0x800
 8002b30:	461a      	mov	r2, r3
 8002b32:	687b      	ldr	r3, [r7, #4]
 8002b34:	611a      	str	r2, [r3, #16]
    USB_OTG_DEV_GLOBAL_REG_OFFSET);
  
  for (i = 0; i < pdev->cfg.dev_endpoints; i++)
 8002b36:	2300      	movs	r3, #0
 8002b38:	617b      	str	r3, [r7, #20]
 8002b3a:	e01c      	b.n	8002b76 <USB_OTG_SelectCore+0xca>
  {
    pdev->regs.INEP_REGS[i]  = (USB_OTG_INEPREGS *)  \
      (baseAddress + USB_OTG_DEV_IN_EP_REG_OFFSET + \
        (i * USB_OTG_EP_REG_OFFSET));
 8002b3c:	697b      	ldr	r3, [r7, #20]
 8002b3e:	015a      	lsls	r2, r3, #5
      (baseAddress + USB_OTG_DEV_IN_EP_REG_OFFSET + \
 8002b40:	693b      	ldr	r3, [r7, #16]
 8002b42:	4413      	add	r3, r2
 8002b44:	f503 6310 	add.w	r3, r3, #2304	; 0x900
    pdev->regs.INEP_REGS[i]  = (USB_OTG_INEPREGS *)  \
 8002b48:	4619      	mov	r1, r3
 8002b4a:	687a      	ldr	r2, [r7, #4]
 8002b4c:	697b      	ldr	r3, [r7, #20]
 8002b4e:	3304      	adds	r3, #4
 8002b50:	009b      	lsls	r3, r3, #2
 8002b52:	4413      	add	r3, r2
 8002b54:	6099      	str	r1, [r3, #8]
    pdev->regs.OUTEP_REGS[i] = (USB_OTG_OUTEPREGS *) \
      (baseAddress + USB_OTG_DEV_OUT_EP_REG_OFFSET + \
        (i * USB_OTG_EP_REG_OFFSET));
 8002b56:	697b      	ldr	r3, [r7, #20]
 8002b58:	015a      	lsls	r2, r3, #5
      (baseAddress + USB_OTG_DEV_OUT_EP_REG_OFFSET + \
 8002b5a:	693b      	ldr	r3, [r7, #16]
 8002b5c:	4413      	add	r3, r2
 8002b5e:	f503 6330 	add.w	r3, r3, #2816	; 0xb00
    pdev->regs.OUTEP_REGS[i] = (USB_OTG_OUTEPREGS *) \
 8002b62:	4619      	mov	r1, r3
 8002b64:	687a      	ldr	r2, [r7, #4]
 8002b66:	697b      	ldr	r3, [r7, #20]
 8002b68:	3314      	adds	r3, #20
 8002b6a:	009b      	lsls	r3, r3, #2
 8002b6c:	4413      	add	r3, r2
 8002b6e:	6059      	str	r1, [r3, #4]
  for (i = 0; i < pdev->cfg.dev_endpoints; i++)
 8002b70:	697b      	ldr	r3, [r7, #20]
 8002b72:	3301      	adds	r3, #1
 8002b74:	617b      	str	r3, [r7, #20]
 8002b76:	687b      	ldr	r3, [r7, #4]
 8002b78:	785b      	ldrb	r3, [r3, #1]
 8002b7a:	461a      	mov	r2, r3
 8002b7c:	697b      	ldr	r3, [r7, #20]
 8002b7e:	429a      	cmp	r2, r3
 8002b80:	d8dc      	bhi.n	8002b3c <USB_OTG_SelectCore+0x90>
  }
  pdev->regs.HREGS = (USB_OTG_HREGS *)(baseAddress + \
 8002b82:	693b      	ldr	r3, [r7, #16]
 8002b84:	f503 6380 	add.w	r3, r3, #1024	; 0x400
 8002b88:	461a      	mov	r2, r3
 8002b8a:	687b      	ldr	r3, [r7, #4]
 8002b8c:	615a      	str	r2, [r3, #20]
    USB_OTG_HOST_GLOBAL_REG_OFFSET);
  pdev->regs.HPRT0 = (uint32_t *)(baseAddress + USB_OTG_HOST_PORT_REGS_OFFSET);
 8002b8e:	693b      	ldr	r3, [r7, #16]
 8002b90:	f503 6388 	add.w	r3, r3, #1088	; 0x440
 8002b94:	461a      	mov	r2, r3
 8002b96:	687b      	ldr	r3, [r7, #4]
 8002b98:	f8c3 20cc 	str.w	r2, [r3, #204]	; 0xcc
  
  for (i = 0; i < pdev->cfg.host_channels; i++)
 8002b9c:	2300      	movs	r3, #0
 8002b9e:	617b      	str	r3, [r7, #20]
 8002ba0:	e00f      	b.n	8002bc2 <USB_OTG_SelectCore+0x116>
  {
    pdev->regs.HC_REGS[i] = (USB_OTG_HC_REGS *)(baseAddress + \
      USB_OTG_HOST_CHAN_REGS_OFFSET + \
        (i * USB_OTG_CHAN_REGS_OFFSET));
 8002ba2:	697b      	ldr	r3, [r7, #20]
 8002ba4:	015a      	lsls	r2, r3, #5
      USB_OTG_HOST_CHAN_REGS_OFFSET + \
 8002ba6:	693b      	ldr	r3, [r7, #16]
 8002ba8:	4413      	add	r3, r2
 8002baa:	f503 63a0 	add.w	r3, r3, #1280	; 0x500
    pdev->regs.HC_REGS[i] = (USB_OTG_HC_REGS *)(baseAddress + \
 8002bae:	4619      	mov	r1, r3
 8002bb0:	687a      	ldr	r2, [r7, #4]
 8002bb2:	697b      	ldr	r3, [r7, #20]
 8002bb4:	3322      	adds	r3, #34	; 0x22
 8002bb6:	009b      	lsls	r3, r3, #2
 8002bb8:	4413      	add	r3, r2
 8002bba:	6099      	str	r1, [r3, #8]
  for (i = 0; i < pdev->cfg.host_channels; i++)
 8002bbc:	697b      	ldr	r3, [r7, #20]
 8002bbe:	3301      	adds	r3, #1
 8002bc0:	617b      	str	r3, [r7, #20]
 8002bc2:	687b      	ldr	r3, [r7, #4]
 8002bc4:	781b      	ldrb	r3, [r3, #0]
 8002bc6:	461a      	mov	r2, r3
 8002bc8:	697b      	ldr	r3, [r7, #20]
 8002bca:	429a      	cmp	r2, r3
 8002bcc:	d8e9      	bhi.n	8002ba2 <USB_OTG_SelectCore+0xf6>
  }
  for (i = 0; i < pdev->cfg.host_channels; i++)
 8002bce:	2300      	movs	r3, #0
 8002bd0:	617b      	str	r3, [r7, #20]
 8002bd2:	e00f      	b.n	8002bf4 <USB_OTG_SelectCore+0x148>
  {
    pdev->regs.DFIFO[i] = (uint32_t *)(baseAddress + USB_OTG_DATA_FIFO_OFFSET +\
      (i * USB_OTG_DATA_FIFO_SIZE));
 8002bd4:	697b      	ldr	r3, [r7, #20]
 8002bd6:	031a      	lsls	r2, r3, #12
    pdev->regs.DFIFO[i] = (uint32_t *)(baseAddress + USB_OTG_DATA_FIFO_OFFSET +\
 8002bd8:	693b      	ldr	r3, [r7, #16]
 8002bda:	4413      	add	r3, r2
 8002bdc:	f503 5380 	add.w	r3, r3, #4096	; 0x1000
 8002be0:	4619      	mov	r1, r3
 8002be2:	687a      	ldr	r2, [r7, #4]
 8002be4:	697b      	ldr	r3, [r7, #20]
 8002be6:	3332      	adds	r3, #50	; 0x32
 8002be8:	009b      	lsls	r3, r3, #2
 8002bea:	4413      	add	r3, r2
 8002bec:	6099      	str	r1, [r3, #8]
  for (i = 0; i < pdev->cfg.host_channels; i++)
 8002bee:	697b      	ldr	r3, [r7, #20]
 8002bf0:	3301      	adds	r3, #1
 8002bf2:	617b      	str	r3, [r7, #20]
 8002bf4:	687b      	ldr	r3, [r7, #4]
 8002bf6:	781b      	ldrb	r3, [r3, #0]
 8002bf8:	461a      	mov	r2, r3
 8002bfa:	697b      	ldr	r3, [r7, #20]
 8002bfc:	429a      	cmp	r2, r3
 8002bfe:	d8e9      	bhi.n	8002bd4 <USB_OTG_SelectCore+0x128>
  }
  pdev->regs.PCGCCTL = (uint32_t *)(baseAddress + USB_OTG_PCGCCTL_OFFSET);
 8002c00:	693b      	ldr	r3, [r7, #16]
 8002c02:	f503 6360 	add.w	r3, r3, #3584	; 0xe00
 8002c06:	461a      	mov	r2, r3
 8002c08:	687b      	ldr	r3, [r7, #4]
 8002c0a:	f8c3 210c 	str.w	r2, [r3, #268]	; 0x10c
  
  return status;
 8002c0e:	7bfb      	ldrb	r3, [r7, #15]
}
 8002c10:	4618      	mov	r0, r3
 8002c12:	371c      	adds	r7, #28
 8002c14:	46bd      	mov	sp, r7
 8002c16:	f85d 7b04 	ldr.w	r7, [sp], #4
 8002c1a:	4770      	bx	lr
 8002c1c:	40040000 	.word	0x40040000

08002c20 <USB_OTG_CoreInit>:
*         device mode or host mode operation.
* @param  pdev : Selected device
* @retval USB_OTG_STS : status
*/
USB_OTG_STS USB_OTG_CoreInit(USB_OTG_CORE_HANDLE *pdev)
{
 8002c20:	b580      	push	{r7, lr}
 8002c22:	b086      	sub	sp, #24
 8002c24:	af00      	add	r7, sp, #0
 8002c26:	6078      	str	r0, [r7, #4]
  USB_OTG_STS status = USB_OTG_OK;
 8002c28:	2300      	movs	r3, #0
 8002c2a:	75fb      	strb	r3, [r7, #23]
  USB_OTG_GUSBCFG_TypeDef  usbcfg;
  USB_OTG_GCCFG_TypeDef    gccfg;
  USB_OTG_GAHBCFG_TypeDef  ahbcfg;
  
  usbcfg.d32 = 0;
 8002c2c:	2300      	movs	r3, #0
 8002c2e:	613b      	str	r3, [r7, #16]
  gccfg.d32 = 0;
 8002c30:	2300      	movs	r3, #0
 8002c32:	60fb      	str	r3, [r7, #12]
  ahbcfg.d32 = 0;
 8002c34:	2300      	movs	r3, #0
 8002c36:	60bb      	str	r3, [r7, #8]
  
  
  
  if (pdev->cfg.phy_itface == USB_OTG_ULPI_PHY)
 8002c38:	687b      	ldr	r3, [r7, #4]
 8002c3a:	7a1b      	ldrb	r3, [r3, #8]
 8002c3c:	2b01      	cmp	r3, #1
 8002c3e:	d142      	bne.n	8002cc6 <USB_OTG_CoreInit+0xa6>
  {
    gccfg.d32 = USB_OTG_READ_REG32(&pdev->regs.GREGS->GCCFG);
 8002c40:	687b      	ldr	r3, [r7, #4]
 8002c42:	68db      	ldr	r3, [r3, #12]
 8002c44:	6b9b      	ldr	r3, [r3, #56]	; 0x38
 8002c46:	60fb      	str	r3, [r7, #12]
    gccfg.b.pwdn = 0;
 8002c48:	7bbb      	ldrb	r3, [r7, #14]
 8002c4a:	f36f 0300 	bfc	r3, #0, #1
 8002c4e:	73bb      	strb	r3, [r7, #14]
    
    if (pdev->cfg.Sof_output)
 8002c50:	687b      	ldr	r3, [r7, #4]
 8002c52:	7a5b      	ldrb	r3, [r3, #9]
 8002c54:	2b00      	cmp	r3, #0
 8002c56:	d003      	beq.n	8002c60 <USB_OTG_CoreInit+0x40>
    {
      gccfg.b.sofouten = 1;   
 8002c58:	7bbb      	ldrb	r3, [r7, #14]
 8002c5a:	f043 0310 	orr.w	r3, r3, #16
 8002c5e:	73bb      	strb	r3, [r7, #14]
    }
    USB_OTG_WRITE_REG32 (&pdev->regs.GREGS->GCCFG, gccfg.d32);
 8002c60:	687b      	ldr	r3, [r7, #4]
 8002c62:	68db      	ldr	r3, [r3, #12]
 8002c64:	68fa      	ldr	r2, [r7, #12]
 8002c66:	639a      	str	r2, [r3, #56]	; 0x38
    
    /* Init The ULPI Interface */
    usbcfg.d32 = 0;
 8002c68:	2300      	movs	r3, #0
 8002c6a:	613b      	str	r3, [r7, #16]
    usbcfg.d32 = USB_OTG_READ_REG32(&pdev->regs.GREGS->GUSBCFG);
 8002c6c:	687b      	ldr	r3, [r7, #4]
 8002c6e:	68db      	ldr	r3, [r3, #12]
 8002c70:	68db      	ldr	r3, [r3, #12]
 8002c72:	613b      	str	r3, [r7, #16]
    
    usbcfg.b.physel            = 0; /* HS Interface */
 8002c74:	7c3b      	ldrb	r3, [r7, #16]
 8002c76:	f36f 1386 	bfc	r3, #6, #1
 8002c7a:	743b      	strb	r3, [r7, #16]
#else
#ifdef USB_OTG_EXTERNAL_VBUS_ENABLED    
    usbcfg.b.ulpi_ext_vbus_drv = 1; /* Use external VBUS */
#endif
#endif 
    usbcfg.b.term_sel_dl_pulse = 0; /* Data line pulsing using utmi_txvalid */    
 8002c7c:	7cbb      	ldrb	r3, [r7, #18]
 8002c7e:	f36f 1386 	bfc	r3, #6, #1
 8002c82:	74bb      	strb	r3, [r7, #18]
    
    usbcfg.b.ulpi_fsls = 0;
 8002c84:	7cbb      	ldrb	r3, [r7, #18]
 8002c86:	f36f 0341 	bfc	r3, #1, #1
 8002c8a:	74bb      	strb	r3, [r7, #18]
    usbcfg.b.ulpi_clk_sus_m = 0;
 8002c8c:	7cbb      	ldrb	r3, [r7, #18]
 8002c8e:	f36f 03c3 	bfc	r3, #3, #1
 8002c92:	74bb      	strb	r3, [r7, #18]
    USB_OTG_WRITE_REG32 (&pdev->regs.GREGS->GUSBCFG, usbcfg.d32);
 8002c94:	687b      	ldr	r3, [r7, #4]
 8002c96:	68db      	ldr	r3, [r3, #12]
 8002c98:	693a      	ldr	r2, [r7, #16]
 8002c9a:	60da      	str	r2, [r3, #12]
    
    /* Reset after a PHY select  */
    USB_OTG_CoreReset(pdev);
 8002c9c:	6878      	ldr	r0, [r7, #4]
 8002c9e:	f7ff fe55 	bl	800294c <USB_OTG_CoreReset>
    
    if(pdev->cfg.dma_enable == 1)
 8002ca2:	687b      	ldr	r3, [r7, #4]
 8002ca4:	78db      	ldrb	r3, [r3, #3]
 8002ca6:	2b01      	cmp	r3, #1
 8002ca8:	d13d      	bne.n	8002d26 <USB_OTG_CoreInit+0x106>
    {
      
      ahbcfg.b.hburstlen = 5; /* 64 x 32-bits*/
 8002caa:	7a3b      	ldrb	r3, [r7, #8]
 8002cac:	2205      	movs	r2, #5
 8002cae:	f362 0344 	bfi	r3, r2, #1, #4
 8002cb2:	723b      	strb	r3, [r7, #8]
      ahbcfg.b.dmaenable = 1;
 8002cb4:	7a3b      	ldrb	r3, [r7, #8]
 8002cb6:	f043 0320 	orr.w	r3, r3, #32
 8002cba:	723b      	strb	r3, [r7, #8]
      USB_OTG_WRITE_REG32(&pdev->regs.GREGS->GAHBCFG, ahbcfg.d32);
 8002cbc:	687b      	ldr	r3, [r7, #4]
 8002cbe:	68db      	ldr	r3, [r3, #12]
 8002cc0:	68ba      	ldr	r2, [r7, #8]
 8002cc2:	609a      	str	r2, [r3, #8]
 8002cc4:	e02f      	b.n	8002d26 <USB_OTG_CoreInit+0x106>
    }    
  }
  else /* FS interface (embedded Phy) */
  {
    
    usbcfg.d32 = USB_OTG_READ_REG32(&pdev->regs.GREGS->GUSBCFG);;
 8002cc6:	687b      	ldr	r3, [r7, #4]
 8002cc8:	68db      	ldr	r3, [r3, #12]
 8002cca:	68db      	ldr	r3, [r3, #12]
 8002ccc:	613b      	str	r3, [r7, #16]
    usbcfg.b.physel  = 1; /* FS Interface */
 8002cce:	7c3b      	ldrb	r3, [r7, #16]
 8002cd0:	f043 0340 	orr.w	r3, r3, #64	; 0x40
 8002cd4:	743b      	strb	r3, [r7, #16]
    USB_OTG_WRITE_REG32 (&pdev->regs.GREGS->GUSBCFG, usbcfg.d32);
 8002cd6:	687b      	ldr	r3, [r7, #4]
 8002cd8:	68db      	ldr	r3, [r3, #12]
 8002cda:	693a      	ldr	r2, [r7, #16]
 8002cdc:	60da      	str	r2, [r3, #12]
    /* Reset after a PHY select and set Host mode */
    USB_OTG_CoreReset(pdev);
 8002cde:	6878      	ldr	r0, [r7, #4]
 8002ce0:	f7ff fe34 	bl	800294c <USB_OTG_CoreReset>
    /* Deactivate the power down*/
    gccfg.d32 = 0;
 8002ce4:	2300      	movs	r3, #0
 8002ce6:	60fb      	str	r3, [r7, #12]
    gccfg.b.pwdn = 1;
 8002ce8:	7bbb      	ldrb	r3, [r7, #14]
 8002cea:	f043 0301 	orr.w	r3, r3, #1
 8002cee:	73bb      	strb	r3, [r7, #14]
    
    gccfg.b.vbussensingA = 1 ;
 8002cf0:	7bbb      	ldrb	r3, [r7, #14]
 8002cf2:	f043 0304 	orr.w	r3, r3, #4
 8002cf6:	73bb      	strb	r3, [r7, #14]
    gccfg.b.vbussensingB = 1 ;     
 8002cf8:	7bbb      	ldrb	r3, [r7, #14]
 8002cfa:	f043 0308 	orr.w	r3, r3, #8
 8002cfe:	73bb      	strb	r3, [r7, #14]
#ifndef VBUS_SENSING_ENABLED
    gccfg.b.disablevbussensing = 1; 
 8002d00:	7bbb      	ldrb	r3, [r7, #14]
 8002d02:	f043 0320 	orr.w	r3, r3, #32
 8002d06:	73bb      	strb	r3, [r7, #14]
#endif    
    
    if(pdev->cfg.Sof_output)
 8002d08:	687b      	ldr	r3, [r7, #4]
 8002d0a:	7a5b      	ldrb	r3, [r3, #9]
 8002d0c:	2b00      	cmp	r3, #0
 8002d0e:	d003      	beq.n	8002d18 <USB_OTG_CoreInit+0xf8>
    {
      gccfg.b.sofouten = 1;  
 8002d10:	7bbb      	ldrb	r3, [r7, #14]
 8002d12:	f043 0310 	orr.w	r3, r3, #16
 8002d16:	73bb      	strb	r3, [r7, #14]
    }
    
    USB_OTG_WRITE_REG32 (&pdev->regs.GREGS->GCCFG, gccfg.d32);
 8002d18:	687b      	ldr	r3, [r7, #4]
 8002d1a:	68db      	ldr	r3, [r3, #12]
 8002d1c:	68fa      	ldr	r2, [r7, #12]
 8002d1e:	639a      	str	r2, [r3, #56]	; 0x38
    USB_OTG_BSP_mDelay(20);
 8002d20:	2014      	movs	r0, #20
 8002d22:	f7ff fdcf 	bl	80028c4 <USB_OTG_BSP_mDelay>
  }
  /* case the HS core is working in FS mode */
  if(pdev->cfg.dma_enable == 1)
 8002d26:	687b      	ldr	r3, [r7, #4]
 8002d28:	78db      	ldrb	r3, [r3, #3]
 8002d2a:	2b01      	cmp	r3, #1
 8002d2c:	d110      	bne.n	8002d50 <USB_OTG_CoreInit+0x130>
  {
    
    ahbcfg.d32 = USB_OTG_READ_REG32(&pdev->regs.GREGS->GAHBCFG);
 8002d2e:	687b      	ldr	r3, [r7, #4]
 8002d30:	68db      	ldr	r3, [r3, #12]
 8002d32:	689b      	ldr	r3, [r3, #8]
 8002d34:	60bb      	str	r3, [r7, #8]
    ahbcfg.b.hburstlen = 5; /* 64 x 32-bits*/
 8002d36:	7a3b      	ldrb	r3, [r7, #8]
 8002d38:	2205      	movs	r2, #5
 8002d3a:	f362 0344 	bfi	r3, r2, #1, #4
 8002d3e:	723b      	strb	r3, [r7, #8]
    ahbcfg.b.dmaenable = 1;
 8002d40:	7a3b      	ldrb	r3, [r7, #8]
 8002d42:	f043 0320 	orr.w	r3, r3, #32
 8002d46:	723b      	strb	r3, [r7, #8]
    USB_OTG_WRITE_REG32(&pdev->regs.GREGS->GAHBCFG, ahbcfg.d32);
 8002d48:	687b      	ldr	r3, [r7, #4]
 8002d4a:	68db      	ldr	r3, [r3, #12]
 8002d4c:	68ba      	ldr	r2, [r7, #8]
 8002d4e:	609a      	str	r2, [r3, #8]
  usbcfg.b.hnpcap = 1;
  usbcfg.b.srpcap = 1;
  USB_OTG_WRITE_REG32(&pdev->regs.GREGS->GUSBCFG, usbcfg.d32);
  USB_OTG_EnableCommonInt(pdev);
#endif
  return status;
 8002d50:	7dfb      	ldrb	r3, [r7, #23]
}
 8002d52:	4618      	mov	r0, r3
 8002d54:	3718      	adds	r7, #24
 8002d56:	46bd      	mov	sp, r7
 8002d58:	bd80      	pop	{r7, pc}

08002d5a <USB_OTG_EnableGlobalInt>:
*         Enables the controller's Global Int in the AHB Config reg
* @param  pdev : Selected device
* @retval USB_OTG_STS : status
*/
USB_OTG_STS USB_OTG_EnableGlobalInt(USB_OTG_CORE_HANDLE *pdev)
{
 8002d5a:	b480      	push	{r7}
 8002d5c:	b085      	sub	sp, #20
 8002d5e:	af00      	add	r7, sp, #0
 8002d60:	6078      	str	r0, [r7, #4]
  USB_OTG_STS status = USB_OTG_OK;
 8002d62:	2300      	movs	r3, #0
 8002d64:	73fb      	strb	r3, [r7, #15]
  USB_OTG_GAHBCFG_TypeDef  ahbcfg;
  
  ahbcfg.d32 = 0;
 8002d66:	2300      	movs	r3, #0
 8002d68:	60bb      	str	r3, [r7, #8]
  ahbcfg.b.glblintrmsk = 1; /* Enable interrupts */
 8002d6a:	7a3b      	ldrb	r3, [r7, #8]
 8002d6c:	f043 0301 	orr.w	r3, r3, #1
 8002d70:	723b      	strb	r3, [r7, #8]
  USB_OTG_MODIFY_REG32(&pdev->regs.GREGS->GAHBCFG, 0, ahbcfg.d32);
 8002d72:	687b      	ldr	r3, [r7, #4]
 8002d74:	68db      	ldr	r3, [r3, #12]
 8002d76:	687a      	ldr	r2, [r7, #4]
 8002d78:	68d2      	ldr	r2, [r2, #12]
 8002d7a:	6891      	ldr	r1, [r2, #8]
 8002d7c:	68ba      	ldr	r2, [r7, #8]
 8002d7e:	430a      	orrs	r2, r1
 8002d80:	609a      	str	r2, [r3, #8]
  return status;
 8002d82:	7bfb      	ldrb	r3, [r7, #15]
}
 8002d84:	4618      	mov	r0, r3
 8002d86:	3714      	adds	r7, #20
 8002d88:	46bd      	mov	sp, r7
 8002d8a:	f85d 7b04 	ldr.w	r7, [sp], #4
 8002d8e:	4770      	bx	lr

08002d90 <USB_OTG_DisableGlobalInt>:
*         Enables the controller's Global Int in the AHB Config reg
* @param  pdev : Selected device
* @retval USB_OTG_STS : status
*/
USB_OTG_STS USB_OTG_DisableGlobalInt(USB_OTG_CORE_HANDLE *pdev)
{
 8002d90:	b480      	push	{r7}
 8002d92:	b085      	sub	sp, #20
 8002d94:	af00      	add	r7, sp, #0
 8002d96:	6078      	str	r0, [r7, #4]
  USB_OTG_STS status = USB_OTG_OK;
 8002d98:	2300      	movs	r3, #0
 8002d9a:	73fb      	strb	r3, [r7, #15]
  USB_OTG_GAHBCFG_TypeDef  ahbcfg;
  ahbcfg.d32 = 0;
 8002d9c:	2300      	movs	r3, #0
 8002d9e:	60bb      	str	r3, [r7, #8]
  ahbcfg.b.glblintrmsk = 1; /* Enable interrupts */
 8002da0:	7a3b      	ldrb	r3, [r7, #8]
 8002da2:	f043 0301 	orr.w	r3, r3, #1
 8002da6:	723b      	strb	r3, [r7, #8]
  USB_OTG_MODIFY_REG32(&pdev->regs.GREGS->GAHBCFG, ahbcfg.d32, 0);
 8002da8:	687b      	ldr	r3, [r7, #4]
 8002daa:	68db      	ldr	r3, [r3, #12]
 8002dac:	687a      	ldr	r2, [r7, #4]
 8002dae:	68d2      	ldr	r2, [r2, #12]
 8002db0:	6891      	ldr	r1, [r2, #8]
 8002db2:	68ba      	ldr	r2, [r7, #8]
 8002db4:	43d2      	mvns	r2, r2
 8002db6:	400a      	ands	r2, r1
 8002db8:	609a      	str	r2, [r3, #8]
  return status;
 8002dba:	7bfb      	ldrb	r3, [r7, #15]
}
 8002dbc:	4618      	mov	r0, r3
 8002dbe:	3714      	adds	r7, #20
 8002dc0:	46bd      	mov	sp, r7
 8002dc2:	f85d 7b04 	ldr.w	r7, [sp], #4
 8002dc6:	4770      	bx	lr

08002dc8 <USB_OTG_FlushTxFifo>:
* @param  pdev : Selected device
* @param  num : FO num
* @retval USB_OTG_STS : status
*/
USB_OTG_STS USB_OTG_FlushTxFifo (USB_OTG_CORE_HANDLE *pdev , uint32_t num )
{
 8002dc8:	b580      	push	{r7, lr}
 8002dca:	b086      	sub	sp, #24
 8002dcc:	af00      	add	r7, sp, #0
 8002dce:	6078      	str	r0, [r7, #4]
 8002dd0:	6039      	str	r1, [r7, #0]
  USB_OTG_STS status = USB_OTG_OK;
 8002dd2:	2300      	movs	r3, #0
 8002dd4:	74fb      	strb	r3, [r7, #19]
  __IO USB_OTG_GRSTCTL_TypeDef  greset;
  
  uint32_t count = 0;
 8002dd6:	2300      	movs	r3, #0
 8002dd8:	617b      	str	r3, [r7, #20]
  greset.d32 = 0;
 8002dda:	2300      	movs	r3, #0
 8002ddc:	60fb      	str	r3, [r7, #12]
  greset.b.txfflsh = 1;
 8002dde:	68fb      	ldr	r3, [r7, #12]
 8002de0:	f043 0320 	orr.w	r3, r3, #32
 8002de4:	60fb      	str	r3, [r7, #12]
  greset.b.txfnum  = num;
 8002de6:	683b      	ldr	r3, [r7, #0]
 8002de8:	b2db      	uxtb	r3, r3
 8002dea:	f003 031f 	and.w	r3, r3, #31
 8002dee:	b2da      	uxtb	r2, r3
 8002df0:	68fb      	ldr	r3, [r7, #12]
 8002df2:	f362 138a 	bfi	r3, r2, #6, #5
 8002df6:	60fb      	str	r3, [r7, #12]
  USB_OTG_WRITE_REG32( &pdev->regs.GREGS->GRSTCTL, greset.d32 );
 8002df8:	687b      	ldr	r3, [r7, #4]
 8002dfa:	68db      	ldr	r3, [r3, #12]
 8002dfc:	68fa      	ldr	r2, [r7, #12]
 8002dfe:	611a      	str	r2, [r3, #16]
  do
  {
    greset.d32 = USB_OTG_READ_REG32( &pdev->regs.GREGS->GRSTCTL);
 8002e00:	687b      	ldr	r3, [r7, #4]
 8002e02:	68db      	ldr	r3, [r3, #12]
 8002e04:	691b      	ldr	r3, [r3, #16]
 8002e06:	60fb      	str	r3, [r7, #12]
    if (++count > 200000)
 8002e08:	697b      	ldr	r3, [r7, #20]
 8002e0a:	3301      	adds	r3, #1
 8002e0c:	617b      	str	r3, [r7, #20]
 8002e0e:	697b      	ldr	r3, [r7, #20]
 8002e10:	4a09      	ldr	r2, [pc, #36]	; (8002e38 <USB_OTG_FlushTxFifo+0x70>)
 8002e12:	4293      	cmp	r3, r2
 8002e14:	d806      	bhi.n	8002e24 <USB_OTG_FlushTxFifo+0x5c>
    {
      break;
    }
  }
  while (greset.b.txfflsh == 1);
 8002e16:	68fb      	ldr	r3, [r7, #12]
 8002e18:	f3c3 1340 	ubfx	r3, r3, #5, #1
 8002e1c:	b2db      	uxtb	r3, r3
 8002e1e:	2b01      	cmp	r3, #1
 8002e20:	d0ee      	beq.n	8002e00 <USB_OTG_FlushTxFifo+0x38>
 8002e22:	e000      	b.n	8002e26 <USB_OTG_FlushTxFifo+0x5e>
      break;
 8002e24:	bf00      	nop
  /* Wait for 3 PHY Clocks*/
  USB_OTG_BSP_uDelay(3);
 8002e26:	2003      	movs	r0, #3
 8002e28:	f7ff fd28 	bl	800287c <USB_OTG_BSP_uDelay>
  return status;
 8002e2c:	7cfb      	ldrb	r3, [r7, #19]
}
 8002e2e:	4618      	mov	r0, r3
 8002e30:	3718      	adds	r7, #24
 8002e32:	46bd      	mov	sp, r7
 8002e34:	bd80      	pop	{r7, pc}
 8002e36:	bf00      	nop
 8002e38:	00030d40 	.word	0x00030d40

08002e3c <USB_OTG_FlushRxFifo>:
* @brief  USB_OTG_FlushRxFifo : Flush a Rx FIFO
* @param  pdev : Selected device
* @retval USB_OTG_STS : status
*/
USB_OTG_STS USB_OTG_FlushRxFifo( USB_OTG_CORE_HANDLE *pdev )
{
 8002e3c:	b580      	push	{r7, lr}
 8002e3e:	b086      	sub	sp, #24
 8002e40:	af00      	add	r7, sp, #0
 8002e42:	6078      	str	r0, [r7, #4]
  USB_OTG_STS status = USB_OTG_OK;
 8002e44:	2300      	movs	r3, #0
 8002e46:	74fb      	strb	r3, [r7, #19]
  __IO USB_OTG_GRSTCTL_TypeDef  greset;
  uint32_t count = 0;
 8002e48:	2300      	movs	r3, #0
 8002e4a:	617b      	str	r3, [r7, #20]
  
  greset.d32 = 0;
 8002e4c:	2300      	movs	r3, #0
 8002e4e:	60fb      	str	r3, [r7, #12]
  greset.b.rxfflsh = 1;
 8002e50:	68fb      	ldr	r3, [r7, #12]
 8002e52:	f043 0310 	orr.w	r3, r3, #16
 8002e56:	60fb      	str	r3, [r7, #12]
  USB_OTG_WRITE_REG32( &pdev->regs.GREGS->GRSTCTL, greset.d32 );
 8002e58:	687b      	ldr	r3, [r7, #4]
 8002e5a:	68db      	ldr	r3, [r3, #12]
 8002e5c:	68fa      	ldr	r2, [r7, #12]
 8002e5e:	611a      	str	r2, [r3, #16]
  do
  {
    greset.d32 = USB_OTG_READ_REG32( &pdev->regs.GREGS->GRSTCTL);
 8002e60:	687b      	ldr	r3, [r7, #4]
 8002e62:	68db      	ldr	r3, [r3, #12]
 8002e64:	691b      	ldr	r3, [r3, #16]
 8002e66:	60fb      	str	r3, [r7, #12]
    if (++count > 200000)
 8002e68:	697b      	ldr	r3, [r7, #20]
 8002e6a:	3301      	adds	r3, #1
 8002e6c:	617b      	str	r3, [r7, #20]
 8002e6e:	697b      	ldr	r3, [r7, #20]
 8002e70:	4a09      	ldr	r2, [pc, #36]	; (8002e98 <USB_OTG_FlushRxFifo+0x5c>)
 8002e72:	4293      	cmp	r3, r2
 8002e74:	d806      	bhi.n	8002e84 <USB_OTG_FlushRxFifo+0x48>
    {
      break;
    }
  }
  while (greset.b.rxfflsh == 1);
 8002e76:	68fb      	ldr	r3, [r7, #12]
 8002e78:	f3c3 1300 	ubfx	r3, r3, #4, #1
 8002e7c:	b2db      	uxtb	r3, r3
 8002e7e:	2b01      	cmp	r3, #1
 8002e80:	d0ee      	beq.n	8002e60 <USB_OTG_FlushRxFifo+0x24>
 8002e82:	e000      	b.n	8002e86 <USB_OTG_FlushRxFifo+0x4a>
      break;
 8002e84:	bf00      	nop
  /* Wait for 3 PHY Clocks*/
  USB_OTG_BSP_uDelay(3);
 8002e86:	2003      	movs	r0, #3
 8002e88:	f7ff fcf8 	bl	800287c <USB_OTG_BSP_uDelay>
  return status;
 8002e8c:	7cfb      	ldrb	r3, [r7, #19]
}
 8002e8e:	4618      	mov	r0, r3
 8002e90:	3718      	adds	r7, #24
 8002e92:	46bd      	mov	sp, r7
 8002e94:	bd80      	pop	{r7, pc}
 8002e96:	bf00      	nop
 8002e98:	00030d40 	.word	0x00030d40

08002e9c <USB_OTG_SetCurrentMode>:
* @param  pdev : Selected device
* @param  mode :  (Host/device)
* @retval USB_OTG_STS : status
*/
USB_OTG_STS USB_OTG_SetCurrentMode(USB_OTG_CORE_HANDLE *pdev , uint8_t mode)
{
 8002e9c:	b580      	push	{r7, lr}
 8002e9e:	b084      	sub	sp, #16
 8002ea0:	af00      	add	r7, sp, #0
 8002ea2:	6078      	str	r0, [r7, #4]
 8002ea4:	460b      	mov	r3, r1
 8002ea6:	70fb      	strb	r3, [r7, #3]
  USB_OTG_STS status = USB_OTG_OK;
 8002ea8:	2300      	movs	r3, #0
 8002eaa:	73fb      	strb	r3, [r7, #15]
  USB_OTG_GUSBCFG_TypeDef  usbcfg;
  
  usbcfg.d32 = USB_OTG_READ_REG32(&pdev->regs.GREGS->GUSBCFG);
 8002eac:	687b      	ldr	r3, [r7, #4]
 8002eae:	68db      	ldr	r3, [r3, #12]
 8002eb0:	68db      	ldr	r3, [r3, #12]
 8002eb2:	60bb      	str	r3, [r7, #8]
  
  usbcfg.b.force_host = 0;
 8002eb4:	7afb      	ldrb	r3, [r7, #11]
 8002eb6:	f36f 1345 	bfc	r3, #5, #1
 8002eba:	72fb      	strb	r3, [r7, #11]
  usbcfg.b.force_dev = 0;
 8002ebc:	7afb      	ldrb	r3, [r7, #11]
 8002ebe:	f36f 1386 	bfc	r3, #6, #1
 8002ec2:	72fb      	strb	r3, [r7, #11]
  
  if ( mode == HOST_MODE)
 8002ec4:	78fb      	ldrb	r3, [r7, #3]
 8002ec6:	2b01      	cmp	r3, #1
 8002ec8:	d104      	bne.n	8002ed4 <USB_OTG_SetCurrentMode+0x38>
  {
    usbcfg.b.force_host = 1;
 8002eca:	7afb      	ldrb	r3, [r7, #11]
 8002ecc:	f043 0320 	orr.w	r3, r3, #32
 8002ed0:	72fb      	strb	r3, [r7, #11]
 8002ed2:	e006      	b.n	8002ee2 <USB_OTG_SetCurrentMode+0x46>
  }
  else if ( mode == DEVICE_MODE)
 8002ed4:	78fb      	ldrb	r3, [r7, #3]
 8002ed6:	2b00      	cmp	r3, #0
 8002ed8:	d103      	bne.n	8002ee2 <USB_OTG_SetCurrentMode+0x46>
  {
    usbcfg.b.force_dev = 1;
 8002eda:	7afb      	ldrb	r3, [r7, #11]
 8002edc:	f043 0340 	orr.w	r3, r3, #64	; 0x40
 8002ee0:	72fb      	strb	r3, [r7, #11]
  }
  
  USB_OTG_WRITE_REG32(&pdev->regs.GREGS->GUSBCFG, usbcfg.d32);
 8002ee2:	687b      	ldr	r3, [r7, #4]
 8002ee4:	68db      	ldr	r3, [r3, #12]
 8002ee6:	68ba      	ldr	r2, [r7, #8]
 8002ee8:	60da      	str	r2, [r3, #12]
  USB_OTG_BSP_mDelay(50);
 8002eea:	2032      	movs	r0, #50	; 0x32
 8002eec:	f7ff fcea 	bl	80028c4 <USB_OTG_BSP_mDelay>
  return status;
 8002ef0:	7bfb      	ldrb	r3, [r7, #15]
}
 8002ef2:	4618      	mov	r0, r3
 8002ef4:	3710      	adds	r7, #16
 8002ef6:	46bd      	mov	sp, r7
 8002ef8:	bd80      	pop	{r7, pc}

08002efa <USB_OTG_GetMode>:
* @brief  USB_OTG_GetMode : Get current mode
* @param  pdev : Selected device
* @retval current mode
*/
uint32_t USB_OTG_GetMode(USB_OTG_CORE_HANDLE *pdev)
{
 8002efa:	b480      	push	{r7}
 8002efc:	b083      	sub	sp, #12
 8002efe:	af00      	add	r7, sp, #0
 8002f00:	6078      	str	r0, [r7, #4]
  return (USB_OTG_READ_REG32(&pdev->regs.GREGS->GINTSTS ) & 0x1);
 8002f02:	687b      	ldr	r3, [r7, #4]
 8002f04:	68db      	ldr	r3, [r3, #12]
 8002f06:	695b      	ldr	r3, [r3, #20]
 8002f08:	f003 0301 	and.w	r3, r3, #1
}
 8002f0c:	4618      	mov	r0, r3
 8002f0e:	370c      	adds	r7, #12
 8002f10:	46bd      	mov	sp, r7
 8002f12:	f85d 7b04 	ldr.w	r7, [sp], #4
 8002f16:	4770      	bx	lr

08002f18 <USB_OTG_IsDeviceMode>:
* @brief  USB_OTG_IsDeviceMode : Check if it is device mode
* @param  pdev : Selected device
* @retval num_in_ep
*/
uint8_t USB_OTG_IsDeviceMode(USB_OTG_CORE_HANDLE *pdev)
{
 8002f18:	b580      	push	{r7, lr}
 8002f1a:	b082      	sub	sp, #8
 8002f1c:	af00      	add	r7, sp, #0
 8002f1e:	6078      	str	r0, [r7, #4]
  return (USB_OTG_GetMode(pdev) != HOST_MODE);
 8002f20:	6878      	ldr	r0, [r7, #4]
 8002f22:	f7ff ffea 	bl	8002efa <USB_OTG_GetMode>
 8002f26:	4603      	mov	r3, r0
 8002f28:	2b01      	cmp	r3, #1
 8002f2a:	bf14      	ite	ne
 8002f2c:	2301      	movne	r3, #1
 8002f2e:	2300      	moveq	r3, #0
 8002f30:	b2db      	uxtb	r3, r3
}
 8002f32:	4618      	mov	r0, r3
 8002f34:	3708      	adds	r7, #8
 8002f36:	46bd      	mov	sp, r7
 8002f38:	bd80      	pop	{r7, pc}

08002f3a <USB_OTG_ReadCoreItr>:
* @brief  USB_OTG_ReadCoreItr : returns the Core Interrupt register
* @param  pdev : Selected device
* @retval Status
*/
uint32_t USB_OTG_ReadCoreItr(USB_OTG_CORE_HANDLE *pdev)
{
 8002f3a:	b480      	push	{r7}
 8002f3c:	b085      	sub	sp, #20
 8002f3e:	af00      	add	r7, sp, #0
 8002f40:	6078      	str	r0, [r7, #4]
  uint32_t v = 0;
 8002f42:	2300      	movs	r3, #0
 8002f44:	60fb      	str	r3, [r7, #12]
  v = USB_OTG_READ_REG32(&pdev->regs.GREGS->GINTSTS);
 8002f46:	687b      	ldr	r3, [r7, #4]
 8002f48:	68db      	ldr	r3, [r3, #12]
 8002f4a:	695b      	ldr	r3, [r3, #20]
 8002f4c:	60fb      	str	r3, [r7, #12]
  v &= USB_OTG_READ_REG32(&pdev->regs.GREGS->GINTMSK);
 8002f4e:	687b      	ldr	r3, [r7, #4]
 8002f50:	68db      	ldr	r3, [r3, #12]
 8002f52:	699b      	ldr	r3, [r3, #24]
 8002f54:	68fa      	ldr	r2, [r7, #12]
 8002f56:	4013      	ands	r3, r2
 8002f58:	60fb      	str	r3, [r7, #12]
  return v;
 8002f5a:	68fb      	ldr	r3, [r7, #12]
}
 8002f5c:	4618      	mov	r0, r3
 8002f5e:	3714      	adds	r7, #20
 8002f60:	46bd      	mov	sp, r7
 8002f62:	f85d 7b04 	ldr.w	r7, [sp], #4
 8002f66:	4770      	bx	lr

08002f68 <USB_OTG_InitDevSpeed>:
*         depending the PHY type and the enumeration speed of the device.
* @param  pdev : Selected device
* @retval : None
*/
void USB_OTG_InitDevSpeed(USB_OTG_CORE_HANDLE *pdev , uint8_t speed)
{
 8002f68:	b480      	push	{r7}
 8002f6a:	b085      	sub	sp, #20
 8002f6c:	af00      	add	r7, sp, #0
 8002f6e:	6078      	str	r0, [r7, #4]
 8002f70:	460b      	mov	r3, r1
 8002f72:	70fb      	strb	r3, [r7, #3]
  USB_OTG_DCFG_TypeDef   dcfg;
  
  dcfg.d32 = USB_OTG_READ_REG32(&pdev->regs.DREGS->DCFG);
 8002f74:	687b      	ldr	r3, [r7, #4]
 8002f76:	691b      	ldr	r3, [r3, #16]
 8002f78:	681b      	ldr	r3, [r3, #0]
 8002f7a:	60fb      	str	r3, [r7, #12]
  dcfg.b.devspd = speed;
 8002f7c:	78fb      	ldrb	r3, [r7, #3]
 8002f7e:	f003 0303 	and.w	r3, r3, #3
 8002f82:	b2da      	uxtb	r2, r3
 8002f84:	7b3b      	ldrb	r3, [r7, #12]
 8002f86:	f362 0301 	bfi	r3, r2, #0, #2
 8002f8a:	733b      	strb	r3, [r7, #12]
  USB_OTG_WRITE_REG32(&pdev->regs.DREGS->DCFG, dcfg.d32);
 8002f8c:	687b      	ldr	r3, [r7, #4]
 8002f8e:	691b      	ldr	r3, [r3, #16]
 8002f90:	68fa      	ldr	r2, [r7, #12]
 8002f92:	601a      	str	r2, [r3, #0]
}
 8002f94:	bf00      	nop
 8002f96:	3714      	adds	r7, #20
 8002f98:	46bd      	mov	sp, r7
 8002f9a:	f85d 7b04 	ldr.w	r7, [sp], #4
 8002f9e:	4770      	bx	lr

08002fa0 <USB_OTG_CoreInitDev>:
*         for device mode
* @param  pdev : Selected device
* @retval USB_OTG_STS : status
*/
USB_OTG_STS USB_OTG_CoreInitDev (USB_OTG_CORE_HANDLE *pdev)
{
 8002fa0:	b580      	push	{r7, lr}
 8002fa2:	b08c      	sub	sp, #48	; 0x30
 8002fa4:	af00      	add	r7, sp, #0
 8002fa6:	6078      	str	r0, [r7, #4]
  USB_OTG_STS             status       = USB_OTG_OK;
 8002fa8:	2300      	movs	r3, #0
 8002faa:	f887 302b 	strb.w	r3, [r7, #43]	; 0x2b
  USB_OTG_FSIZ_TypeDef    nptxfifosize;
  USB_OTG_FSIZ_TypeDef    txfifosize;
  USB_OTG_DIEPMSK_TypeDef msk;
  USB_OTG_DTHRCTL_TypeDef dthrctl;  
  
  depctl.d32 = 0;
 8002fae:	2300      	movs	r3, #0
 8002fb0:	627b      	str	r3, [r7, #36]	; 0x24
  dcfg.d32 = 0;
 8002fb2:	2300      	movs	r3, #0
 8002fb4:	623b      	str	r3, [r7, #32]
  nptxfifosize.d32 = 0;
 8002fb6:	2300      	movs	r3, #0
 8002fb8:	61fb      	str	r3, [r7, #28]
  txfifosize.d32 = 0;
 8002fba:	2300      	movs	r3, #0
 8002fbc:	61bb      	str	r3, [r7, #24]
  msk.d32 = 0;
 8002fbe:	2300      	movs	r3, #0
 8002fc0:	617b      	str	r3, [r7, #20]
  
  /* Restart the Phy Clock */
  USB_OTG_WRITE_REG32(pdev->regs.PCGCCTL, 0);
 8002fc2:	687b      	ldr	r3, [r7, #4]
 8002fc4:	f8d3 310c 	ldr.w	r3, [r3, #268]	; 0x10c
 8002fc8:	2200      	movs	r2, #0
 8002fca:	601a      	str	r2, [r3, #0]
  /* Device configuration register */
  dcfg.d32 = USB_OTG_READ_REG32( &pdev->regs.DREGS->DCFG);
 8002fcc:	687b      	ldr	r3, [r7, #4]
 8002fce:	691b      	ldr	r3, [r3, #16]
 8002fd0:	681b      	ldr	r3, [r3, #0]
 8002fd2:	623b      	str	r3, [r7, #32]
  dcfg.b.perfrint = DCFG_FRAME_INTERVAL_80;
 8002fd4:	f897 3021 	ldrb.w	r3, [r7, #33]	; 0x21
 8002fd8:	f36f 03c4 	bfc	r3, #3, #2
 8002fdc:	f887 3021 	strb.w	r3, [r7, #33]	; 0x21
  USB_OTG_WRITE_REG32( &pdev->regs.DREGS->DCFG, dcfg.d32 );
 8002fe0:	687b      	ldr	r3, [r7, #4]
 8002fe2:	691b      	ldr	r3, [r3, #16]
 8002fe4:	6a3a      	ldr	r2, [r7, #32]
 8002fe6:	601a      	str	r2, [r3, #0]
  
#ifdef USB_OTG_FS_CORE
  if(pdev->cfg.coreID == USB_OTG_FS_CORE_ID  )
 8002fe8:	687b      	ldr	r3, [r7, #4]
 8002fea:	7adb      	ldrb	r3, [r3, #11]
 8002fec:	2b01      	cmp	r3, #1
 8002fee:	d133      	bne.n	8003058 <USB_OTG_CoreInitDev+0xb8>
  {  
    
    /* Set Full speed phy */
    USB_OTG_InitDevSpeed (pdev , USB_OTG_SPEED_PARAM_FULL);
 8002ff0:	2103      	movs	r1, #3
 8002ff2:	6878      	ldr	r0, [r7, #4]
 8002ff4:	f7ff ffb8 	bl	8002f68 <USB_OTG_InitDevSpeed>
    
    /* set Rx FIFO size */
    USB_OTG_WRITE_REG32(&pdev->regs.GREGS->GRXFSIZ, RX_FIFO_FS_SIZE);
 8002ff8:	687b      	ldr	r3, [r7, #4]
 8002ffa:	68db      	ldr	r3, [r3, #12]
 8002ffc:	2280      	movs	r2, #128	; 0x80
 8002ffe:	625a      	str	r2, [r3, #36]	; 0x24
    
    /* EP0 TX*/
    nptxfifosize.b.depth     = TX0_FIFO_FS_SIZE;
 8003000:	2320      	movs	r3, #32
 8003002:	83fb      	strh	r3, [r7, #30]
    nptxfifosize.b.startaddr = RX_FIFO_FS_SIZE;
 8003004:	2380      	movs	r3, #128	; 0x80
 8003006:	83bb      	strh	r3, [r7, #28]
    USB_OTG_WRITE_REG32( &pdev->regs.GREGS->DIEPTXF0_HNPTXFSIZ, nptxfifosize.d32 );
 8003008:	687b      	ldr	r3, [r7, #4]
 800300a:	68db      	ldr	r3, [r3, #12]
 800300c:	69fa      	ldr	r2, [r7, #28]
 800300e:	629a      	str	r2, [r3, #40]	; 0x28
    
    
    /* EP1 TX*/
    txfifosize.b.startaddr = nptxfifosize.b.startaddr + nptxfifosize.b.depth;
 8003010:	8bba      	ldrh	r2, [r7, #28]
 8003012:	8bfb      	ldrh	r3, [r7, #30]
 8003014:	4413      	add	r3, r2
 8003016:	b29b      	uxth	r3, r3
 8003018:	833b      	strh	r3, [r7, #24]
    txfifosize.b.depth = TX1_FIFO_FS_SIZE;
 800301a:	2380      	movs	r3, #128	; 0x80
 800301c:	837b      	strh	r3, [r7, #26]
    USB_OTG_WRITE_REG32( &pdev->regs.GREGS->DIEPTXF[0], txfifosize.d32 );
 800301e:	687b      	ldr	r3, [r7, #4]
 8003020:	68db      	ldr	r3, [r3, #12]
 8003022:	69ba      	ldr	r2, [r7, #24]
 8003024:	f8c3 2104 	str.w	r2, [r3, #260]	; 0x104
    
    
    /* EP2 TX*/
    txfifosize.b.startaddr += txfifosize.b.depth;
 8003028:	8b3a      	ldrh	r2, [r7, #24]
 800302a:	8b7b      	ldrh	r3, [r7, #26]
 800302c:	4413      	add	r3, r2
 800302e:	b29b      	uxth	r3, r3
 8003030:	833b      	strh	r3, [r7, #24]
    txfifosize.b.depth = TX2_FIFO_FS_SIZE;
 8003032:	2320      	movs	r3, #32
 8003034:	837b      	strh	r3, [r7, #26]
    USB_OTG_WRITE_REG32( &pdev->regs.GREGS->DIEPTXF[1], txfifosize.d32 );
 8003036:	687b      	ldr	r3, [r7, #4]
 8003038:	68db      	ldr	r3, [r3, #12]
 800303a:	69ba      	ldr	r2, [r7, #24]
 800303c:	f8c3 2108 	str.w	r2, [r3, #264]	; 0x108
    
    
    /* EP3 TX*/  
    txfifosize.b.startaddr += txfifosize.b.depth;
 8003040:	8b3a      	ldrh	r2, [r7, #24]
 8003042:	8b7b      	ldrh	r3, [r7, #26]
 8003044:	4413      	add	r3, r2
 8003046:	b29b      	uxth	r3, r3
 8003048:	833b      	strh	r3, [r7, #24]
    txfifosize.b.depth = TX3_FIFO_FS_SIZE;
 800304a:	2300      	movs	r3, #0
 800304c:	837b      	strh	r3, [r7, #26]
    USB_OTG_WRITE_REG32( &pdev->regs.GREGS->DIEPTXF[2], txfifosize.d32 );
 800304e:	687b      	ldr	r3, [r7, #4]
 8003050:	68db      	ldr	r3, [r3, #12]
 8003052:	69ba      	ldr	r2, [r7, #24]
 8003054:	f8c3 210c 	str.w	r2, [r3, #268]	; 0x10c
    txfifosize.b.depth = TX5_FIFO_HS_SIZE;
    USB_OTG_WRITE_REG32( &pdev->regs.GREGS->DIEPTXF[4], txfifosize.d32 );
  }
#endif  
  /* Flush the FIFOs */
  USB_OTG_FlushTxFifo(pdev , 0x10); /* all Tx FIFOs */
 8003058:	2110      	movs	r1, #16
 800305a:	6878      	ldr	r0, [r7, #4]
 800305c:	f7ff feb4 	bl	8002dc8 <USB_OTG_FlushTxFifo>
  USB_OTG_FlushRxFifo(pdev);
 8003060:	6878      	ldr	r0, [r7, #4]
 8003062:	f7ff feeb 	bl	8002e3c <USB_OTG_FlushRxFifo>
  /* Clear all pending Device Interrupts */
  USB_OTG_WRITE_REG32( &pdev->regs.DREGS->DIEPMSK, 0 );
 8003066:	687b      	ldr	r3, [r7, #4]
 8003068:	691b      	ldr	r3, [r3, #16]
 800306a:	2200      	movs	r2, #0
 800306c:	611a      	str	r2, [r3, #16]
  USB_OTG_WRITE_REG32( &pdev->regs.DREGS->DOEPMSK, 0 );
 800306e:	687b      	ldr	r3, [r7, #4]
 8003070:	691b      	ldr	r3, [r3, #16]
 8003072:	2200      	movs	r2, #0
 8003074:	615a      	str	r2, [r3, #20]
  USB_OTG_WRITE_REG32( &pdev->regs.DREGS->DAINT, 0xFFFFFFFF );
 8003076:	687b      	ldr	r3, [r7, #4]
 8003078:	691b      	ldr	r3, [r3, #16]
 800307a:	f04f 32ff 	mov.w	r2, #4294967295
 800307e:	619a      	str	r2, [r3, #24]
  USB_OTG_WRITE_REG32( &pdev->regs.DREGS->DAINTMSK, 0 );
 8003080:	687b      	ldr	r3, [r7, #4]
 8003082:	691b      	ldr	r3, [r3, #16]
 8003084:	2200      	movs	r2, #0
 8003086:	61da      	str	r2, [r3, #28]
  
  for (i = 0; i < pdev->cfg.dev_endpoints; i++)
 8003088:	2300      	movs	r3, #0
 800308a:	62fb      	str	r3, [r7, #44]	; 0x2c
 800308c:	e03a      	b.n	8003104 <USB_OTG_CoreInitDev+0x164>
  {
    depctl.d32 = USB_OTG_READ_REG32(&pdev->regs.INEP_REGS[i]->DIEPCTL);
 800308e:	687a      	ldr	r2, [r7, #4]
 8003090:	6afb      	ldr	r3, [r7, #44]	; 0x2c
 8003092:	3304      	adds	r3, #4
 8003094:	009b      	lsls	r3, r3, #2
 8003096:	4413      	add	r3, r2
 8003098:	689b      	ldr	r3, [r3, #8]
 800309a:	681b      	ldr	r3, [r3, #0]
 800309c:	627b      	str	r3, [r7, #36]	; 0x24
    if (depctl.b.epena)
 800309e:	f897 3027 	ldrb.w	r3, [r7, #39]	; 0x27
 80030a2:	f023 037f 	bic.w	r3, r3, #127	; 0x7f
 80030a6:	b2db      	uxtb	r3, r3
 80030a8:	2b00      	cmp	r3, #0
 80030aa:	d00e      	beq.n	80030ca <USB_OTG_CoreInitDev+0x12a>
    {
      depctl.d32 = 0;
 80030ac:	2300      	movs	r3, #0
 80030ae:	627b      	str	r3, [r7, #36]	; 0x24
      depctl.b.epdis = 1;
 80030b0:	f897 3027 	ldrb.w	r3, [r7, #39]	; 0x27
 80030b4:	f043 0340 	orr.w	r3, r3, #64	; 0x40
 80030b8:	f887 3027 	strb.w	r3, [r7, #39]	; 0x27
      depctl.b.snak = 1;
 80030bc:	f897 3027 	ldrb.w	r3, [r7, #39]	; 0x27
 80030c0:	f043 0308 	orr.w	r3, r3, #8
 80030c4:	f887 3027 	strb.w	r3, [r7, #39]	; 0x27
 80030c8:	e001      	b.n	80030ce <USB_OTG_CoreInitDev+0x12e>
    }
    else
    {
      depctl.d32 = 0;
 80030ca:	2300      	movs	r3, #0
 80030cc:	627b      	str	r3, [r7, #36]	; 0x24
    }
    USB_OTG_WRITE_REG32( &pdev->regs.INEP_REGS[i]->DIEPCTL, depctl.d32);
 80030ce:	687a      	ldr	r2, [r7, #4]
 80030d0:	6afb      	ldr	r3, [r7, #44]	; 0x2c
 80030d2:	3304      	adds	r3, #4
 80030d4:	009b      	lsls	r3, r3, #2
 80030d6:	4413      	add	r3, r2
 80030d8:	689b      	ldr	r3, [r3, #8]
 80030da:	6a7a      	ldr	r2, [r7, #36]	; 0x24
 80030dc:	601a      	str	r2, [r3, #0]
    USB_OTG_WRITE_REG32( &pdev->regs.INEP_REGS[i]->DIEPTSIZ, 0);
 80030de:	687a      	ldr	r2, [r7, #4]
 80030e0:	6afb      	ldr	r3, [r7, #44]	; 0x2c
 80030e2:	3304      	adds	r3, #4
 80030e4:	009b      	lsls	r3, r3, #2
 80030e6:	4413      	add	r3, r2
 80030e8:	689b      	ldr	r3, [r3, #8]
 80030ea:	2200      	movs	r2, #0
 80030ec:	611a      	str	r2, [r3, #16]
    USB_OTG_WRITE_REG32( &pdev->regs.INEP_REGS[i]->DIEPINT, 0xFF);
 80030ee:	687a      	ldr	r2, [r7, #4]
 80030f0:	6afb      	ldr	r3, [r7, #44]	; 0x2c
 80030f2:	3304      	adds	r3, #4
 80030f4:	009b      	lsls	r3, r3, #2
 80030f6:	4413      	add	r3, r2
 80030f8:	689b      	ldr	r3, [r3, #8]
 80030fa:	22ff      	movs	r2, #255	; 0xff
 80030fc:	609a      	str	r2, [r3, #8]
  for (i = 0; i < pdev->cfg.dev_endpoints; i++)
 80030fe:	6afb      	ldr	r3, [r7, #44]	; 0x2c
 8003100:	3301      	adds	r3, #1
 8003102:	62fb      	str	r3, [r7, #44]	; 0x2c
 8003104:	687b      	ldr	r3, [r7, #4]
 8003106:	785b      	ldrb	r3, [r3, #1]
 8003108:	461a      	mov	r2, r3
 800310a:	6afb      	ldr	r3, [r7, #44]	; 0x2c
 800310c:	429a      	cmp	r2, r3
 800310e:	d8be      	bhi.n	800308e <USB_OTG_CoreInitDev+0xee>
  }
  for (i = 0; i <  pdev->cfg.dev_endpoints; i++)
 8003110:	2300      	movs	r3, #0
 8003112:	62fb      	str	r3, [r7, #44]	; 0x2c
 8003114:	e035      	b.n	8003182 <USB_OTG_CoreInitDev+0x1e2>
  {
    USB_OTG_DEPCTL_TypeDef  depctl;
    depctl.d32 = USB_OTG_READ_REG32(&pdev->regs.OUTEP_REGS[i]->DOEPCTL);
 8003116:	687a      	ldr	r2, [r7, #4]
 8003118:	6afb      	ldr	r3, [r7, #44]	; 0x2c
 800311a:	3314      	adds	r3, #20
 800311c:	009b      	lsls	r3, r3, #2
 800311e:	4413      	add	r3, r2
 8003120:	685b      	ldr	r3, [r3, #4]
 8003122:	681b      	ldr	r3, [r3, #0]
 8003124:	60fb      	str	r3, [r7, #12]
    if (depctl.b.epena)
 8003126:	7bfb      	ldrb	r3, [r7, #15]
 8003128:	f023 037f 	bic.w	r3, r3, #127	; 0x7f
 800312c:	b2db      	uxtb	r3, r3
 800312e:	2b00      	cmp	r3, #0
 8003130:	d00a      	beq.n	8003148 <USB_OTG_CoreInitDev+0x1a8>
    {
      depctl.d32 = 0;
 8003132:	2300      	movs	r3, #0
 8003134:	60fb      	str	r3, [r7, #12]
      depctl.b.epdis = 1;
 8003136:	7bfb      	ldrb	r3, [r7, #15]
 8003138:	f043 0340 	orr.w	r3, r3, #64	; 0x40
 800313c:	73fb      	strb	r3, [r7, #15]
      depctl.b.snak = 1;
 800313e:	7bfb      	ldrb	r3, [r7, #15]
 8003140:	f043 0308 	orr.w	r3, r3, #8
 8003144:	73fb      	strb	r3, [r7, #15]
 8003146:	e001      	b.n	800314c <USB_OTG_CoreInitDev+0x1ac>
    }
    else
    {
      depctl.d32 = 0;
 8003148:	2300      	movs	r3, #0
 800314a:	60fb      	str	r3, [r7, #12]
    }
    USB_OTG_WRITE_REG32( &pdev->regs.OUTEP_REGS[i]->DOEPCTL, depctl.d32);
 800314c:	687a      	ldr	r2, [r7, #4]
 800314e:	6afb      	ldr	r3, [r7, #44]	; 0x2c
 8003150:	3314      	adds	r3, #20
 8003152:	009b      	lsls	r3, r3, #2
 8003154:	4413      	add	r3, r2
 8003156:	685b      	ldr	r3, [r3, #4]
 8003158:	68fa      	ldr	r2, [r7, #12]
 800315a:	601a      	str	r2, [r3, #0]
    USB_OTG_WRITE_REG32( &pdev->regs.OUTEP_REGS[i]->DOEPTSIZ, 0);
 800315c:	687a      	ldr	r2, [r7, #4]
 800315e:	6afb      	ldr	r3, [r7, #44]	; 0x2c
 8003160:	3314      	adds	r3, #20
 8003162:	009b      	lsls	r3, r3, #2
 8003164:	4413      	add	r3, r2
 8003166:	685b      	ldr	r3, [r3, #4]
 8003168:	2200      	movs	r2, #0
 800316a:	611a      	str	r2, [r3, #16]
    USB_OTG_WRITE_REG32( &pdev->regs.OUTEP_REGS[i]->DOEPINT, 0xFF);
 800316c:	687a      	ldr	r2, [r7, #4]
 800316e:	6afb      	ldr	r3, [r7, #44]	; 0x2c
 8003170:	3314      	adds	r3, #20
 8003172:	009b      	lsls	r3, r3, #2
 8003174:	4413      	add	r3, r2
 8003176:	685b      	ldr	r3, [r3, #4]
 8003178:	22ff      	movs	r2, #255	; 0xff
 800317a:	609a      	str	r2, [r3, #8]
  for (i = 0; i <  pdev->cfg.dev_endpoints; i++)
 800317c:	6afb      	ldr	r3, [r7, #44]	; 0x2c
 800317e:	3301      	adds	r3, #1
 8003180:	62fb      	str	r3, [r7, #44]	; 0x2c
 8003182:	687b      	ldr	r3, [r7, #4]
 8003184:	785b      	ldrb	r3, [r3, #1]
 8003186:	461a      	mov	r2, r3
 8003188:	6afb      	ldr	r3, [r7, #44]	; 0x2c
 800318a:	429a      	cmp	r2, r3
 800318c:	d8c3      	bhi.n	8003116 <USB_OTG_CoreInitDev+0x176>
  }
  msk.d32 = 0;
 800318e:	2300      	movs	r3, #0
 8003190:	617b      	str	r3, [r7, #20]
  msk.b.txfifoundrn = 1;
 8003192:	7d7b      	ldrb	r3, [r7, #21]
 8003194:	f043 0301 	orr.w	r3, r3, #1
 8003198:	757b      	strb	r3, [r7, #21]
  USB_OTG_MODIFY_REG32(&pdev->regs.DREGS->DIEPMSK, msk.d32, msk.d32);
 800319a:	687b      	ldr	r3, [r7, #4]
 800319c:	691b      	ldr	r3, [r3, #16]
 800319e:	687a      	ldr	r2, [r7, #4]
 80031a0:	6912      	ldr	r2, [r2, #16]
 80031a2:	6911      	ldr	r1, [r2, #16]
 80031a4:	697a      	ldr	r2, [r7, #20]
 80031a6:	43d2      	mvns	r2, r2
 80031a8:	4011      	ands	r1, r2
 80031aa:	697a      	ldr	r2, [r7, #20]
 80031ac:	430a      	orrs	r2, r1
 80031ae:	611a      	str	r2, [r3, #16]
  
  if (pdev->cfg.dma_enable == 1)
 80031b0:	687b      	ldr	r3, [r7, #4]
 80031b2:	78db      	ldrb	r3, [r3, #3]
 80031b4:	2b01      	cmp	r3, #1
 80031b6:	d11b      	bne.n	80031f0 <USB_OTG_CoreInitDev+0x250>
  {
    dthrctl.d32 = 0;
 80031b8:	2300      	movs	r3, #0
 80031ba:	613b      	str	r3, [r7, #16]
    dthrctl.b.non_iso_thr_en = 1;
 80031bc:	7c3b      	ldrb	r3, [r7, #16]
 80031be:	f043 0301 	orr.w	r3, r3, #1
 80031c2:	743b      	strb	r3, [r7, #16]
    dthrctl.b.iso_thr_en = 1;
 80031c4:	7c3b      	ldrb	r3, [r7, #16]
 80031c6:	f043 0302 	orr.w	r3, r3, #2
 80031ca:	743b      	strb	r3, [r7, #16]
    dthrctl.b.tx_thr_len = 64;
 80031cc:	8a3b      	ldrh	r3, [r7, #16]
 80031ce:	2240      	movs	r2, #64	; 0x40
 80031d0:	f362 038a 	bfi	r3, r2, #2, #9
 80031d4:	823b      	strh	r3, [r7, #16]
    dthrctl.b.rx_thr_en = 1;
 80031d6:	7cbb      	ldrb	r3, [r7, #18]
 80031d8:	f043 0301 	orr.w	r3, r3, #1
 80031dc:	74bb      	strb	r3, [r7, #18]
    dthrctl.b.rx_thr_len = 64;
 80031de:	8a7b      	ldrh	r3, [r7, #18]
 80031e0:	2240      	movs	r2, #64	; 0x40
 80031e2:	f362 0349 	bfi	r3, r2, #1, #9
 80031e6:	827b      	strh	r3, [r7, #18]
    USB_OTG_WRITE_REG32(&pdev->regs.DREGS->DTHRCTL, dthrctl.d32);  
 80031e8:	687b      	ldr	r3, [r7, #4]
 80031ea:	691b      	ldr	r3, [r3, #16]
 80031ec:	693a      	ldr	r2, [r7, #16]
 80031ee:	631a      	str	r2, [r3, #48]	; 0x30
  }
  USB_OTG_EnableDevInt(pdev);
 80031f0:	6878      	ldr	r0, [r7, #4]
 80031f2:	f000 f806 	bl	8003202 <USB_OTG_EnableDevInt>
  return status;
 80031f6:	f897 302b 	ldrb.w	r3, [r7, #43]	; 0x2b
}
 80031fa:	4618      	mov	r0, r3
 80031fc:	3730      	adds	r7, #48	; 0x30
 80031fe:	46bd      	mov	sp, r7
 8003200:	bd80      	pop	{r7, pc}

08003202 <USB_OTG_EnableDevInt>:
* @brief  USB_OTG_EnableDevInt : Enables the Device mode interrupts
* @param  pdev : Selected device
* @retval USB_OTG_STS : status
*/
USB_OTG_STS USB_OTG_EnableDevInt(USB_OTG_CORE_HANDLE *pdev)
{
 8003202:	b580      	push	{r7, lr}
 8003204:	b084      	sub	sp, #16
 8003206:	af00      	add	r7, sp, #0
 8003208:	6078      	str	r0, [r7, #4]
  USB_OTG_STS status = USB_OTG_OK;
 800320a:	2300      	movs	r3, #0
 800320c:	73fb      	strb	r3, [r7, #15]
  USB_OTG_GINTMSK_TypeDef  intmsk;
  
  intmsk.d32 = 0;
 800320e:	2300      	movs	r3, #0
 8003210:	60bb      	str	r3, [r7, #8]
  
  /* Disable all interrupts. */
  USB_OTG_WRITE_REG32( &pdev->regs.GREGS->GINTMSK, 0);
 8003212:	687b      	ldr	r3, [r7, #4]
 8003214:	68db      	ldr	r3, [r3, #12]
 8003216:	2200      	movs	r2, #0
 8003218:	619a      	str	r2, [r3, #24]
  /* Clear any pending interrupts */
  USB_OTG_WRITE_REG32( &pdev->regs.GREGS->GINTSTS, 0xBFFFFFFF);
 800321a:	687b      	ldr	r3, [r7, #4]
 800321c:	68db      	ldr	r3, [r3, #12]
 800321e:	f06f 4280 	mvn.w	r2, #1073741824	; 0x40000000
 8003222:	615a      	str	r2, [r3, #20]
  /* Enable the common interrupts */
  USB_OTG_EnableCommonInt(pdev);
 8003224:	6878      	ldr	r0, [r7, #4]
 8003226:	f7ff fb6f 	bl	8002908 <USB_OTG_EnableCommonInt>
  
  if (pdev->cfg.dma_enable == 0)
 800322a:	687b      	ldr	r3, [r7, #4]
 800322c:	78db      	ldrb	r3, [r3, #3]
 800322e:	2b00      	cmp	r3, #0
 8003230:	d103      	bne.n	800323a <USB_OTG_EnableDevInt+0x38>
  {
    intmsk.b.rxstsqlvl = 1;
 8003232:	7a3b      	ldrb	r3, [r7, #8]
 8003234:	f043 0310 	orr.w	r3, r3, #16
 8003238:	723b      	strb	r3, [r7, #8]
  }
  
  /* Enable interrupts matching to the Device mode ONLY */
  intmsk.b.usbsuspend = 1;
 800323a:	7a7b      	ldrb	r3, [r7, #9]
 800323c:	f043 0308 	orr.w	r3, r3, #8
 8003240:	727b      	strb	r3, [r7, #9]
  intmsk.b.usbreset   = 1;
 8003242:	7a7b      	ldrb	r3, [r7, #9]
 8003244:	f043 0310 	orr.w	r3, r3, #16
 8003248:	727b      	strb	r3, [r7, #9]
  intmsk.b.enumdone   = 1;
 800324a:	7a7b      	ldrb	r3, [r7, #9]
 800324c:	f043 0320 	orr.w	r3, r3, #32
 8003250:	727b      	strb	r3, [r7, #9]
  intmsk.b.inepintr   = 1;
 8003252:	7abb      	ldrb	r3, [r7, #10]
 8003254:	f043 0304 	orr.w	r3, r3, #4
 8003258:	72bb      	strb	r3, [r7, #10]
  intmsk.b.outepintr  = 1;
 800325a:	7abb      	ldrb	r3, [r7, #10]
 800325c:	f043 0308 	orr.w	r3, r3, #8
 8003260:	72bb      	strb	r3, [r7, #10]
  intmsk.b.sofintr    = 1; 
 8003262:	7a3b      	ldrb	r3, [r7, #8]
 8003264:	f043 0308 	orr.w	r3, r3, #8
 8003268:	723b      	strb	r3, [r7, #8]
  
  intmsk.b.incomplisoin    = 1; 
 800326a:	7abb      	ldrb	r3, [r7, #10]
 800326c:	f043 0310 	orr.w	r3, r3, #16
 8003270:	72bb      	strb	r3, [r7, #10]
  intmsk.b.incomplisoout    = 1;   
 8003272:	7abb      	ldrb	r3, [r7, #10]
 8003274:	f043 0320 	orr.w	r3, r3, #32
 8003278:	72bb      	strb	r3, [r7, #10]
#ifdef VBUS_SENSING_ENABLED
  intmsk.b.sessreqintr    = 1; 
  intmsk.b.otgintr    = 1;    
#endif  
  USB_OTG_MODIFY_REG32( &pdev->regs.GREGS->GINTMSK, intmsk.d32, intmsk.d32);
 800327a:	687b      	ldr	r3, [r7, #4]
 800327c:	68db      	ldr	r3, [r3, #12]
 800327e:	687a      	ldr	r2, [r7, #4]
 8003280:	68d2      	ldr	r2, [r2, #12]
 8003282:	6991      	ldr	r1, [r2, #24]
 8003284:	68ba      	ldr	r2, [r7, #8]
 8003286:	43d2      	mvns	r2, r2
 8003288:	4011      	ands	r1, r2
 800328a:	68ba      	ldr	r2, [r7, #8]
 800328c:	430a      	orrs	r2, r1
 800328e:	619a      	str	r2, [r3, #24]
  return status;
 8003290:	7bfb      	ldrb	r3, [r7, #15]
}
 8003292:	4618      	mov	r0, r3
 8003294:	3710      	adds	r7, #16
 8003296:	46bd      	mov	sp, r7
 8003298:	bd80      	pop	{r7, pc}

0800329a <USB_OTG_GetDeviceSpeed>:
*         Get the device speed from the device status register
* @param  None
* @retval status
*/
enum USB_OTG_SPEED USB_OTG_GetDeviceSpeed (USB_OTG_CORE_HANDLE *pdev)
{
 800329a:	b480      	push	{r7}
 800329c:	b085      	sub	sp, #20
 800329e:	af00      	add	r7, sp, #0
 80032a0:	6078      	str	r0, [r7, #4]
  USB_OTG_DSTS_TypeDef  dsts;
  enum USB_OTG_SPEED speed = USB_SPEED_UNKNOWN;
 80032a2:	2300      	movs	r3, #0
 80032a4:	73fb      	strb	r3, [r7, #15]
  
  
  dsts.d32 = USB_OTG_READ_REG32(&pdev->regs.DREGS->DSTS);
 80032a6:	687b      	ldr	r3, [r7, #4]
 80032a8:	691b      	ldr	r3, [r3, #16]
 80032aa:	689b      	ldr	r3, [r3, #8]
 80032ac:	60bb      	str	r3, [r7, #8]
  
  switch (dsts.b.enumspd)
 80032ae:	7a3b      	ldrb	r3, [r7, #8]
 80032b0:	f3c3 0341 	ubfx	r3, r3, #1, #2
 80032b4:	b2db      	uxtb	r3, r3
 80032b6:	2b02      	cmp	r3, #2
 80032b8:	d009      	beq.n	80032ce <USB_OTG_GetDeviceSpeed+0x34>
 80032ba:	2b03      	cmp	r3, #3
 80032bc:	d004      	beq.n	80032c8 <USB_OTG_GetDeviceSpeed+0x2e>
 80032be:	2b01      	cmp	r3, #1
 80032c0:	d002      	beq.n	80032c8 <USB_OTG_GetDeviceSpeed+0x2e>
  {
  case DSTS_ENUMSPD_HS_PHY_30MHZ_OR_60MHZ:
    speed = USB_SPEED_HIGH;
 80032c2:	2303      	movs	r3, #3
 80032c4:	73fb      	strb	r3, [r7, #15]
    break;
 80032c6:	e005      	b.n	80032d4 <USB_OTG_GetDeviceSpeed+0x3a>
  case DSTS_ENUMSPD_FS_PHY_30MHZ_OR_60MHZ:
  case DSTS_ENUMSPD_FS_PHY_48MHZ:
    speed = USB_SPEED_FULL;
 80032c8:	2302      	movs	r3, #2
 80032ca:	73fb      	strb	r3, [r7, #15]
    break;
 80032cc:	e002      	b.n	80032d4 <USB_OTG_GetDeviceSpeed+0x3a>
    
  case DSTS_ENUMSPD_LS_PHY_6MHZ:
    speed = USB_SPEED_LOW;
 80032ce:	2301      	movs	r3, #1
 80032d0:	73fb      	strb	r3, [r7, #15]
    break;
 80032d2:	bf00      	nop
  }
  
  return speed;
 80032d4:	7bfb      	ldrb	r3, [r7, #15]
}
 80032d6:	4618      	mov	r0, r3
 80032d8:	3714      	adds	r7, #20
 80032da:	46bd      	mov	sp, r7
 80032dc:	f85d 7b04 	ldr.w	r7, [sp], #4
 80032e0:	4770      	bx	lr

080032e2 <USB_OTG_EP0Activate>:
*   for transmitting packets
* @param  None
* @retval USB_OTG_STS : status
*/
USB_OTG_STS  USB_OTG_EP0Activate(USB_OTG_CORE_HANDLE *pdev)
{
 80032e2:	b480      	push	{r7}
 80032e4:	b087      	sub	sp, #28
 80032e6:	af00      	add	r7, sp, #0
 80032e8:	6078      	str	r0, [r7, #4]
  USB_OTG_STS             status = USB_OTG_OK;
 80032ea:	2300      	movs	r3, #0
 80032ec:	75fb      	strb	r3, [r7, #23]
  USB_OTG_DSTS_TypeDef    dsts;
  USB_OTG_DEPCTL_TypeDef  diepctl;
  USB_OTG_DCTL_TypeDef    dctl;
  
  dctl.d32 = 0;
 80032ee:	2300      	movs	r3, #0
 80032f0:	60bb      	str	r3, [r7, #8]
  /* Read the Device Status and Endpoint 0 Control registers */
  dsts.d32 = USB_OTG_READ_REG32(&pdev->regs.DREGS->DSTS);
 80032f2:	687b      	ldr	r3, [r7, #4]
 80032f4:	691b      	ldr	r3, [r3, #16]
 80032f6:	689b      	ldr	r3, [r3, #8]
 80032f8:	613b      	str	r3, [r7, #16]
  diepctl.d32 = USB_OTG_READ_REG32(&pdev->regs.INEP_REGS[0]->DIEPCTL);
 80032fa:	687b      	ldr	r3, [r7, #4]
 80032fc:	699b      	ldr	r3, [r3, #24]
 80032fe:	681b      	ldr	r3, [r3, #0]
 8003300:	60fb      	str	r3, [r7, #12]
  /* Set the MPS of the IN EP based on the enumeration speed */
  switch (dsts.b.enumspd)
 8003302:	7c3b      	ldrb	r3, [r7, #16]
 8003304:	f3c3 0341 	ubfx	r3, r3, #1, #2
 8003308:	b2db      	uxtb	r3, r3
 800330a:	2b02      	cmp	r3, #2
 800330c:	d004      	beq.n	8003318 <USB_OTG_EP0Activate+0x36>
  {
  case DSTS_ENUMSPD_HS_PHY_30MHZ_OR_60MHZ:
  case DSTS_ENUMSPD_FS_PHY_30MHZ_OR_60MHZ:
  case DSTS_ENUMSPD_FS_PHY_48MHZ:
    diepctl.b.mps = DEP0CTL_MPS_64;
 800330e:	89bb      	ldrh	r3, [r7, #12]
 8003310:	f36f 030a 	bfc	r3, #0, #11
 8003314:	81bb      	strh	r3, [r7, #12]
    break;
 8003316:	e005      	b.n	8003324 <USB_OTG_EP0Activate+0x42>
  case DSTS_ENUMSPD_LS_PHY_6MHZ:
    diepctl.b.mps = DEP0CTL_MPS_8;
 8003318:	89bb      	ldrh	r3, [r7, #12]
 800331a:	2203      	movs	r2, #3
 800331c:	f362 030a 	bfi	r3, r2, #0, #11
 8003320:	81bb      	strh	r3, [r7, #12]
    break;
 8003322:	bf00      	nop
  }
  USB_OTG_WRITE_REG32(&pdev->regs.INEP_REGS[0]->DIEPCTL, diepctl.d32);
 8003324:	687b      	ldr	r3, [r7, #4]
 8003326:	699b      	ldr	r3, [r3, #24]
 8003328:	68fa      	ldr	r2, [r7, #12]
 800332a:	601a      	str	r2, [r3, #0]
  dctl.b.cgnpinnak = 1;
 800332c:	7a7b      	ldrb	r3, [r7, #9]
 800332e:	f043 0301 	orr.w	r3, r3, #1
 8003332:	727b      	strb	r3, [r7, #9]
  USB_OTG_MODIFY_REG32(&pdev->regs.DREGS->DCTL, dctl.d32, dctl.d32);
 8003334:	687b      	ldr	r3, [r7, #4]
 8003336:	691b      	ldr	r3, [r3, #16]
 8003338:	687a      	ldr	r2, [r7, #4]
 800333a:	6912      	ldr	r2, [r2, #16]
 800333c:	6851      	ldr	r1, [r2, #4]
 800333e:	68ba      	ldr	r2, [r7, #8]
 8003340:	43d2      	mvns	r2, r2
 8003342:	4011      	ands	r1, r2
 8003344:	68ba      	ldr	r2, [r7, #8]
 8003346:	430a      	orrs	r2, r1
 8003348:	605a      	str	r2, [r3, #4]
  return status;
 800334a:	7dfb      	ldrb	r3, [r7, #23]
}
 800334c:	4618      	mov	r0, r3
 800334e:	371c      	adds	r7, #28
 8003350:	46bd      	mov	sp, r7
 8003352:	f85d 7b04 	ldr.w	r7, [sp], #4
 8003356:	4770      	bx	lr

08003358 <USB_OTG_EPActivate>:
* @brief  USB_OTG_EPActivate : Activates an EP
* @param  pdev : Selected device
* @retval USB_OTG_STS : status
*/
USB_OTG_STS USB_OTG_EPActivate(USB_OTG_CORE_HANDLE *pdev , USB_OTG_EP *ep)
{
 8003358:	b480      	push	{r7}
 800335a:	b087      	sub	sp, #28
 800335c:	af00      	add	r7, sp, #0
 800335e:	6078      	str	r0, [r7, #4]
 8003360:	6039      	str	r1, [r7, #0]
  USB_OTG_STS status = USB_OTG_OK;
 8003362:	2300      	movs	r3, #0
 8003364:	74fb      	strb	r3, [r7, #19]
  USB_OTG_DEPCTL_TypeDef  depctl;
  USB_OTG_DAINT_TypeDef  daintmsk;
  __IO uint32_t *addr;
  
  
  depctl.d32 = 0;
 8003366:	2300      	movs	r3, #0
 8003368:	60fb      	str	r3, [r7, #12]
  daintmsk.d32 = 0;
 800336a:	2300      	movs	r3, #0
 800336c:	60bb      	str	r3, [r7, #8]
  /* Read DEPCTLn register */
  if (ep->is_in == 1)
 800336e:	683b      	ldr	r3, [r7, #0]
 8003370:	785b      	ldrb	r3, [r3, #1]
 8003372:	2b01      	cmp	r3, #1
 8003374:	d10f      	bne.n	8003396 <USB_OTG_EPActivate+0x3e>
  {
    addr = &pdev->regs.INEP_REGS[ep->num]->DIEPCTL;
 8003376:	683b      	ldr	r3, [r7, #0]
 8003378:	781b      	ldrb	r3, [r3, #0]
 800337a:	687a      	ldr	r2, [r7, #4]
 800337c:	3304      	adds	r3, #4
 800337e:	009b      	lsls	r3, r3, #2
 8003380:	4413      	add	r3, r2
 8003382:	689b      	ldr	r3, [r3, #8]
 8003384:	617b      	str	r3, [r7, #20]
    daintmsk.ep.in = 1 << ep->num;
 8003386:	683b      	ldr	r3, [r7, #0]
 8003388:	781b      	ldrb	r3, [r3, #0]
 800338a:	461a      	mov	r2, r3
 800338c:	2301      	movs	r3, #1
 800338e:	4093      	lsls	r3, r2
 8003390:	b29b      	uxth	r3, r3
 8003392:	813b      	strh	r3, [r7, #8]
 8003394:	e00e      	b.n	80033b4 <USB_OTG_EPActivate+0x5c>
  }
  else
  {
    addr = &pdev->regs.OUTEP_REGS[ep->num]->DOEPCTL;
 8003396:	683b      	ldr	r3, [r7, #0]
 8003398:	781b      	ldrb	r3, [r3, #0]
 800339a:	687a      	ldr	r2, [r7, #4]
 800339c:	3314      	adds	r3, #20
 800339e:	009b      	lsls	r3, r3, #2
 80033a0:	4413      	add	r3, r2
 80033a2:	685b      	ldr	r3, [r3, #4]
 80033a4:	617b      	str	r3, [r7, #20]
    daintmsk.ep.out = 1 << ep->num;
 80033a6:	683b      	ldr	r3, [r7, #0]
 80033a8:	781b      	ldrb	r3, [r3, #0]
 80033aa:	461a      	mov	r2, r3
 80033ac:	2301      	movs	r3, #1
 80033ae:	4093      	lsls	r3, r2
 80033b0:	b29b      	uxth	r3, r3
 80033b2:	817b      	strh	r3, [r7, #10]
  }
  /* If the EP is already active don't change the EP Control
  * register. */
  depctl.d32 = USB_OTG_READ_REG32(addr);
 80033b4:	697b      	ldr	r3, [r7, #20]
 80033b6:	681b      	ldr	r3, [r3, #0]
 80033b8:	60fb      	str	r3, [r7, #12]
  if (!depctl.b.usbactep)
 80033ba:	7b7b      	ldrb	r3, [r7, #13]
 80033bc:	f023 037f 	bic.w	r3, r3, #127	; 0x7f
 80033c0:	b2db      	uxtb	r3, r3
 80033c2:	2b00      	cmp	r3, #0
 80033c4:	d127      	bne.n	8003416 <USB_OTG_EPActivate+0xbe>
  {
    depctl.b.mps    = ep->maxpacket;
 80033c6:	683b      	ldr	r3, [r7, #0]
 80033c8:	689b      	ldr	r3, [r3, #8]
 80033ca:	b29b      	uxth	r3, r3
 80033cc:	f3c3 030a 	ubfx	r3, r3, #0, #11
 80033d0:	b29a      	uxth	r2, r3
 80033d2:	89bb      	ldrh	r3, [r7, #12]
 80033d4:	f362 030a 	bfi	r3, r2, #0, #11
 80033d8:	81bb      	strh	r3, [r7, #12]
    depctl.b.eptype = ep->type;
 80033da:	683b      	ldr	r3, [r7, #0]
 80033dc:	78db      	ldrb	r3, [r3, #3]
 80033de:	f003 0303 	and.w	r3, r3, #3
 80033e2:	b2da      	uxtb	r2, r3
 80033e4:	7bbb      	ldrb	r3, [r7, #14]
 80033e6:	f362 0383 	bfi	r3, r2, #2, #2
 80033ea:	73bb      	strb	r3, [r7, #14]
    depctl.b.txfnum = ep->tx_fifo_num;
 80033ec:	683b      	ldr	r3, [r7, #0]
 80033ee:	88db      	ldrh	r3, [r3, #6]
 80033f0:	b2db      	uxtb	r3, r3
 80033f2:	f003 030f 	and.w	r3, r3, #15
 80033f6:	b2da      	uxtb	r2, r3
 80033f8:	89fb      	ldrh	r3, [r7, #14]
 80033fa:	f362 1389 	bfi	r3, r2, #6, #4
 80033fe:	81fb      	strh	r3, [r7, #14]
    depctl.b.setd0pid = 1;
 8003400:	7bfb      	ldrb	r3, [r7, #15]
 8003402:	f043 0310 	orr.w	r3, r3, #16
 8003406:	73fb      	strb	r3, [r7, #15]
    depctl.b.usbactep = 1;
 8003408:	7b7b      	ldrb	r3, [r7, #13]
 800340a:	f043 0380 	orr.w	r3, r3, #128	; 0x80
 800340e:	737b      	strb	r3, [r7, #13]
    USB_OTG_WRITE_REG32(addr, depctl.d32);
 8003410:	68fa      	ldr	r2, [r7, #12]
 8003412:	697b      	ldr	r3, [r7, #20]
 8003414:	601a      	str	r2, [r3, #0]
  {
    USB_OTG_MODIFY_REG32(&pdev->regs.DREGS->DEACHMSK, 0, daintmsk.d32);
  }
  else
#endif   
    USB_OTG_MODIFY_REG32(&pdev->regs.DREGS->DAINTMSK, 0, daintmsk.d32);
 8003416:	687b      	ldr	r3, [r7, #4]
 8003418:	691b      	ldr	r3, [r3, #16]
 800341a:	687a      	ldr	r2, [r7, #4]
 800341c:	6912      	ldr	r2, [r2, #16]
 800341e:	69d1      	ldr	r1, [r2, #28]
 8003420:	68ba      	ldr	r2, [r7, #8]
 8003422:	430a      	orrs	r2, r1
 8003424:	61da      	str	r2, [r3, #28]
  return status;
 8003426:	7cfb      	ldrb	r3, [r7, #19]
}
 8003428:	4618      	mov	r0, r3
 800342a:	371c      	adds	r7, #28
 800342c:	46bd      	mov	sp, r7
 800342e:	f85d 7b04 	ldr.w	r7, [sp], #4
 8003432:	4770      	bx	lr

08003434 <USB_OTG_EPDeactivate>:
* @brief  USB_OTG_EPDeactivate : Deactivates an EP
* @param  pdev : Selected device
* @retval USB_OTG_STS : status
*/
USB_OTG_STS USB_OTG_EPDeactivate(USB_OTG_CORE_HANDLE *pdev , USB_OTG_EP *ep)
{
 8003434:	b480      	push	{r7}
 8003436:	b087      	sub	sp, #28
 8003438:	af00      	add	r7, sp, #0
 800343a:	6078      	str	r0, [r7, #4]
 800343c:	6039      	str	r1, [r7, #0]
  USB_OTG_STS status = USB_OTG_OK;
 800343e:	2300      	movs	r3, #0
 8003440:	74fb      	strb	r3, [r7, #19]
  USB_OTG_DEPCTL_TypeDef  depctl;
  USB_OTG_DAINT_TypeDef  daintmsk;
  __IO uint32_t *addr;
  
  depctl.d32 = 0;
 8003442:	2300      	movs	r3, #0
 8003444:	60fb      	str	r3, [r7, #12]
  daintmsk.d32 = 0;  
 8003446:	2300      	movs	r3, #0
 8003448:	60bb      	str	r3, [r7, #8]
  /* Read DEPCTLn register */
  if (ep->is_in == 1)
 800344a:	683b      	ldr	r3, [r7, #0]
 800344c:	785b      	ldrb	r3, [r3, #1]
 800344e:	2b01      	cmp	r3, #1
 8003450:	d10f      	bne.n	8003472 <USB_OTG_EPDeactivate+0x3e>
  {
    addr = &pdev->regs.INEP_REGS[ep->num]->DIEPCTL;
 8003452:	683b      	ldr	r3, [r7, #0]
 8003454:	781b      	ldrb	r3, [r3, #0]
 8003456:	687a      	ldr	r2, [r7, #4]
 8003458:	3304      	adds	r3, #4
 800345a:	009b      	lsls	r3, r3, #2
 800345c:	4413      	add	r3, r2
 800345e:	689b      	ldr	r3, [r3, #8]
 8003460:	617b      	str	r3, [r7, #20]
    daintmsk.ep.in = 1 << ep->num;
 8003462:	683b      	ldr	r3, [r7, #0]
 8003464:	781b      	ldrb	r3, [r3, #0]
 8003466:	461a      	mov	r2, r3
 8003468:	2301      	movs	r3, #1
 800346a:	4093      	lsls	r3, r2
 800346c:	b29b      	uxth	r3, r3
 800346e:	813b      	strh	r3, [r7, #8]
 8003470:	e00e      	b.n	8003490 <USB_OTG_EPDeactivate+0x5c>
  }
  else
  {
    addr = &pdev->regs.OUTEP_REGS[ep->num]->DOEPCTL;
 8003472:	683b      	ldr	r3, [r7, #0]
 8003474:	781b      	ldrb	r3, [r3, #0]
 8003476:	687a      	ldr	r2, [r7, #4]
 8003478:	3314      	adds	r3, #20
 800347a:	009b      	lsls	r3, r3, #2
 800347c:	4413      	add	r3, r2
 800347e:	685b      	ldr	r3, [r3, #4]
 8003480:	617b      	str	r3, [r7, #20]
    daintmsk.ep.out = 1 << ep->num;
 8003482:	683b      	ldr	r3, [r7, #0]
 8003484:	781b      	ldrb	r3, [r3, #0]
 8003486:	461a      	mov	r2, r3
 8003488:	2301      	movs	r3, #1
 800348a:	4093      	lsls	r3, r2
 800348c:	b29b      	uxth	r3, r3
 800348e:	817b      	strh	r3, [r7, #10]
  }
  depctl.b.usbactep = 0;
 8003490:	7b7b      	ldrb	r3, [r7, #13]
 8003492:	f36f 13c7 	bfc	r3, #7, #1
 8003496:	737b      	strb	r3, [r7, #13]
  USB_OTG_WRITE_REG32(addr, depctl.d32);
 8003498:	68fa      	ldr	r2, [r7, #12]
 800349a:	697b      	ldr	r3, [r7, #20]
 800349c:	601a      	str	r2, [r3, #0]
  {
    USB_OTG_MODIFY_REG32(&pdev->regs.DREGS->DEACHMSK, daintmsk.d32, 0);
  }
  else
#endif    
    USB_OTG_MODIFY_REG32(&pdev->regs.DREGS->DAINTMSK, daintmsk.d32, 0);
 800349e:	687b      	ldr	r3, [r7, #4]
 80034a0:	691b      	ldr	r3, [r3, #16]
 80034a2:	687a      	ldr	r2, [r7, #4]
 80034a4:	6912      	ldr	r2, [r2, #16]
 80034a6:	69d1      	ldr	r1, [r2, #28]
 80034a8:	68ba      	ldr	r2, [r7, #8]
 80034aa:	43d2      	mvns	r2, r2
 80034ac:	400a      	ands	r2, r1
 80034ae:	61da      	str	r2, [r3, #28]
  return status;
 80034b0:	7cfb      	ldrb	r3, [r7, #19]
}
 80034b2:	4618      	mov	r0, r3
 80034b4:	371c      	adds	r7, #28
 80034b6:	46bd      	mov	sp, r7
 80034b8:	f85d 7b04 	ldr.w	r7, [sp], #4
 80034bc:	4770      	bx	lr

080034be <USB_OTG_EPStartXfer>:
*         starts the xfer
* @param  pdev : Selected device
* @retval USB_OTG_STS : status
*/
USB_OTG_STS USB_OTG_EPStartXfer(USB_OTG_CORE_HANDLE *pdev , USB_OTG_EP *ep)
{
 80034be:	b580      	push	{r7, lr}
 80034c0:	b088      	sub	sp, #32
 80034c2:	af00      	add	r7, sp, #0
 80034c4:	6078      	str	r0, [r7, #4]
 80034c6:	6039      	str	r1, [r7, #0]
  USB_OTG_STS status = USB_OTG_OK;
 80034c8:	2300      	movs	r3, #0
 80034ca:	77fb      	strb	r3, [r7, #31]
  USB_OTG_DEPCTL_TypeDef     depctl;
  USB_OTG_DEPXFRSIZ_TypeDef  deptsiz;
  USB_OTG_DSTS_TypeDef       dsts;    
  uint32_t fifoemptymsk = 0;  
 80034cc:	2300      	movs	r3, #0
 80034ce:	61bb      	str	r3, [r7, #24]
  
  depctl.d32 = 0;
 80034d0:	2300      	movs	r3, #0
 80034d2:	617b      	str	r3, [r7, #20]
  deptsiz.d32 = 0;
 80034d4:	2300      	movs	r3, #0
 80034d6:	613b      	str	r3, [r7, #16]
  /* IN endpoint */
  if (ep->is_in == 1)
 80034d8:	683b      	ldr	r3, [r7, #0]
 80034da:	785b      	ldrb	r3, [r3, #1]
 80034dc:	2b01      	cmp	r3, #1
 80034de:	f040 80ab 	bne.w	8003638 <USB_OTG_EPStartXfer+0x17a>
  {
    depctl.d32  = USB_OTG_READ_REG32(&(pdev->regs.INEP_REGS[ep->num]->DIEPCTL));
 80034e2:	683b      	ldr	r3, [r7, #0]
 80034e4:	781b      	ldrb	r3, [r3, #0]
 80034e6:	687a      	ldr	r2, [r7, #4]
 80034e8:	3304      	adds	r3, #4
 80034ea:	009b      	lsls	r3, r3, #2
 80034ec:	4413      	add	r3, r2
 80034ee:	689b      	ldr	r3, [r3, #8]
 80034f0:	681b      	ldr	r3, [r3, #0]
 80034f2:	617b      	str	r3, [r7, #20]
    deptsiz.d32 = USB_OTG_READ_REG32(&(pdev->regs.INEP_REGS[ep->num]->DIEPTSIZ));
 80034f4:	683b      	ldr	r3, [r7, #0]
 80034f6:	781b      	ldrb	r3, [r3, #0]
 80034f8:	687a      	ldr	r2, [r7, #4]
 80034fa:	3304      	adds	r3, #4
 80034fc:	009b      	lsls	r3, r3, #2
 80034fe:	4413      	add	r3, r2
 8003500:	689b      	ldr	r3, [r3, #8]
 8003502:	691b      	ldr	r3, [r3, #16]
 8003504:	613b      	str	r3, [r7, #16]
    /* Zero Length Packet? */
    if (ep->xfer_len == 0)
 8003506:	683b      	ldr	r3, [r7, #0]
 8003508:	695b      	ldr	r3, [r3, #20]
 800350a:	2b00      	cmp	r3, #0
 800350c:	d109      	bne.n	8003522 <USB_OTG_EPStartXfer+0x64>
    {
      deptsiz.b.xfersize = 0;
 800350e:	693b      	ldr	r3, [r7, #16]
 8003510:	f36f 0312 	bfc	r3, #0, #19
 8003514:	613b      	str	r3, [r7, #16]
      deptsiz.b.pktcnt = 1;
 8003516:	8a7b      	ldrh	r3, [r7, #18]
 8003518:	2201      	movs	r2, #1
 800351a:	f362 03cc 	bfi	r3, r2, #3, #10
 800351e:	827b      	strh	r3, [r7, #18]
 8003520:	e022      	b.n	8003568 <USB_OTG_EPStartXfer+0xaa>
      /* Program the transfer size and packet count
      * as follows: xfersize = N * maxpacket +
      * short_packet pktcnt = N + (short_packet
      * exist ? 1 : 0)
      */
      deptsiz.b.xfersize = ep->xfer_len;
 8003522:	683b      	ldr	r3, [r7, #0]
 8003524:	695b      	ldr	r3, [r3, #20]
 8003526:	f3c3 0212 	ubfx	r2, r3, #0, #19
 800352a:	693b      	ldr	r3, [r7, #16]
 800352c:	f362 0312 	bfi	r3, r2, #0, #19
 8003530:	613b      	str	r3, [r7, #16]
      deptsiz.b.pktcnt = (ep->xfer_len - 1 + ep->maxpacket) / ep->maxpacket;
 8003532:	683b      	ldr	r3, [r7, #0]
 8003534:	695a      	ldr	r2, [r3, #20]
 8003536:	683b      	ldr	r3, [r7, #0]
 8003538:	689b      	ldr	r3, [r3, #8]
 800353a:	4413      	add	r3, r2
 800353c:	1e5a      	subs	r2, r3, #1
 800353e:	683b      	ldr	r3, [r7, #0]
 8003540:	689b      	ldr	r3, [r3, #8]
 8003542:	fbb2 f3f3 	udiv	r3, r2, r3
 8003546:	b29b      	uxth	r3, r3
 8003548:	f3c3 0309 	ubfx	r3, r3, #0, #10
 800354c:	b29a      	uxth	r2, r3
 800354e:	8a7b      	ldrh	r3, [r7, #18]
 8003550:	f362 03cc 	bfi	r3, r2, #3, #10
 8003554:	827b      	strh	r3, [r7, #18]
      
      if (ep->type == EP_TYPE_ISOC)
 8003556:	683b      	ldr	r3, [r7, #0]
 8003558:	78db      	ldrb	r3, [r3, #3]
 800355a:	2b01      	cmp	r3, #1
 800355c:	d104      	bne.n	8003568 <USB_OTG_EPStartXfer+0xaa>
      {
        deptsiz.b.mc = 1;
 800355e:	7cfb      	ldrb	r3, [r7, #19]
 8003560:	2201      	movs	r2, #1
 8003562:	f362 1346 	bfi	r3, r2, #5, #2
 8003566:	74fb      	strb	r3, [r7, #19]
      }       
    }
    USB_OTG_WRITE_REG32(&pdev->regs.INEP_REGS[ep->num]->DIEPTSIZ, deptsiz.d32);
 8003568:	683b      	ldr	r3, [r7, #0]
 800356a:	781b      	ldrb	r3, [r3, #0]
 800356c:	687a      	ldr	r2, [r7, #4]
 800356e:	3304      	adds	r3, #4
 8003570:	009b      	lsls	r3, r3, #2
 8003572:	4413      	add	r3, r2
 8003574:	689b      	ldr	r3, [r3, #8]
 8003576:	693a      	ldr	r2, [r7, #16]
 8003578:	611a      	str	r2, [r3, #16]
    
    if (pdev->cfg.dma_enable == 1)
 800357a:	687b      	ldr	r3, [r7, #4]
 800357c:	78db      	ldrb	r3, [r3, #3]
 800357e:	2b01      	cmp	r3, #1
 8003580:	d10a      	bne.n	8003598 <USB_OTG_EPStartXfer+0xda>
    {
      USB_OTG_WRITE_REG32(&pdev->regs.INEP_REGS[ep->num]->DIEPDMA, ep->dma_addr);
 8003582:	683b      	ldr	r3, [r7, #0]
 8003584:	781b      	ldrb	r3, [r3, #0]
 8003586:	687a      	ldr	r2, [r7, #4]
 8003588:	3304      	adds	r3, #4
 800358a:	009b      	lsls	r3, r3, #2
 800358c:	4413      	add	r3, r2
 800358e:	689b      	ldr	r3, [r3, #8]
 8003590:	683a      	ldr	r2, [r7, #0]
 8003592:	6912      	ldr	r2, [r2, #16]
 8003594:	615a      	str	r2, [r3, #20]
 8003596:	e015      	b.n	80035c4 <USB_OTG_EPStartXfer+0x106>
    }
    else
    {
      if (ep->type != EP_TYPE_ISOC)
 8003598:	683b      	ldr	r3, [r7, #0]
 800359a:	78db      	ldrb	r3, [r3, #3]
 800359c:	2b01      	cmp	r3, #1
 800359e:	d011      	beq.n	80035c4 <USB_OTG_EPStartXfer+0x106>
      {
        /* Enable the Tx FIFO Empty Interrupt for this EP */
        if (ep->xfer_len > 0)
 80035a0:	683b      	ldr	r3, [r7, #0]
 80035a2:	695b      	ldr	r3, [r3, #20]
 80035a4:	2b00      	cmp	r3, #0
 80035a6:	d00d      	beq.n	80035c4 <USB_OTG_EPStartXfer+0x106>
        {
          fifoemptymsk = 1 << ep->num;
 80035a8:	683b      	ldr	r3, [r7, #0]
 80035aa:	781b      	ldrb	r3, [r3, #0]
 80035ac:	461a      	mov	r2, r3
 80035ae:	2301      	movs	r3, #1
 80035b0:	4093      	lsls	r3, r2
 80035b2:	61bb      	str	r3, [r7, #24]
          USB_OTG_MODIFY_REG32(&pdev->regs.DREGS->DIEPEMPMSK, 0, fifoemptymsk);
 80035b4:	687b      	ldr	r3, [r7, #4]
 80035b6:	691b      	ldr	r3, [r3, #16]
 80035b8:	687a      	ldr	r2, [r7, #4]
 80035ba:	6912      	ldr	r2, [r2, #16]
 80035bc:	6b51      	ldr	r1, [r2, #52]	; 0x34
 80035be:	69ba      	ldr	r2, [r7, #24]
 80035c0:	430a      	orrs	r2, r1
 80035c2:	635a      	str	r2, [r3, #52]	; 0x34
        }
      }
    }
    
    
    if (ep->type == EP_TYPE_ISOC)
 80035c4:	683b      	ldr	r3, [r7, #0]
 80035c6:	78db      	ldrb	r3, [r3, #3]
 80035c8:	2b01      	cmp	r3, #1
 80035ca:	d114      	bne.n	80035f6 <USB_OTG_EPStartXfer+0x138>
    {
      dsts.d32 = USB_OTG_READ_REG32(&pdev->regs.DREGS->DSTS);
 80035cc:	687b      	ldr	r3, [r7, #4]
 80035ce:	691b      	ldr	r3, [r3, #16]
 80035d0:	689b      	ldr	r3, [r3, #8]
 80035d2:	60fb      	str	r3, [r7, #12]
      
      if (((dsts.b.soffn)&0x1) == 0)
 80035d4:	68fb      	ldr	r3, [r7, #12]
 80035d6:	f3c3 230d 	ubfx	r3, r3, #8, #14
 80035da:	b29b      	uxth	r3, r3
 80035dc:	f003 0301 	and.w	r3, r3, #1
 80035e0:	2b00      	cmp	r3, #0
 80035e2:	d104      	bne.n	80035ee <USB_OTG_EPStartXfer+0x130>
      {
        depctl.b.setd1pid = 1;
 80035e4:	7dfb      	ldrb	r3, [r7, #23]
 80035e6:	f043 0320 	orr.w	r3, r3, #32
 80035ea:	75fb      	strb	r3, [r7, #23]
 80035ec:	e003      	b.n	80035f6 <USB_OTG_EPStartXfer+0x138>
      }
      else
      {
        depctl.b.setd0pid = 1;
 80035ee:	7dfb      	ldrb	r3, [r7, #23]
 80035f0:	f043 0310 	orr.w	r3, r3, #16
 80035f4:	75fb      	strb	r3, [r7, #23]
      }
    } 
    
    /* EP enable, IN data in FIFO */
    depctl.b.cnak = 1;
 80035f6:	7dfb      	ldrb	r3, [r7, #23]
 80035f8:	f043 0304 	orr.w	r3, r3, #4
 80035fc:	75fb      	strb	r3, [r7, #23]
    depctl.b.epena = 1;
 80035fe:	7dfb      	ldrb	r3, [r7, #23]
 8003600:	f043 0380 	orr.w	r3, r3, #128	; 0x80
 8003604:	75fb      	strb	r3, [r7, #23]
    USB_OTG_WRITE_REG32(&pdev->regs.INEP_REGS[ep->num]->DIEPCTL, depctl.d32);
 8003606:	683b      	ldr	r3, [r7, #0]
 8003608:	781b      	ldrb	r3, [r3, #0]
 800360a:	687a      	ldr	r2, [r7, #4]
 800360c:	3304      	adds	r3, #4
 800360e:	009b      	lsls	r3, r3, #2
 8003610:	4413      	add	r3, r2
 8003612:	689b      	ldr	r3, [r3, #8]
 8003614:	697a      	ldr	r2, [r7, #20]
 8003616:	601a      	str	r2, [r3, #0]
    
    if (ep->type == EP_TYPE_ISOC)
 8003618:	683b      	ldr	r3, [r7, #0]
 800361a:	78db      	ldrb	r3, [r3, #3]
 800361c:	2b01      	cmp	r3, #1
 800361e:	f040 8089 	bne.w	8003734 <USB_OTG_EPStartXfer+0x276>
    {
      USB_OTG_WritePacket(pdev, ep->xfer_buff, ep->num, ep->xfer_len);   
 8003622:	683b      	ldr	r3, [r7, #0]
 8003624:	68d9      	ldr	r1, [r3, #12]
 8003626:	683b      	ldr	r3, [r7, #0]
 8003628:	781a      	ldrb	r2, [r3, #0]
 800362a:	683b      	ldr	r3, [r7, #0]
 800362c:	695b      	ldr	r3, [r3, #20]
 800362e:	b29b      	uxth	r3, r3
 8003630:	6878      	ldr	r0, [r7, #4]
 8003632:	f7ff f9d3 	bl	80029dc <USB_OTG_WritePacket>
 8003636:	e07d      	b.n	8003734 <USB_OTG_EPStartXfer+0x276>
    }    
  }
  else
  {
    /* OUT endpoint */
    depctl.d32  = USB_OTG_READ_REG32(&(pdev->regs.OUTEP_REGS[ep->num]->DOEPCTL));
 8003638:	683b      	ldr	r3, [r7, #0]
 800363a:	781b      	ldrb	r3, [r3, #0]
 800363c:	687a      	ldr	r2, [r7, #4]
 800363e:	3314      	adds	r3, #20
 8003640:	009b      	lsls	r3, r3, #2
 8003642:	4413      	add	r3, r2
 8003644:	685b      	ldr	r3, [r3, #4]
 8003646:	681b      	ldr	r3, [r3, #0]
 8003648:	617b      	str	r3, [r7, #20]
    deptsiz.d32 = USB_OTG_READ_REG32(&(pdev->regs.OUTEP_REGS[ep->num]->DOEPTSIZ));
 800364a:	683b      	ldr	r3, [r7, #0]
 800364c:	781b      	ldrb	r3, [r3, #0]
 800364e:	687a      	ldr	r2, [r7, #4]
 8003650:	3314      	adds	r3, #20
 8003652:	009b      	lsls	r3, r3, #2
 8003654:	4413      	add	r3, r2
 8003656:	685b      	ldr	r3, [r3, #4]
 8003658:	691b      	ldr	r3, [r3, #16]
 800365a:	613b      	str	r3, [r7, #16]
    /* Program the transfer size and packet count as follows:
    * pktcnt = N
    * xfersize = N * maxpacket
    */
    if (ep->xfer_len == 0)
 800365c:	683b      	ldr	r3, [r7, #0]
 800365e:	695b      	ldr	r3, [r3, #20]
 8003660:	2b00      	cmp	r3, #0
 8003662:	d10d      	bne.n	8003680 <USB_OTG_EPStartXfer+0x1c2>
    {
      deptsiz.b.xfersize = ep->maxpacket;
 8003664:	683b      	ldr	r3, [r7, #0]
 8003666:	689b      	ldr	r3, [r3, #8]
 8003668:	f3c3 0212 	ubfx	r2, r3, #0, #19
 800366c:	693b      	ldr	r3, [r7, #16]
 800366e:	f362 0312 	bfi	r3, r2, #0, #19
 8003672:	613b      	str	r3, [r7, #16]
      deptsiz.b.pktcnt = 1;
 8003674:	8a7b      	ldrh	r3, [r7, #18]
 8003676:	2201      	movs	r2, #1
 8003678:	f362 03cc 	bfi	r3, r2, #3, #10
 800367c:	827b      	strh	r3, [r7, #18]
 800367e:	e020      	b.n	80036c2 <USB_OTG_EPStartXfer+0x204>
    }
    else
    {
      deptsiz.b.pktcnt = (ep->xfer_len + (ep->maxpacket - 1)) / ep->maxpacket;
 8003680:	683b      	ldr	r3, [r7, #0]
 8003682:	695a      	ldr	r2, [r3, #20]
 8003684:	683b      	ldr	r3, [r7, #0]
 8003686:	689b      	ldr	r3, [r3, #8]
 8003688:	4413      	add	r3, r2
 800368a:	1e5a      	subs	r2, r3, #1
 800368c:	683b      	ldr	r3, [r7, #0]
 800368e:	689b      	ldr	r3, [r3, #8]
 8003690:	fbb2 f3f3 	udiv	r3, r2, r3
 8003694:	b29b      	uxth	r3, r3
 8003696:	f3c3 0309 	ubfx	r3, r3, #0, #10
 800369a:	b29a      	uxth	r2, r3
 800369c:	8a7b      	ldrh	r3, [r7, #18]
 800369e:	f362 03cc 	bfi	r3, r2, #3, #10
 80036a2:	827b      	strh	r3, [r7, #18]
      deptsiz.b.xfersize = deptsiz.b.pktcnt * ep->maxpacket;
 80036a4:	8a7b      	ldrh	r3, [r7, #18]
 80036a6:	f3c3 03c9 	ubfx	r3, r3, #3, #10
 80036aa:	b29b      	uxth	r3, r3
 80036ac:	461a      	mov	r2, r3
 80036ae:	683b      	ldr	r3, [r7, #0]
 80036b0:	689b      	ldr	r3, [r3, #8]
 80036b2:	fb03 f302 	mul.w	r3, r3, r2
 80036b6:	f3c3 0212 	ubfx	r2, r3, #0, #19
 80036ba:	693b      	ldr	r3, [r7, #16]
 80036bc:	f362 0312 	bfi	r3, r2, #0, #19
 80036c0:	613b      	str	r3, [r7, #16]
    }
    USB_OTG_WRITE_REG32(&pdev->regs.OUTEP_REGS[ep->num]->DOEPTSIZ, deptsiz.d32);
 80036c2:	683b      	ldr	r3, [r7, #0]
 80036c4:	781b      	ldrb	r3, [r3, #0]
 80036c6:	687a      	ldr	r2, [r7, #4]
 80036c8:	3314      	adds	r3, #20
 80036ca:	009b      	lsls	r3, r3, #2
 80036cc:	4413      	add	r3, r2
 80036ce:	685b      	ldr	r3, [r3, #4]
 80036d0:	693a      	ldr	r2, [r7, #16]
 80036d2:	611a      	str	r2, [r3, #16]
    
    if (pdev->cfg.dma_enable == 1)
 80036d4:	687b      	ldr	r3, [r7, #4]
 80036d6:	78db      	ldrb	r3, [r3, #3]
 80036d8:	2b01      	cmp	r3, #1
 80036da:	d109      	bne.n	80036f0 <USB_OTG_EPStartXfer+0x232>
    {
      USB_OTG_WRITE_REG32(&pdev->regs.OUTEP_REGS[ep->num]->DOEPDMA, ep->dma_addr);
 80036dc:	683b      	ldr	r3, [r7, #0]
 80036de:	781b      	ldrb	r3, [r3, #0]
 80036e0:	687a      	ldr	r2, [r7, #4]
 80036e2:	3314      	adds	r3, #20
 80036e4:	009b      	lsls	r3, r3, #2
 80036e6:	4413      	add	r3, r2
 80036e8:	685b      	ldr	r3, [r3, #4]
 80036ea:	683a      	ldr	r2, [r7, #0]
 80036ec:	6912      	ldr	r2, [r2, #16]
 80036ee:	615a      	str	r2, [r3, #20]
    }
    
    if (ep->type == EP_TYPE_ISOC)
 80036f0:	683b      	ldr	r3, [r7, #0]
 80036f2:	78db      	ldrb	r3, [r3, #3]
 80036f4:	2b01      	cmp	r3, #1
 80036f6:	d10c      	bne.n	8003712 <USB_OTG_EPStartXfer+0x254>
    {
      if (ep->even_odd_frame)
 80036f8:	683b      	ldr	r3, [r7, #0]
 80036fa:	795b      	ldrb	r3, [r3, #5]
 80036fc:	2b00      	cmp	r3, #0
 80036fe:	d004      	beq.n	800370a <USB_OTG_EPStartXfer+0x24c>
      {
        depctl.b.setd1pid = 1;
 8003700:	7dfb      	ldrb	r3, [r7, #23]
 8003702:	f043 0320 	orr.w	r3, r3, #32
 8003706:	75fb      	strb	r3, [r7, #23]
 8003708:	e003      	b.n	8003712 <USB_OTG_EPStartXfer+0x254>
      }
      else
      {
        depctl.b.setd0pid = 1;
 800370a:	7dfb      	ldrb	r3, [r7, #23]
 800370c:	f043 0310 	orr.w	r3, r3, #16
 8003710:	75fb      	strb	r3, [r7, #23]
      }
    }
    /* EP enable */
    depctl.b.cnak = 1;
 8003712:	7dfb      	ldrb	r3, [r7, #23]
 8003714:	f043 0304 	orr.w	r3, r3, #4
 8003718:	75fb      	strb	r3, [r7, #23]
    depctl.b.epena = 1;
 800371a:	7dfb      	ldrb	r3, [r7, #23]
 800371c:	f043 0380 	orr.w	r3, r3, #128	; 0x80
 8003720:	75fb      	strb	r3, [r7, #23]
    USB_OTG_WRITE_REG32(&pdev->regs.OUTEP_REGS[ep->num]->DOEPCTL, depctl.d32);
 8003722:	683b      	ldr	r3, [r7, #0]
 8003724:	781b      	ldrb	r3, [r3, #0]
 8003726:	687a      	ldr	r2, [r7, #4]
 8003728:	3314      	adds	r3, #20
 800372a:	009b      	lsls	r3, r3, #2
 800372c:	4413      	add	r3, r2
 800372e:	685b      	ldr	r3, [r3, #4]
 8003730:	697a      	ldr	r2, [r7, #20]
 8003732:	601a      	str	r2, [r3, #0]
  }
  return status;
 8003734:	7ffb      	ldrb	r3, [r7, #31]
}
 8003736:	4618      	mov	r0, r3
 8003738:	3720      	adds	r7, #32
 800373a:	46bd      	mov	sp, r7
 800373c:	bd80      	pop	{r7, pc}

0800373e <USB_OTG_EP0StartXfer>:
*         starts the xfer
* @param  pdev : Selected device
* @retval USB_OTG_STS : status
*/
USB_OTG_STS USB_OTG_EP0StartXfer(USB_OTG_CORE_HANDLE *pdev , USB_OTG_EP *ep)
{
 800373e:	b480      	push	{r7}
 8003740:	b089      	sub	sp, #36	; 0x24
 8003742:	af00      	add	r7, sp, #0
 8003744:	6078      	str	r0, [r7, #4]
 8003746:	6039      	str	r1, [r7, #0]
  USB_OTG_STS                 status = USB_OTG_OK;
 8003748:	2300      	movs	r3, #0
 800374a:	77fb      	strb	r3, [r7, #31]
  USB_OTG_DEPCTL_TypeDef      depctl;
  USB_OTG_DEP0XFRSIZ_TypeDef  deptsiz;
  USB_OTG_INEPREGS          *in_regs;
  uint32_t fifoemptymsk = 0;
 800374c:	2300      	movs	r3, #0
 800374e:	61bb      	str	r3, [r7, #24]
  
  depctl.d32   = 0;
 8003750:	2300      	movs	r3, #0
 8003752:	613b      	str	r3, [r7, #16]
  deptsiz.d32  = 0;
 8003754:	2300      	movs	r3, #0
 8003756:	60bb      	str	r3, [r7, #8]
  /* IN endpoint */
  if (ep->is_in == 1)
 8003758:	683b      	ldr	r3, [r7, #0]
 800375a:	785b      	ldrb	r3, [r3, #1]
 800375c:	2b01      	cmp	r3, #1
 800375e:	d170      	bne.n	8003842 <USB_OTG_EP0StartXfer+0x104>
  {
    in_regs = pdev->regs.INEP_REGS[0];
 8003760:	687b      	ldr	r3, [r7, #4]
 8003762:	699b      	ldr	r3, [r3, #24]
 8003764:	617b      	str	r3, [r7, #20]
    depctl.d32  = USB_OTG_READ_REG32(&in_regs->DIEPCTL);
 8003766:	697b      	ldr	r3, [r7, #20]
 8003768:	681b      	ldr	r3, [r3, #0]
 800376a:	613b      	str	r3, [r7, #16]
    deptsiz.d32 = USB_OTG_READ_REG32(&in_regs->DIEPTSIZ);
 800376c:	697b      	ldr	r3, [r7, #20]
 800376e:	691b      	ldr	r3, [r3, #16]
 8003770:	60bb      	str	r3, [r7, #8]
    /* Zero Length Packet? */
    if (ep->xfer_len == 0)
 8003772:	683b      	ldr	r3, [r7, #0]
 8003774:	695b      	ldr	r3, [r3, #20]
 8003776:	2b00      	cmp	r3, #0
 8003778:	d109      	bne.n	800378e <USB_OTG_EP0StartXfer+0x50>
    {
      deptsiz.b.xfersize = 0;
 800377a:	7a3b      	ldrb	r3, [r7, #8]
 800377c:	f36f 0306 	bfc	r3, #0, #7
 8003780:	723b      	strb	r3, [r7, #8]
      deptsiz.b.pktcnt = 1;
 8003782:	7abb      	ldrb	r3, [r7, #10]
 8003784:	2201      	movs	r2, #1
 8003786:	f362 03c4 	bfi	r3, r2, #3, #2
 800378a:	72bb      	strb	r3, [r7, #10]
 800378c:	e023      	b.n	80037d6 <USB_OTG_EP0StartXfer+0x98>
      
    }
    else
    {
      if (ep->xfer_len > ep->maxpacket)
 800378e:	683b      	ldr	r3, [r7, #0]
 8003790:	695a      	ldr	r2, [r3, #20]
 8003792:	683b      	ldr	r3, [r7, #0]
 8003794:	689b      	ldr	r3, [r3, #8]
 8003796:	429a      	cmp	r2, r3
 8003798:	d90e      	bls.n	80037b8 <USB_OTG_EP0StartXfer+0x7a>
      {
        ep->xfer_len = ep->maxpacket;
 800379a:	683b      	ldr	r3, [r7, #0]
 800379c:	689a      	ldr	r2, [r3, #8]
 800379e:	683b      	ldr	r3, [r7, #0]
 80037a0:	615a      	str	r2, [r3, #20]
        deptsiz.b.xfersize = ep->maxpacket;
 80037a2:	683b      	ldr	r3, [r7, #0]
 80037a4:	689b      	ldr	r3, [r3, #8]
 80037a6:	b2db      	uxtb	r3, r3
 80037a8:	f003 037f 	and.w	r3, r3, #127	; 0x7f
 80037ac:	b2da      	uxtb	r2, r3
 80037ae:	7a3b      	ldrb	r3, [r7, #8]
 80037b0:	f362 0306 	bfi	r3, r2, #0, #7
 80037b4:	723b      	strb	r3, [r7, #8]
 80037b6:	e009      	b.n	80037cc <USB_OTG_EP0StartXfer+0x8e>
      }
      else
      {
        deptsiz.b.xfersize = ep->xfer_len;
 80037b8:	683b      	ldr	r3, [r7, #0]
 80037ba:	695b      	ldr	r3, [r3, #20]
 80037bc:	b2db      	uxtb	r3, r3
 80037be:	f003 037f 	and.w	r3, r3, #127	; 0x7f
 80037c2:	b2da      	uxtb	r2, r3
 80037c4:	7a3b      	ldrb	r3, [r7, #8]
 80037c6:	f362 0306 	bfi	r3, r2, #0, #7
 80037ca:	723b      	strb	r3, [r7, #8]
      }
      deptsiz.b.pktcnt = 1;
 80037cc:	7abb      	ldrb	r3, [r7, #10]
 80037ce:	2201      	movs	r2, #1
 80037d0:	f362 03c4 	bfi	r3, r2, #3, #2
 80037d4:	72bb      	strb	r3, [r7, #10]
    }
    USB_OTG_WRITE_REG32(&in_regs->DIEPTSIZ, deptsiz.d32);
 80037d6:	68ba      	ldr	r2, [r7, #8]
 80037d8:	697b      	ldr	r3, [r7, #20]
 80037da:	611a      	str	r2, [r3, #16]
    
    if (pdev->cfg.dma_enable == 1)
 80037dc:	687b      	ldr	r3, [r7, #4]
 80037de:	78db      	ldrb	r3, [r3, #3]
 80037e0:	2b01      	cmp	r3, #1
 80037e2:	d109      	bne.n	80037f8 <USB_OTG_EP0StartXfer+0xba>
    {
      USB_OTG_WRITE_REG32(&pdev->regs.INEP_REGS[ep->num]->DIEPDMA, ep->dma_addr);  
 80037e4:	683b      	ldr	r3, [r7, #0]
 80037e6:	781b      	ldrb	r3, [r3, #0]
 80037e8:	687a      	ldr	r2, [r7, #4]
 80037ea:	3304      	adds	r3, #4
 80037ec:	009b      	lsls	r3, r3, #2
 80037ee:	4413      	add	r3, r2
 80037f0:	689b      	ldr	r3, [r3, #8]
 80037f2:	683a      	ldr	r2, [r7, #0]
 80037f4:	6912      	ldr	r2, [r2, #16]
 80037f6:	615a      	str	r2, [r3, #20]
    }
    
    /* EP enable, IN data in FIFO */
    depctl.b.cnak = 1;
 80037f8:	7cfb      	ldrb	r3, [r7, #19]
 80037fa:	f043 0304 	orr.w	r3, r3, #4
 80037fe:	74fb      	strb	r3, [r7, #19]
    depctl.b.epena = 1;
 8003800:	7cfb      	ldrb	r3, [r7, #19]
 8003802:	f043 0380 	orr.w	r3, r3, #128	; 0x80
 8003806:	74fb      	strb	r3, [r7, #19]
    USB_OTG_WRITE_REG32(&in_regs->DIEPCTL, depctl.d32);
 8003808:	693a      	ldr	r2, [r7, #16]
 800380a:	697b      	ldr	r3, [r7, #20]
 800380c:	601a      	str	r2, [r3, #0]
    
    
    
    if (pdev->cfg.dma_enable == 0)
 800380e:	687b      	ldr	r3, [r7, #4]
 8003810:	78db      	ldrb	r3, [r3, #3]
 8003812:	2b00      	cmp	r3, #0
 8003814:	d176      	bne.n	8003904 <USB_OTG_EP0StartXfer+0x1c6>
    {
      /* Enable the Tx FIFO Empty Interrupt for this EP */
      if (ep->xfer_len > 0)
 8003816:	683b      	ldr	r3, [r7, #0]
 8003818:	695b      	ldr	r3, [r3, #20]
 800381a:	2b00      	cmp	r3, #0
 800381c:	d072      	beq.n	8003904 <USB_OTG_EP0StartXfer+0x1c6>
      {
        {
          fifoemptymsk |= 1 << ep->num;
 800381e:	683b      	ldr	r3, [r7, #0]
 8003820:	781b      	ldrb	r3, [r3, #0]
 8003822:	461a      	mov	r2, r3
 8003824:	2301      	movs	r3, #1
 8003826:	4093      	lsls	r3, r2
 8003828:	461a      	mov	r2, r3
 800382a:	69bb      	ldr	r3, [r7, #24]
 800382c:	4313      	orrs	r3, r2
 800382e:	61bb      	str	r3, [r7, #24]
          USB_OTG_MODIFY_REG32(&pdev->regs.DREGS->DIEPEMPMSK, 0, fifoemptymsk);
 8003830:	687b      	ldr	r3, [r7, #4]
 8003832:	691b      	ldr	r3, [r3, #16]
 8003834:	687a      	ldr	r2, [r7, #4]
 8003836:	6912      	ldr	r2, [r2, #16]
 8003838:	6b51      	ldr	r1, [r2, #52]	; 0x34
 800383a:	69ba      	ldr	r2, [r7, #24]
 800383c:	430a      	orrs	r2, r1
 800383e:	635a      	str	r2, [r3, #52]	; 0x34
 8003840:	e060      	b.n	8003904 <USB_OTG_EP0StartXfer+0x1c6>
    }
  }
  else
  {
    /* OUT endpoint */
    depctl.d32  = USB_OTG_READ_REG32(&pdev->regs.OUTEP_REGS[ep->num]->DOEPCTL);
 8003842:	683b      	ldr	r3, [r7, #0]
 8003844:	781b      	ldrb	r3, [r3, #0]
 8003846:	687a      	ldr	r2, [r7, #4]
 8003848:	3314      	adds	r3, #20
 800384a:	009b      	lsls	r3, r3, #2
 800384c:	4413      	add	r3, r2
 800384e:	685b      	ldr	r3, [r3, #4]
 8003850:	681b      	ldr	r3, [r3, #0]
 8003852:	613b      	str	r3, [r7, #16]
    deptsiz.d32 = USB_OTG_READ_REG32(&pdev->regs.OUTEP_REGS[ep->num]->DOEPTSIZ);
 8003854:	683b      	ldr	r3, [r7, #0]
 8003856:	781b      	ldrb	r3, [r3, #0]
 8003858:	687a      	ldr	r2, [r7, #4]
 800385a:	3314      	adds	r3, #20
 800385c:	009b      	lsls	r3, r3, #2
 800385e:	4413      	add	r3, r2
 8003860:	685b      	ldr	r3, [r3, #4]
 8003862:	691b      	ldr	r3, [r3, #16]
 8003864:	60bb      	str	r3, [r7, #8]
    /* Program the transfer size and packet count as follows:
    * xfersize = N * (maxpacket + 4 - (maxpacket % 4))
    * pktcnt = N           */
    if (ep->xfer_len == 0)
 8003866:	683b      	ldr	r3, [r7, #0]
 8003868:	695b      	ldr	r3, [r3, #20]
 800386a:	2b00      	cmp	r3, #0
 800386c:	d10f      	bne.n	800388e <USB_OTG_EP0StartXfer+0x150>
    {
      deptsiz.b.xfersize = ep->maxpacket;
 800386e:	683b      	ldr	r3, [r7, #0]
 8003870:	689b      	ldr	r3, [r3, #8]
 8003872:	b2db      	uxtb	r3, r3
 8003874:	f003 037f 	and.w	r3, r3, #127	; 0x7f
 8003878:	b2da      	uxtb	r2, r3
 800387a:	7a3b      	ldrb	r3, [r7, #8]
 800387c:	f362 0306 	bfi	r3, r2, #0, #7
 8003880:	723b      	strb	r3, [r7, #8]
      deptsiz.b.pktcnt = 1;
 8003882:	7abb      	ldrb	r3, [r7, #10]
 8003884:	2201      	movs	r2, #1
 8003886:	f362 03c4 	bfi	r3, r2, #3, #2
 800388a:	72bb      	strb	r3, [r7, #10]
 800388c:	e012      	b.n	80038b4 <USB_OTG_EP0StartXfer+0x176>
    }
    else
    {
      ep->xfer_len = ep->maxpacket;
 800388e:	683b      	ldr	r3, [r7, #0]
 8003890:	689a      	ldr	r2, [r3, #8]
 8003892:	683b      	ldr	r3, [r7, #0]
 8003894:	615a      	str	r2, [r3, #20]
      deptsiz.b.xfersize = ep->maxpacket;
 8003896:	683b      	ldr	r3, [r7, #0]
 8003898:	689b      	ldr	r3, [r3, #8]
 800389a:	b2db      	uxtb	r3, r3
 800389c:	f003 037f 	and.w	r3, r3, #127	; 0x7f
 80038a0:	b2da      	uxtb	r2, r3
 80038a2:	7a3b      	ldrb	r3, [r7, #8]
 80038a4:	f362 0306 	bfi	r3, r2, #0, #7
 80038a8:	723b      	strb	r3, [r7, #8]
      deptsiz.b.pktcnt = 1;
 80038aa:	7abb      	ldrb	r3, [r7, #10]
 80038ac:	2201      	movs	r2, #1
 80038ae:	f362 03c4 	bfi	r3, r2, #3, #2
 80038b2:	72bb      	strb	r3, [r7, #10]
    }
    USB_OTG_WRITE_REG32(&pdev->regs.OUTEP_REGS[ep->num]->DOEPTSIZ, deptsiz.d32);
 80038b4:	683b      	ldr	r3, [r7, #0]
 80038b6:	781b      	ldrb	r3, [r3, #0]
 80038b8:	687a      	ldr	r2, [r7, #4]
 80038ba:	3314      	adds	r3, #20
 80038bc:	009b      	lsls	r3, r3, #2
 80038be:	4413      	add	r3, r2
 80038c0:	685b      	ldr	r3, [r3, #4]
 80038c2:	68ba      	ldr	r2, [r7, #8]
 80038c4:	611a      	str	r2, [r3, #16]
    if (pdev->cfg.dma_enable == 1)
 80038c6:	687b      	ldr	r3, [r7, #4]
 80038c8:	78db      	ldrb	r3, [r3, #3]
 80038ca:	2b01      	cmp	r3, #1
 80038cc:	d109      	bne.n	80038e2 <USB_OTG_EP0StartXfer+0x1a4>
    {
      USB_OTG_WRITE_REG32(&pdev->regs.OUTEP_REGS[ep->num]->DOEPDMA, ep->dma_addr);
 80038ce:	683b      	ldr	r3, [r7, #0]
 80038d0:	781b      	ldrb	r3, [r3, #0]
 80038d2:	687a      	ldr	r2, [r7, #4]
 80038d4:	3314      	adds	r3, #20
 80038d6:	009b      	lsls	r3, r3, #2
 80038d8:	4413      	add	r3, r2
 80038da:	685b      	ldr	r3, [r3, #4]
 80038dc:	683a      	ldr	r2, [r7, #0]
 80038de:	6912      	ldr	r2, [r2, #16]
 80038e0:	615a      	str	r2, [r3, #20]
    }
    /* EP enable */
    depctl.b.cnak = 1;
 80038e2:	7cfb      	ldrb	r3, [r7, #19]
 80038e4:	f043 0304 	orr.w	r3, r3, #4
 80038e8:	74fb      	strb	r3, [r7, #19]
    depctl.b.epena = 1;
 80038ea:	7cfb      	ldrb	r3, [r7, #19]
 80038ec:	f043 0380 	orr.w	r3, r3, #128	; 0x80
 80038f0:	74fb      	strb	r3, [r7, #19]
    USB_OTG_WRITE_REG32 (&(pdev->regs.OUTEP_REGS[ep->num]->DOEPCTL), depctl.d32);
 80038f2:	683b      	ldr	r3, [r7, #0]
 80038f4:	781b      	ldrb	r3, [r3, #0]
 80038f6:	687a      	ldr	r2, [r7, #4]
 80038f8:	3314      	adds	r3, #20
 80038fa:	009b      	lsls	r3, r3, #2
 80038fc:	4413      	add	r3, r2
 80038fe:	685b      	ldr	r3, [r3, #4]
 8003900:	693a      	ldr	r2, [r7, #16]
 8003902:	601a      	str	r2, [r3, #0]
    
  }
  return status;
 8003904:	7ffb      	ldrb	r3, [r7, #31]
}
 8003906:	4618      	mov	r0, r3
 8003908:	3724      	adds	r7, #36	; 0x24
 800390a:	46bd      	mov	sp, r7
 800390c:	f85d 7b04 	ldr.w	r7, [sp], #4
 8003910:	4770      	bx	lr

08003912 <USB_OTG_EPSetStall>:
* @brief  USB_OTG_EPSetStall : Set the EP STALL
* @param  pdev : Selected device
* @retval USB_OTG_STS : status
*/
USB_OTG_STS USB_OTG_EPSetStall(USB_OTG_CORE_HANDLE *pdev , USB_OTG_EP *ep)
{
 8003912:	b480      	push	{r7}
 8003914:	b087      	sub	sp, #28
 8003916:	af00      	add	r7, sp, #0
 8003918:	6078      	str	r0, [r7, #4]
 800391a:	6039      	str	r1, [r7, #0]
  USB_OTG_STS status = USB_OTG_OK;
 800391c:	2300      	movs	r3, #0
 800391e:	75fb      	strb	r3, [r7, #23]
  USB_OTG_DEPCTL_TypeDef  depctl;
  __IO uint32_t *depctl_addr;
  
  depctl.d32 = 0;
 8003920:	2300      	movs	r3, #0
 8003922:	60fb      	str	r3, [r7, #12]
  if (ep->is_in == 1)
 8003924:	683b      	ldr	r3, [r7, #0]
 8003926:	785b      	ldrb	r3, [r3, #1]
 8003928:	2b01      	cmp	r3, #1
 800392a:	d11c      	bne.n	8003966 <USB_OTG_EPSetStall+0x54>
  {
    depctl_addr = &(pdev->regs.INEP_REGS[ep->num]->DIEPCTL);
 800392c:	683b      	ldr	r3, [r7, #0]
 800392e:	781b      	ldrb	r3, [r3, #0]
 8003930:	687a      	ldr	r2, [r7, #4]
 8003932:	3304      	adds	r3, #4
 8003934:	009b      	lsls	r3, r3, #2
 8003936:	4413      	add	r3, r2
 8003938:	689b      	ldr	r3, [r3, #8]
 800393a:	613b      	str	r3, [r7, #16]
    depctl.d32 = USB_OTG_READ_REG32(depctl_addr);
 800393c:	693b      	ldr	r3, [r7, #16]
 800393e:	681b      	ldr	r3, [r3, #0]
 8003940:	60fb      	str	r3, [r7, #12]
    /* set the disable and stall bits */
    if (depctl.b.epena)
 8003942:	7bfb      	ldrb	r3, [r7, #15]
 8003944:	f023 037f 	bic.w	r3, r3, #127	; 0x7f
 8003948:	b2db      	uxtb	r3, r3
 800394a:	2b00      	cmp	r3, #0
 800394c:	d003      	beq.n	8003956 <USB_OTG_EPSetStall+0x44>
    {
      depctl.b.epdis = 1;
 800394e:	7bfb      	ldrb	r3, [r7, #15]
 8003950:	f043 0340 	orr.w	r3, r3, #64	; 0x40
 8003954:	73fb      	strb	r3, [r7, #15]
    }
    depctl.b.stall = 1;
 8003956:	7bbb      	ldrb	r3, [r7, #14]
 8003958:	f043 0320 	orr.w	r3, r3, #32
 800395c:	73bb      	strb	r3, [r7, #14]
    USB_OTG_WRITE_REG32(depctl_addr, depctl.d32);
 800395e:	68fa      	ldr	r2, [r7, #12]
 8003960:	693b      	ldr	r3, [r7, #16]
 8003962:	601a      	str	r2, [r3, #0]
 8003964:	e011      	b.n	800398a <USB_OTG_EPSetStall+0x78>
  }
  else
  {
    depctl_addr = &(pdev->regs.OUTEP_REGS[ep->num]->DOEPCTL);
 8003966:	683b      	ldr	r3, [r7, #0]
 8003968:	781b      	ldrb	r3, [r3, #0]
 800396a:	687a      	ldr	r2, [r7, #4]
 800396c:	3314      	adds	r3, #20
 800396e:	009b      	lsls	r3, r3, #2
 8003970:	4413      	add	r3, r2
 8003972:	685b      	ldr	r3, [r3, #4]
 8003974:	613b      	str	r3, [r7, #16]
    depctl.d32 = USB_OTG_READ_REG32(depctl_addr);
 8003976:	693b      	ldr	r3, [r7, #16]
 8003978:	681b      	ldr	r3, [r3, #0]
 800397a:	60fb      	str	r3, [r7, #12]
    /* set the stall bit */
    depctl.b.stall = 1;
 800397c:	7bbb      	ldrb	r3, [r7, #14]
 800397e:	f043 0320 	orr.w	r3, r3, #32
 8003982:	73bb      	strb	r3, [r7, #14]
    USB_OTG_WRITE_REG32(depctl_addr, depctl.d32);
 8003984:	68fa      	ldr	r2, [r7, #12]
 8003986:	693b      	ldr	r3, [r7, #16]
 8003988:	601a      	str	r2, [r3, #0]
  }
  return status;
 800398a:	7dfb      	ldrb	r3, [r7, #23]
}
 800398c:	4618      	mov	r0, r3
 800398e:	371c      	adds	r7, #28
 8003990:	46bd      	mov	sp, r7
 8003992:	f85d 7b04 	ldr.w	r7, [sp], #4
 8003996:	4770      	bx	lr

08003998 <USB_OTG_EPClearStall>:
* @brief  Clear the EP STALL
* @param  pdev : Selected device
* @retval USB_OTG_STS : status
*/
USB_OTG_STS USB_OTG_EPClearStall(USB_OTG_CORE_HANDLE *pdev , USB_OTG_EP *ep)
{
 8003998:	b480      	push	{r7}
 800399a:	b087      	sub	sp, #28
 800399c:	af00      	add	r7, sp, #0
 800399e:	6078      	str	r0, [r7, #4]
 80039a0:	6039      	str	r1, [r7, #0]
  USB_OTG_STS status = USB_OTG_OK;
 80039a2:	2300      	movs	r3, #0
 80039a4:	74fb      	strb	r3, [r7, #19]
  USB_OTG_DEPCTL_TypeDef  depctl;
  __IO uint32_t *depctl_addr;
  
  depctl.d32 = 0;
 80039a6:	2300      	movs	r3, #0
 80039a8:	60fb      	str	r3, [r7, #12]
  
  if (ep->is_in == 1)
 80039aa:	683b      	ldr	r3, [r7, #0]
 80039ac:	785b      	ldrb	r3, [r3, #1]
 80039ae:	2b01      	cmp	r3, #1
 80039b0:	d108      	bne.n	80039c4 <USB_OTG_EPClearStall+0x2c>
  {
    depctl_addr = &(pdev->regs.INEP_REGS[ep->num]->DIEPCTL);
 80039b2:	683b      	ldr	r3, [r7, #0]
 80039b4:	781b      	ldrb	r3, [r3, #0]
 80039b6:	687a      	ldr	r2, [r7, #4]
 80039b8:	3304      	adds	r3, #4
 80039ba:	009b      	lsls	r3, r3, #2
 80039bc:	4413      	add	r3, r2
 80039be:	689b      	ldr	r3, [r3, #8]
 80039c0:	617b      	str	r3, [r7, #20]
 80039c2:	e007      	b.n	80039d4 <USB_OTG_EPClearStall+0x3c>
  }
  else
  {
    depctl_addr = &(pdev->regs.OUTEP_REGS[ep->num]->DOEPCTL);
 80039c4:	683b      	ldr	r3, [r7, #0]
 80039c6:	781b      	ldrb	r3, [r3, #0]
 80039c8:	687a      	ldr	r2, [r7, #4]
 80039ca:	3314      	adds	r3, #20
 80039cc:	009b      	lsls	r3, r3, #2
 80039ce:	4413      	add	r3, r2
 80039d0:	685b      	ldr	r3, [r3, #4]
 80039d2:	617b      	str	r3, [r7, #20]
  }
  depctl.d32 = USB_OTG_READ_REG32(depctl_addr);
 80039d4:	697b      	ldr	r3, [r7, #20]
 80039d6:	681b      	ldr	r3, [r3, #0]
 80039d8:	60fb      	str	r3, [r7, #12]
  /* clear the stall bits */
  depctl.b.stall = 0;
 80039da:	7bbb      	ldrb	r3, [r7, #14]
 80039dc:	f36f 1345 	bfc	r3, #5, #1
 80039e0:	73bb      	strb	r3, [r7, #14]
  if (ep->type == EP_TYPE_INTR || ep->type == EP_TYPE_BULK)
 80039e2:	683b      	ldr	r3, [r7, #0]
 80039e4:	78db      	ldrb	r3, [r3, #3]
 80039e6:	2b03      	cmp	r3, #3
 80039e8:	d003      	beq.n	80039f2 <USB_OTG_EPClearStall+0x5a>
 80039ea:	683b      	ldr	r3, [r7, #0]
 80039ec:	78db      	ldrb	r3, [r3, #3]
 80039ee:	2b02      	cmp	r3, #2
 80039f0:	d103      	bne.n	80039fa <USB_OTG_EPClearStall+0x62>
  {
    depctl.b.setd0pid = 1; /* DATA0 */
 80039f2:	7bfb      	ldrb	r3, [r7, #15]
 80039f4:	f043 0310 	orr.w	r3, r3, #16
 80039f8:	73fb      	strb	r3, [r7, #15]
  }
  USB_OTG_WRITE_REG32(depctl_addr, depctl.d32);
 80039fa:	68fa      	ldr	r2, [r7, #12]
 80039fc:	697b      	ldr	r3, [r7, #20]
 80039fe:	601a      	str	r2, [r3, #0]
  return status;
 8003a00:	7cfb      	ldrb	r3, [r7, #19]
}
 8003a02:	4618      	mov	r0, r3
 8003a04:	371c      	adds	r7, #28
 8003a06:	46bd      	mov	sp, r7
 8003a08:	f85d 7b04 	ldr.w	r7, [sp], #4
 8003a0c:	4770      	bx	lr

08003a0e <USB_OTG_ReadDevAllOutEp_itr>:
* @brief  USB_OTG_ReadDevAllOutEp_itr : returns OUT endpoint interrupt bits
* @param  pdev : Selected device
* @retval OUT endpoint interrupt bits
*/
uint32_t USB_OTG_ReadDevAllOutEp_itr(USB_OTG_CORE_HANDLE *pdev)
{
 8003a0e:	b480      	push	{r7}
 8003a10:	b085      	sub	sp, #20
 8003a12:	af00      	add	r7, sp, #0
 8003a14:	6078      	str	r0, [r7, #4]
  uint32_t v;
  v  = USB_OTG_READ_REG32(&pdev->regs.DREGS->DAINT);
 8003a16:	687b      	ldr	r3, [r7, #4]
 8003a18:	691b      	ldr	r3, [r3, #16]
 8003a1a:	699b      	ldr	r3, [r3, #24]
 8003a1c:	60fb      	str	r3, [r7, #12]
  v &= USB_OTG_READ_REG32(&pdev->regs.DREGS->DAINTMSK);
 8003a1e:	687b      	ldr	r3, [r7, #4]
 8003a20:	691b      	ldr	r3, [r3, #16]
 8003a22:	69db      	ldr	r3, [r3, #28]
 8003a24:	68fa      	ldr	r2, [r7, #12]
 8003a26:	4013      	ands	r3, r2
 8003a28:	60fb      	str	r3, [r7, #12]
  return ((v & 0xffff0000) >> 16);
 8003a2a:	68fb      	ldr	r3, [r7, #12]
 8003a2c:	0c1b      	lsrs	r3, r3, #16
}
 8003a2e:	4618      	mov	r0, r3
 8003a30:	3714      	adds	r7, #20
 8003a32:	46bd      	mov	sp, r7
 8003a34:	f85d 7b04 	ldr.w	r7, [sp], #4
 8003a38:	4770      	bx	lr

08003a3a <USB_OTG_ReadDevOutEP_itr>:
* @param  pdev : Selected device
* @param  ep : end point number
* @retval Device OUT EP Interrupt register
*/
uint32_t USB_OTG_ReadDevOutEP_itr(USB_OTG_CORE_HANDLE *pdev , uint8_t epnum)
{
 8003a3a:	b480      	push	{r7}
 8003a3c:	b085      	sub	sp, #20
 8003a3e:	af00      	add	r7, sp, #0
 8003a40:	6078      	str	r0, [r7, #4]
 8003a42:	460b      	mov	r3, r1
 8003a44:	70fb      	strb	r3, [r7, #3]
  uint32_t v;
  v  = USB_OTG_READ_REG32(&pdev->regs.OUTEP_REGS[epnum]->DOEPINT);
 8003a46:	78fb      	ldrb	r3, [r7, #3]
 8003a48:	687a      	ldr	r2, [r7, #4]
 8003a4a:	3314      	adds	r3, #20
 8003a4c:	009b      	lsls	r3, r3, #2
 8003a4e:	4413      	add	r3, r2
 8003a50:	685b      	ldr	r3, [r3, #4]
 8003a52:	689b      	ldr	r3, [r3, #8]
 8003a54:	60fb      	str	r3, [r7, #12]
  v &= USB_OTG_READ_REG32(&pdev->regs.DREGS->DOEPMSK);
 8003a56:	687b      	ldr	r3, [r7, #4]
 8003a58:	691b      	ldr	r3, [r3, #16]
 8003a5a:	695b      	ldr	r3, [r3, #20]
 8003a5c:	68fa      	ldr	r2, [r7, #12]
 8003a5e:	4013      	ands	r3, r2
 8003a60:	60fb      	str	r3, [r7, #12]
  return v;
 8003a62:	68fb      	ldr	r3, [r7, #12]
}
 8003a64:	4618      	mov	r0, r3
 8003a66:	3714      	adds	r7, #20
 8003a68:	46bd      	mov	sp, r7
 8003a6a:	f85d 7b04 	ldr.w	r7, [sp], #4
 8003a6e:	4770      	bx	lr

08003a70 <USB_OTG_ReadDevAllInEPItr>:
* @brief  USB_OTG_ReadDevAllInEPItr : Get int status register
* @param  pdev : Selected device
* @retval int status register
*/
uint32_t USB_OTG_ReadDevAllInEPItr(USB_OTG_CORE_HANDLE *pdev)
{
 8003a70:	b480      	push	{r7}
 8003a72:	b085      	sub	sp, #20
 8003a74:	af00      	add	r7, sp, #0
 8003a76:	6078      	str	r0, [r7, #4]
  uint32_t v;
  v = USB_OTG_READ_REG32(&pdev->regs.DREGS->DAINT);
 8003a78:	687b      	ldr	r3, [r7, #4]
 8003a7a:	691b      	ldr	r3, [r3, #16]
 8003a7c:	699b      	ldr	r3, [r3, #24]
 8003a7e:	60fb      	str	r3, [r7, #12]
  v &= USB_OTG_READ_REG32(&pdev->regs.DREGS->DAINTMSK);
 8003a80:	687b      	ldr	r3, [r7, #4]
 8003a82:	691b      	ldr	r3, [r3, #16]
 8003a84:	69db      	ldr	r3, [r3, #28]
 8003a86:	68fa      	ldr	r2, [r7, #12]
 8003a88:	4013      	ands	r3, r2
 8003a8a:	60fb      	str	r3, [r7, #12]
  return (v & 0xffff);
 8003a8c:	68fb      	ldr	r3, [r7, #12]
 8003a8e:	b29b      	uxth	r3, r3
}
 8003a90:	4618      	mov	r0, r3
 8003a92:	3714      	adds	r7, #20
 8003a94:	46bd      	mov	sp, r7
 8003a96:	f85d 7b04 	ldr.w	r7, [sp], #4
 8003a9a:	4770      	bx	lr

08003a9c <USB_OTG_EP0_OutStart>:
* @brief  configures EPO to receive SETUP packets
* @param  None
* @retval : None
*/
void USB_OTG_EP0_OutStart(USB_OTG_CORE_HANDLE *pdev)
{
 8003a9c:	b480      	push	{r7}
 8003a9e:	b087      	sub	sp, #28
 8003aa0:	af00      	add	r7, sp, #0
 8003aa2:	6078      	str	r0, [r7, #4]
  USB_OTG_DEP0XFRSIZ_TypeDef  doeptsize0;
  doeptsize0.d32 = 0;
 8003aa4:	2300      	movs	r3, #0
 8003aa6:	613b      	str	r3, [r7, #16]
  doeptsize0.b.supcnt = 3;
 8003aa8:	7cfb      	ldrb	r3, [r7, #19]
 8003aaa:	f043 03c0 	orr.w	r3, r3, #192	; 0xc0
 8003aae:	74fb      	strb	r3, [r7, #19]
  doeptsize0.b.pktcnt = 1;
 8003ab0:	7cbb      	ldrb	r3, [r7, #18]
 8003ab2:	2201      	movs	r2, #1
 8003ab4:	f362 03c4 	bfi	r3, r2, #3, #2
 8003ab8:	74bb      	strb	r3, [r7, #18]
  doeptsize0.b.xfersize = 8 * 3;
 8003aba:	7c3b      	ldrb	r3, [r7, #16]
 8003abc:	2218      	movs	r2, #24
 8003abe:	f362 0306 	bfi	r3, r2, #0, #7
 8003ac2:	743b      	strb	r3, [r7, #16]
  USB_OTG_WRITE_REG32( &pdev->regs.OUTEP_REGS[0]->DOEPTSIZ, doeptsize0.d32 );
 8003ac4:	687b      	ldr	r3, [r7, #4]
 8003ac6:	6d5b      	ldr	r3, [r3, #84]	; 0x54
 8003ac8:	693a      	ldr	r2, [r7, #16]
 8003aca:	611a      	str	r2, [r3, #16]
  
  if (pdev->cfg.dma_enable == 1)
 8003acc:	687b      	ldr	r3, [r7, #4]
 8003ace:	78db      	ldrb	r3, [r3, #3]
 8003ad0:	2b01      	cmp	r3, #1
 8003ad2:	d116      	bne.n	8003b02 <USB_OTG_EP0_OutStart+0x66>
  {
    USB_OTG_DEPCTL_TypeDef  doepctl;
    doepctl.d32 = 0;
 8003ad4:	2300      	movs	r3, #0
 8003ad6:	60fb      	str	r3, [r7, #12]
    USB_OTG_WRITE_REG32( &pdev->regs.OUTEP_REGS[0]->DOEPDMA, 
 8003ad8:	687b      	ldr	r3, [r7, #4]
 8003ada:	6d5b      	ldr	r3, [r3, #84]	; 0x54
 8003adc:	687a      	ldr	r2, [r7, #4]
 8003ade:	f202 52cc 	addw	r2, r2, #1484	; 0x5cc
 8003ae2:	615a      	str	r2, [r3, #20]
                        (uint32_t)&pdev->dev.setup_packet);
    
    /* EP enable */
    doepctl.d32 = USB_OTG_READ_REG32(&pdev->regs.OUTEP_REGS[0]->DOEPCTL);
 8003ae4:	687b      	ldr	r3, [r7, #4]
 8003ae6:	6d5b      	ldr	r3, [r3, #84]	; 0x54
 8003ae8:	681b      	ldr	r3, [r3, #0]
 8003aea:	60fb      	str	r3, [r7, #12]
    doepctl.b.epena = 1;
 8003aec:	7bfb      	ldrb	r3, [r7, #15]
 8003aee:	f043 0380 	orr.w	r3, r3, #128	; 0x80
 8003af2:	73fb      	strb	r3, [r7, #15]
    doepctl.d32 = 0x80008000;
 8003af4:	f04f 2380 	mov.w	r3, #2147516416	; 0x80008000
 8003af8:	60fb      	str	r3, [r7, #12]
    USB_OTG_WRITE_REG32( &pdev->regs.OUTEP_REGS[0]->DOEPCTL, doepctl.d32);
 8003afa:	687b      	ldr	r3, [r7, #4]
 8003afc:	6d5b      	ldr	r3, [r3, #84]	; 0x54
 8003afe:	68fa      	ldr	r2, [r7, #12]
 8003b00:	601a      	str	r2, [r3, #0]
  }
}
 8003b02:	bf00      	nop
 8003b04:	371c      	adds	r7, #28
 8003b06:	46bd      	mov	sp, r7
 8003b08:	f85d 7b04 	ldr.w	r7, [sp], #4
 8003b0c:	4770      	bx	lr

08003b0e <DCD_Init>:



void DCD_Init(USB_OTG_CORE_HANDLE *pdev , 
              USB_OTG_CORE_ID_TypeDef coreID)
{
 8003b0e:	b580      	push	{r7, lr}
 8003b10:	b084      	sub	sp, #16
 8003b12:	af00      	add	r7, sp, #0
 8003b14:	6078      	str	r0, [r7, #4]
 8003b16:	460b      	mov	r3, r1
 8003b18:	70fb      	strb	r3, [r7, #3]
  uint32_t i;
  USB_OTG_EP *ep;
  
  USB_OTG_SelectCore (pdev , coreID);
 8003b1a:	78fb      	ldrb	r3, [r7, #3]
 8003b1c:	4619      	mov	r1, r3
 8003b1e:	6878      	ldr	r0, [r7, #4]
 8003b20:	f7fe ffc4 	bl	8002aac <USB_OTG_SelectCore>
  
  pdev->dev.device_status = USB_OTG_DEFAULT;
 8003b24:	687b      	ldr	r3, [r7, #4]
 8003b26:	2201      	movs	r2, #1
 8003b28:	f883 2112 	strb.w	r2, [r3, #274]	; 0x112
  pdev->dev.device_address = 0;
 8003b2c:	687b      	ldr	r3, [r7, #4]
 8003b2e:	2200      	movs	r2, #0
 8003b30:	f883 2114 	strb.w	r2, [r3, #276]	; 0x114
  
  /* Init ep structure */
  for (i = 0; i < pdev->cfg.dev_endpoints ; i++)
 8003b34:	2300      	movs	r3, #0
 8003b36:	60fb      	str	r3, [r7, #12]
 8003b38:	e024      	b.n	8003b84 <DCD_Init+0x76>
  {
    ep = &pdev->dev.in_ep[i];
 8003b3a:	68fa      	ldr	r2, [r7, #12]
 8003b3c:	4613      	mov	r3, r2
 8003b3e:	009b      	lsls	r3, r3, #2
 8003b40:	4413      	add	r3, r2
 8003b42:	00db      	lsls	r3, r3, #3
 8003b44:	f503 738c 	add.w	r3, r3, #280	; 0x118
 8003b48:	687a      	ldr	r2, [r7, #4]
 8003b4a:	4413      	add	r3, r2
 8003b4c:	3304      	adds	r3, #4
 8003b4e:	60bb      	str	r3, [r7, #8]
    /* Init ep structure */
    ep->is_in = 1;
 8003b50:	68bb      	ldr	r3, [r7, #8]
 8003b52:	2201      	movs	r2, #1
 8003b54:	705a      	strb	r2, [r3, #1]
    ep->num = i;
 8003b56:	68fb      	ldr	r3, [r7, #12]
 8003b58:	b2da      	uxtb	r2, r3
 8003b5a:	68bb      	ldr	r3, [r7, #8]
 8003b5c:	701a      	strb	r2, [r3, #0]
    ep->tx_fifo_num = i;
 8003b5e:	68fb      	ldr	r3, [r7, #12]
 8003b60:	b29a      	uxth	r2, r3
 8003b62:	68bb      	ldr	r3, [r7, #8]
 8003b64:	80da      	strh	r2, [r3, #6]
    /* Control until ep is actvated */
    ep->type = EP_TYPE_CTRL;
 8003b66:	68bb      	ldr	r3, [r7, #8]
 8003b68:	2200      	movs	r2, #0
 8003b6a:	70da      	strb	r2, [r3, #3]
    ep->maxpacket =  USB_OTG_MAX_EP0_SIZE;
 8003b6c:	68bb      	ldr	r3, [r7, #8]
 8003b6e:	2240      	movs	r2, #64	; 0x40
 8003b70:	609a      	str	r2, [r3, #8]
    ep->xfer_buff = 0;
 8003b72:	68bb      	ldr	r3, [r7, #8]
 8003b74:	2200      	movs	r2, #0
 8003b76:	60da      	str	r2, [r3, #12]
    ep->xfer_len = 0;
 8003b78:	68bb      	ldr	r3, [r7, #8]
 8003b7a:	2200      	movs	r2, #0
 8003b7c:	615a      	str	r2, [r3, #20]
  for (i = 0; i < pdev->cfg.dev_endpoints ; i++)
 8003b7e:	68fb      	ldr	r3, [r7, #12]
 8003b80:	3301      	adds	r3, #1
 8003b82:	60fb      	str	r3, [r7, #12]
 8003b84:	687b      	ldr	r3, [r7, #4]
 8003b86:	785b      	ldrb	r3, [r3, #1]
 8003b88:	461a      	mov	r2, r3
 8003b8a:	68fb      	ldr	r3, [r7, #12]
 8003b8c:	429a      	cmp	r2, r3
 8003b8e:	d8d4      	bhi.n	8003b3a <DCD_Init+0x2c>
  }
  
  for (i = 0; i < pdev->cfg.dev_endpoints; i++)
 8003b90:	2300      	movs	r3, #0
 8003b92:	60fb      	str	r3, [r7, #12]
 8003b94:	e024      	b.n	8003be0 <DCD_Init+0xd2>
  {
    ep = &pdev->dev.out_ep[i];
 8003b96:	68fa      	ldr	r2, [r7, #12]
 8003b98:	4613      	mov	r3, r2
 8003b9a:	009b      	lsls	r3, r3, #2
 8003b9c:	4413      	add	r3, r2
 8003b9e:	00db      	lsls	r3, r3, #3
 8003ba0:	f503 735c 	add.w	r3, r3, #880	; 0x370
 8003ba4:	687a      	ldr	r2, [r7, #4]
 8003ba6:	4413      	add	r3, r2
 8003ba8:	3304      	adds	r3, #4
 8003baa:	60bb      	str	r3, [r7, #8]
    /* Init ep structure */
    ep->is_in = 0;
 8003bac:	68bb      	ldr	r3, [r7, #8]
 8003bae:	2200      	movs	r2, #0
 8003bb0:	705a      	strb	r2, [r3, #1]
    ep->num = i;
 8003bb2:	68fb      	ldr	r3, [r7, #12]
 8003bb4:	b2da      	uxtb	r2, r3
 8003bb6:	68bb      	ldr	r3, [r7, #8]
 8003bb8:	701a      	strb	r2, [r3, #0]
    ep->tx_fifo_num = i;
 8003bba:	68fb      	ldr	r3, [r7, #12]
 8003bbc:	b29a      	uxth	r2, r3
 8003bbe:	68bb      	ldr	r3, [r7, #8]
 8003bc0:	80da      	strh	r2, [r3, #6]
    /* Control until ep is activated */
    ep->type = EP_TYPE_CTRL;
 8003bc2:	68bb      	ldr	r3, [r7, #8]
 8003bc4:	2200      	movs	r2, #0
 8003bc6:	70da      	strb	r2, [r3, #3]
    ep->maxpacket = USB_OTG_MAX_EP0_SIZE;
 8003bc8:	68bb      	ldr	r3, [r7, #8]
 8003bca:	2240      	movs	r2, #64	; 0x40
 8003bcc:	609a      	str	r2, [r3, #8]
    ep->xfer_buff = 0;
 8003bce:	68bb      	ldr	r3, [r7, #8]
 8003bd0:	2200      	movs	r2, #0
 8003bd2:	60da      	str	r2, [r3, #12]
    ep->xfer_len = 0;
 8003bd4:	68bb      	ldr	r3, [r7, #8]
 8003bd6:	2200      	movs	r2, #0
 8003bd8:	615a      	str	r2, [r3, #20]
  for (i = 0; i < pdev->cfg.dev_endpoints; i++)
 8003bda:	68fb      	ldr	r3, [r7, #12]
 8003bdc:	3301      	adds	r3, #1
 8003bde:	60fb      	str	r3, [r7, #12]
 8003be0:	687b      	ldr	r3, [r7, #4]
 8003be2:	785b      	ldrb	r3, [r3, #1]
 8003be4:	461a      	mov	r2, r3
 8003be6:	68fb      	ldr	r3, [r7, #12]
 8003be8:	429a      	cmp	r2, r3
 8003bea:	d8d4      	bhi.n	8003b96 <DCD_Init+0x88>
  }
  
  USB_OTG_DisableGlobalInt(pdev);
 8003bec:	6878      	ldr	r0, [r7, #4]
 8003bee:	f7ff f8cf 	bl	8002d90 <USB_OTG_DisableGlobalInt>
  
  /*Init the Core (common init.) */
  USB_OTG_CoreInit(pdev);
 8003bf2:	6878      	ldr	r0, [r7, #4]
 8003bf4:	f7ff f814 	bl	8002c20 <USB_OTG_CoreInit>


  /* Force Device Mode*/
  USB_OTG_SetCurrentMode(pdev, DEVICE_MODE);
 8003bf8:	2100      	movs	r1, #0
 8003bfa:	6878      	ldr	r0, [r7, #4]
 8003bfc:	f7ff f94e 	bl	8002e9c <USB_OTG_SetCurrentMode>
  
  /* Init Device */
  USB_OTG_CoreInitDev(pdev);
 8003c00:	6878      	ldr	r0, [r7, #4]
 8003c02:	f7ff f9cd 	bl	8002fa0 <USB_OTG_CoreInitDev>
  
  
  /* Enable USB Global interrupt */
  USB_OTG_EnableGlobalInt(pdev);
 8003c06:	6878      	ldr	r0, [r7, #4]
 8003c08:	f7ff f8a7 	bl	8002d5a <USB_OTG_EnableGlobalInt>
}
 8003c0c:	bf00      	nop
 8003c0e:	3710      	adds	r7, #16
 8003c10:	46bd      	mov	sp, r7
 8003c12:	bd80      	pop	{r7, pc}

08003c14 <DCD_EP_Open>:
*/
uint32_t DCD_EP_Open(USB_OTG_CORE_HANDLE *pdev , 
                     uint8_t ep_addr,
                     uint16_t ep_mps,
                     uint8_t ep_type)
{
 8003c14:	b580      	push	{r7, lr}
 8003c16:	b084      	sub	sp, #16
 8003c18:	af00      	add	r7, sp, #0
 8003c1a:	6078      	str	r0, [r7, #4]
 8003c1c:	4608      	mov	r0, r1
 8003c1e:	4611      	mov	r1, r2
 8003c20:	461a      	mov	r2, r3
 8003c22:	4603      	mov	r3, r0
 8003c24:	70fb      	strb	r3, [r7, #3]
 8003c26:	460b      	mov	r3, r1
 8003c28:	803b      	strh	r3, [r7, #0]
 8003c2a:	4613      	mov	r3, r2
 8003c2c:	70bb      	strb	r3, [r7, #2]
  USB_OTG_EP *ep;
  
  if ((ep_addr & 0x80) == 0x80)
 8003c2e:	f997 3003 	ldrsb.w	r3, [r7, #3]
 8003c32:	2b00      	cmp	r3, #0
 8003c34:	da0d      	bge.n	8003c52 <DCD_EP_Open+0x3e>
  {
    ep = &pdev->dev.in_ep[ep_addr & 0x7F];
 8003c36:	78fb      	ldrb	r3, [r7, #3]
 8003c38:	f003 027f 	and.w	r2, r3, #127	; 0x7f
 8003c3c:	4613      	mov	r3, r2
 8003c3e:	009b      	lsls	r3, r3, #2
 8003c40:	4413      	add	r3, r2
 8003c42:	00db      	lsls	r3, r3, #3
 8003c44:	f503 738c 	add.w	r3, r3, #280	; 0x118
 8003c48:	687a      	ldr	r2, [r7, #4]
 8003c4a:	4413      	add	r3, r2
 8003c4c:	3304      	adds	r3, #4
 8003c4e:	60fb      	str	r3, [r7, #12]
 8003c50:	e00c      	b.n	8003c6c <DCD_EP_Open+0x58>
  }
  else
  {
    ep = &pdev->dev.out_ep[ep_addr & 0x7F];
 8003c52:	78fb      	ldrb	r3, [r7, #3]
 8003c54:	f003 027f 	and.w	r2, r3, #127	; 0x7f
 8003c58:	4613      	mov	r3, r2
 8003c5a:	009b      	lsls	r3, r3, #2
 8003c5c:	4413      	add	r3, r2
 8003c5e:	00db      	lsls	r3, r3, #3
 8003c60:	f503 735c 	add.w	r3, r3, #880	; 0x370
 8003c64:	687a      	ldr	r2, [r7, #4]
 8003c66:	4413      	add	r3, r2
 8003c68:	3304      	adds	r3, #4
 8003c6a:	60fb      	str	r3, [r7, #12]
  }
  ep->num   = ep_addr & 0x7F;
 8003c6c:	78fb      	ldrb	r3, [r7, #3]
 8003c6e:	f003 037f 	and.w	r3, r3, #127	; 0x7f
 8003c72:	b2da      	uxtb	r2, r3
 8003c74:	68fb      	ldr	r3, [r7, #12]
 8003c76:	701a      	strb	r2, [r3, #0]
  
  ep->is_in = (0x80 & ep_addr) != 0;
 8003c78:	f997 3003 	ldrsb.w	r3, [r7, #3]
 8003c7c:	b2db      	uxtb	r3, r3
 8003c7e:	09db      	lsrs	r3, r3, #7
 8003c80:	b2db      	uxtb	r3, r3
 8003c82:	461a      	mov	r2, r3
 8003c84:	68fb      	ldr	r3, [r7, #12]
 8003c86:	705a      	strb	r2, [r3, #1]
  ep->maxpacket = ep_mps;
 8003c88:	883a      	ldrh	r2, [r7, #0]
 8003c8a:	68fb      	ldr	r3, [r7, #12]
 8003c8c:	609a      	str	r2, [r3, #8]
  ep->type = ep_type;
 8003c8e:	68fb      	ldr	r3, [r7, #12]
 8003c90:	78ba      	ldrb	r2, [r7, #2]
 8003c92:	70da      	strb	r2, [r3, #3]
  if (ep->is_in)
 8003c94:	68fb      	ldr	r3, [r7, #12]
 8003c96:	785b      	ldrb	r3, [r3, #1]
 8003c98:	2b00      	cmp	r3, #0
 8003c9a:	d004      	beq.n	8003ca6 <DCD_EP_Open+0x92>
  {
    /* Assign a Tx FIFO */
    ep->tx_fifo_num = ep->num;
 8003c9c:	68fb      	ldr	r3, [r7, #12]
 8003c9e:	781b      	ldrb	r3, [r3, #0]
 8003ca0:	b29a      	uxth	r2, r3
 8003ca2:	68fb      	ldr	r3, [r7, #12]
 8003ca4:	80da      	strh	r2, [r3, #6]
  }
  /* Set initial data PID. */
  if (ep_type == USB_OTG_EP_BULK )
 8003ca6:	78bb      	ldrb	r3, [r7, #2]
 8003ca8:	2b02      	cmp	r3, #2
 8003caa:	d102      	bne.n	8003cb2 <DCD_EP_Open+0x9e>
  {
    ep->data_pid_start = 0;
 8003cac:	68fb      	ldr	r3, [r7, #12]
 8003cae:	2200      	movs	r2, #0
 8003cb0:	711a      	strb	r2, [r3, #4]
  }
  USB_OTG_EPActivate(pdev , ep );
 8003cb2:	68f9      	ldr	r1, [r7, #12]
 8003cb4:	6878      	ldr	r0, [r7, #4]
 8003cb6:	f7ff fb4f 	bl	8003358 <USB_OTG_EPActivate>
  return 0;
 8003cba:	2300      	movs	r3, #0
}
 8003cbc:	4618      	mov	r0, r3
 8003cbe:	3710      	adds	r7, #16
 8003cc0:	46bd      	mov	sp, r7
 8003cc2:	bd80      	pop	{r7, pc}

08003cc4 <DCD_EP_Close>:
* @param pdev: device instance
* @param ep_addr: endpoint address
* @retval : status
*/
uint32_t DCD_EP_Close(USB_OTG_CORE_HANDLE *pdev , uint8_t  ep_addr)
{
 8003cc4:	b580      	push	{r7, lr}
 8003cc6:	b084      	sub	sp, #16
 8003cc8:	af00      	add	r7, sp, #0
 8003cca:	6078      	str	r0, [r7, #4]
 8003ccc:	460b      	mov	r3, r1
 8003cce:	70fb      	strb	r3, [r7, #3]
  USB_OTG_EP *ep;
  
  if ((ep_addr&0x80) == 0x80)
 8003cd0:	f997 3003 	ldrsb.w	r3, [r7, #3]
 8003cd4:	2b00      	cmp	r3, #0
 8003cd6:	da0d      	bge.n	8003cf4 <DCD_EP_Close+0x30>
  {
    ep = &pdev->dev.in_ep[ep_addr & 0x7F];
 8003cd8:	78fb      	ldrb	r3, [r7, #3]
 8003cda:	f003 027f 	and.w	r2, r3, #127	; 0x7f
 8003cde:	4613      	mov	r3, r2
 8003ce0:	009b      	lsls	r3, r3, #2
 8003ce2:	4413      	add	r3, r2
 8003ce4:	00db      	lsls	r3, r3, #3
 8003ce6:	f503 738c 	add.w	r3, r3, #280	; 0x118
 8003cea:	687a      	ldr	r2, [r7, #4]
 8003cec:	4413      	add	r3, r2
 8003cee:	3304      	adds	r3, #4
 8003cf0:	60fb      	str	r3, [r7, #12]
 8003cf2:	e00c      	b.n	8003d0e <DCD_EP_Close+0x4a>
  }
  else
  {
    ep = &pdev->dev.out_ep[ep_addr & 0x7F];
 8003cf4:	78fb      	ldrb	r3, [r7, #3]
 8003cf6:	f003 027f 	and.w	r2, r3, #127	; 0x7f
 8003cfa:	4613      	mov	r3, r2
 8003cfc:	009b      	lsls	r3, r3, #2
 8003cfe:	4413      	add	r3, r2
 8003d00:	00db      	lsls	r3, r3, #3
 8003d02:	f503 735c 	add.w	r3, r3, #880	; 0x370
 8003d06:	687a      	ldr	r2, [r7, #4]
 8003d08:	4413      	add	r3, r2
 8003d0a:	3304      	adds	r3, #4
 8003d0c:	60fb      	str	r3, [r7, #12]
  }
  ep->num   = ep_addr & 0x7F;
 8003d0e:	78fb      	ldrb	r3, [r7, #3]
 8003d10:	f003 037f 	and.w	r3, r3, #127	; 0x7f
 8003d14:	b2da      	uxtb	r2, r3
 8003d16:	68fb      	ldr	r3, [r7, #12]
 8003d18:	701a      	strb	r2, [r3, #0]
  ep->is_in = (0x80 & ep_addr) != 0;
 8003d1a:	f997 3003 	ldrsb.w	r3, [r7, #3]
 8003d1e:	b2db      	uxtb	r3, r3
 8003d20:	09db      	lsrs	r3, r3, #7
 8003d22:	b2db      	uxtb	r3, r3
 8003d24:	461a      	mov	r2, r3
 8003d26:	68fb      	ldr	r3, [r7, #12]
 8003d28:	705a      	strb	r2, [r3, #1]
  USB_OTG_EPDeactivate(pdev , ep );
 8003d2a:	68f9      	ldr	r1, [r7, #12]
 8003d2c:	6878      	ldr	r0, [r7, #4]
 8003d2e:	f7ff fb81 	bl	8003434 <USB_OTG_EPDeactivate>
  return 0;
 8003d32:	2300      	movs	r3, #0
}
 8003d34:	4618      	mov	r0, r3
 8003d36:	3710      	adds	r7, #16
 8003d38:	46bd      	mov	sp, r7
 8003d3a:	bd80      	pop	{r7, pc}

08003d3c <DCD_EP_PrepareRx>:
*/
uint32_t   DCD_EP_PrepareRx( USB_OTG_CORE_HANDLE *pdev,
                            uint8_t   ep_addr,
                            uint8_t *pbuf,                        
                            uint16_t  buf_len)
{
 8003d3c:	b580      	push	{r7, lr}
 8003d3e:	b086      	sub	sp, #24
 8003d40:	af00      	add	r7, sp, #0
 8003d42:	60f8      	str	r0, [r7, #12]
 8003d44:	607a      	str	r2, [r7, #4]
 8003d46:	461a      	mov	r2, r3
 8003d48:	460b      	mov	r3, r1
 8003d4a:	72fb      	strb	r3, [r7, #11]
 8003d4c:	4613      	mov	r3, r2
 8003d4e:	813b      	strh	r3, [r7, #8]
  USB_OTG_EP *ep;
  
  ep = &pdev->dev.out_ep[ep_addr & 0x7F];
 8003d50:	7afb      	ldrb	r3, [r7, #11]
 8003d52:	f003 027f 	and.w	r2, r3, #127	; 0x7f
 8003d56:	4613      	mov	r3, r2
 8003d58:	009b      	lsls	r3, r3, #2
 8003d5a:	4413      	add	r3, r2
 8003d5c:	00db      	lsls	r3, r3, #3
 8003d5e:	f503 735c 	add.w	r3, r3, #880	; 0x370
 8003d62:	68fa      	ldr	r2, [r7, #12]
 8003d64:	4413      	add	r3, r2
 8003d66:	3304      	adds	r3, #4
 8003d68:	617b      	str	r3, [r7, #20]
  
  /*setup and start the Xfer */
  ep->xfer_buff = pbuf;  
 8003d6a:	697b      	ldr	r3, [r7, #20]
 8003d6c:	687a      	ldr	r2, [r7, #4]
 8003d6e:	60da      	str	r2, [r3, #12]
  ep->xfer_len = buf_len;
 8003d70:	893a      	ldrh	r2, [r7, #8]
 8003d72:	697b      	ldr	r3, [r7, #20]
 8003d74:	615a      	str	r2, [r3, #20]
  ep->xfer_count = 0;
 8003d76:	697b      	ldr	r3, [r7, #20]
 8003d78:	2200      	movs	r2, #0
 8003d7a:	619a      	str	r2, [r3, #24]
  ep->is_in = 0;
 8003d7c:	697b      	ldr	r3, [r7, #20]
 8003d7e:	2200      	movs	r2, #0
 8003d80:	705a      	strb	r2, [r3, #1]
  ep->num = ep_addr & 0x7F;
 8003d82:	7afb      	ldrb	r3, [r7, #11]
 8003d84:	f003 037f 	and.w	r3, r3, #127	; 0x7f
 8003d88:	b2da      	uxtb	r2, r3
 8003d8a:	697b      	ldr	r3, [r7, #20]
 8003d8c:	701a      	strb	r2, [r3, #0]
  
  if (pdev->cfg.dma_enable == 1)
 8003d8e:	68fb      	ldr	r3, [r7, #12]
 8003d90:	78db      	ldrb	r3, [r3, #3]
 8003d92:	2b01      	cmp	r3, #1
 8003d94:	d102      	bne.n	8003d9c <DCD_EP_PrepareRx+0x60>
  {
    ep->dma_addr = (uint32_t)pbuf;  
 8003d96:	687a      	ldr	r2, [r7, #4]
 8003d98:	697b      	ldr	r3, [r7, #20]
 8003d9a:	611a      	str	r2, [r3, #16]
  }
  
  if ( ep->num == 0 )
 8003d9c:	697b      	ldr	r3, [r7, #20]
 8003d9e:	781b      	ldrb	r3, [r3, #0]
 8003da0:	2b00      	cmp	r3, #0
 8003da2:	d104      	bne.n	8003dae <DCD_EP_PrepareRx+0x72>
  {
    USB_OTG_EP0StartXfer(pdev , ep);
 8003da4:	6979      	ldr	r1, [r7, #20]
 8003da6:	68f8      	ldr	r0, [r7, #12]
 8003da8:	f7ff fcc9 	bl	800373e <USB_OTG_EP0StartXfer>
 8003dac:	e003      	b.n	8003db6 <DCD_EP_PrepareRx+0x7a>
  }
  else
  {
    USB_OTG_EPStartXfer(pdev, ep );
 8003dae:	6979      	ldr	r1, [r7, #20]
 8003db0:	68f8      	ldr	r0, [r7, #12]
 8003db2:	f7ff fb84 	bl	80034be <USB_OTG_EPStartXfer>
  }
  return 0;
 8003db6:	2300      	movs	r3, #0
}
 8003db8:	4618      	mov	r0, r3
 8003dba:	3718      	adds	r7, #24
 8003dbc:	46bd      	mov	sp, r7
 8003dbe:	bd80      	pop	{r7, pc}

08003dc0 <DCD_EP_Tx>:
*/
uint32_t  DCD_EP_Tx ( USB_OTG_CORE_HANDLE *pdev,
                     uint8_t   ep_addr,
                     uint8_t   *pbuf,
                     uint32_t   buf_len)
{
 8003dc0:	b580      	push	{r7, lr}
 8003dc2:	b086      	sub	sp, #24
 8003dc4:	af00      	add	r7, sp, #0
 8003dc6:	60f8      	str	r0, [r7, #12]
 8003dc8:	607a      	str	r2, [r7, #4]
 8003dca:	603b      	str	r3, [r7, #0]
 8003dcc:	460b      	mov	r3, r1
 8003dce:	72fb      	strb	r3, [r7, #11]
  USB_OTG_EP *ep;
  
  ep = &pdev->dev.in_ep[ep_addr & 0x7F];
 8003dd0:	7afb      	ldrb	r3, [r7, #11]
 8003dd2:	f003 027f 	and.w	r2, r3, #127	; 0x7f
 8003dd6:	4613      	mov	r3, r2
 8003dd8:	009b      	lsls	r3, r3, #2
 8003dda:	4413      	add	r3, r2
 8003ddc:	00db      	lsls	r3, r3, #3
 8003dde:	f503 738c 	add.w	r3, r3, #280	; 0x118
 8003de2:	68fa      	ldr	r2, [r7, #12]
 8003de4:	4413      	add	r3, r2
 8003de6:	3304      	adds	r3, #4
 8003de8:	617b      	str	r3, [r7, #20]
  
  /* Setup and start the Transfer */
  ep->is_in = 1;
 8003dea:	697b      	ldr	r3, [r7, #20]
 8003dec:	2201      	movs	r2, #1
 8003dee:	705a      	strb	r2, [r3, #1]
  ep->num = ep_addr & 0x7F;  
 8003df0:	7afb      	ldrb	r3, [r7, #11]
 8003df2:	f003 037f 	and.w	r3, r3, #127	; 0x7f
 8003df6:	b2da      	uxtb	r2, r3
 8003df8:	697b      	ldr	r3, [r7, #20]
 8003dfa:	701a      	strb	r2, [r3, #0]
  ep->xfer_buff = pbuf;
 8003dfc:	697b      	ldr	r3, [r7, #20]
 8003dfe:	687a      	ldr	r2, [r7, #4]
 8003e00:	60da      	str	r2, [r3, #12]
  ep->dma_addr = (uint32_t)pbuf;  
 8003e02:	687a      	ldr	r2, [r7, #4]
 8003e04:	697b      	ldr	r3, [r7, #20]
 8003e06:	611a      	str	r2, [r3, #16]
  ep->xfer_count = 0;
 8003e08:	697b      	ldr	r3, [r7, #20]
 8003e0a:	2200      	movs	r2, #0
 8003e0c:	619a      	str	r2, [r3, #24]
  ep->xfer_len  = buf_len;
 8003e0e:	697b      	ldr	r3, [r7, #20]
 8003e10:	683a      	ldr	r2, [r7, #0]
 8003e12:	615a      	str	r2, [r3, #20]
  
  if ( ep->num == 0 )
 8003e14:	697b      	ldr	r3, [r7, #20]
 8003e16:	781b      	ldrb	r3, [r3, #0]
 8003e18:	2b00      	cmp	r3, #0
 8003e1a:	d104      	bne.n	8003e26 <DCD_EP_Tx+0x66>
  {
    USB_OTG_EP0StartXfer(pdev , ep);
 8003e1c:	6979      	ldr	r1, [r7, #20]
 8003e1e:	68f8      	ldr	r0, [r7, #12]
 8003e20:	f7ff fc8d 	bl	800373e <USB_OTG_EP0StartXfer>
 8003e24:	e003      	b.n	8003e2e <DCD_EP_Tx+0x6e>
  }
  else
  {
    USB_OTG_EPStartXfer(pdev, ep );
 8003e26:	6979      	ldr	r1, [r7, #20]
 8003e28:	68f8      	ldr	r0, [r7, #12]
 8003e2a:	f7ff fb48 	bl	80034be <USB_OTG_EPStartXfer>
  }
  return 0;
 8003e2e:	2300      	movs	r3, #0
}
 8003e30:	4618      	mov	r0, r3
 8003e32:	3718      	adds	r7, #24
 8003e34:	46bd      	mov	sp, r7
 8003e36:	bd80      	pop	{r7, pc}

08003e38 <DCD_EP_Stall>:
* @param pdev: device instance
* @param epnum: endpoint address
* @retval : status
*/
uint32_t  DCD_EP_Stall (USB_OTG_CORE_HANDLE *pdev, uint8_t   epnum)
{
 8003e38:	b580      	push	{r7, lr}
 8003e3a:	b084      	sub	sp, #16
 8003e3c:	af00      	add	r7, sp, #0
 8003e3e:	6078      	str	r0, [r7, #4]
 8003e40:	460b      	mov	r3, r1
 8003e42:	70fb      	strb	r3, [r7, #3]
  USB_OTG_EP *ep;
  if ((0x80 & epnum) == 0x80)
 8003e44:	f997 3003 	ldrsb.w	r3, [r7, #3]
 8003e48:	2b00      	cmp	r3, #0
 8003e4a:	da0d      	bge.n	8003e68 <DCD_EP_Stall+0x30>
  {
    ep = &pdev->dev.in_ep[epnum & 0x7F];
 8003e4c:	78fb      	ldrb	r3, [r7, #3]
 8003e4e:	f003 027f 	and.w	r2, r3, #127	; 0x7f
 8003e52:	4613      	mov	r3, r2
 8003e54:	009b      	lsls	r3, r3, #2
 8003e56:	4413      	add	r3, r2
 8003e58:	00db      	lsls	r3, r3, #3
 8003e5a:	f503 738c 	add.w	r3, r3, #280	; 0x118
 8003e5e:	687a      	ldr	r2, [r7, #4]
 8003e60:	4413      	add	r3, r2
 8003e62:	3304      	adds	r3, #4
 8003e64:	60fb      	str	r3, [r7, #12]
 8003e66:	e00a      	b.n	8003e7e <DCD_EP_Stall+0x46>
  }
  else
  {
    ep = &pdev->dev.out_ep[epnum];
 8003e68:	78fa      	ldrb	r2, [r7, #3]
 8003e6a:	4613      	mov	r3, r2
 8003e6c:	009b      	lsls	r3, r3, #2
 8003e6e:	4413      	add	r3, r2
 8003e70:	00db      	lsls	r3, r3, #3
 8003e72:	f503 735c 	add.w	r3, r3, #880	; 0x370
 8003e76:	687a      	ldr	r2, [r7, #4]
 8003e78:	4413      	add	r3, r2
 8003e7a:	3304      	adds	r3, #4
 8003e7c:	60fb      	str	r3, [r7, #12]
  }

  ep->is_stall = 1;
 8003e7e:	68fb      	ldr	r3, [r7, #12]
 8003e80:	2201      	movs	r2, #1
 8003e82:	709a      	strb	r2, [r3, #2]
  ep->num   = epnum & 0x7F;
 8003e84:	78fb      	ldrb	r3, [r7, #3]
 8003e86:	f003 037f 	and.w	r3, r3, #127	; 0x7f
 8003e8a:	b2da      	uxtb	r2, r3
 8003e8c:	68fb      	ldr	r3, [r7, #12]
 8003e8e:	701a      	strb	r2, [r3, #0]
  ep->is_in = ((epnum & 0x80) == 0x80);
 8003e90:	f997 3003 	ldrsb.w	r3, [r7, #3]
 8003e94:	b2db      	uxtb	r3, r3
 8003e96:	09db      	lsrs	r3, r3, #7
 8003e98:	b2db      	uxtb	r3, r3
 8003e9a:	461a      	mov	r2, r3
 8003e9c:	68fb      	ldr	r3, [r7, #12]
 8003e9e:	705a      	strb	r2, [r3, #1]
  
  USB_OTG_EPSetStall(pdev , ep);
 8003ea0:	68f9      	ldr	r1, [r7, #12]
 8003ea2:	6878      	ldr	r0, [r7, #4]
 8003ea4:	f7ff fd35 	bl	8003912 <USB_OTG_EPSetStall>
  return (0);
 8003ea8:	2300      	movs	r3, #0
}
 8003eaa:	4618      	mov	r0, r3
 8003eac:	3710      	adds	r7, #16
 8003eae:	46bd      	mov	sp, r7
 8003eb0:	bd80      	pop	{r7, pc}

08003eb2 <DCD_EP_ClrStall>:
* @param pdev: device instance
* @param epnum: endpoint address
* @retval : status
*/
uint32_t  DCD_EP_ClrStall (USB_OTG_CORE_HANDLE *pdev, uint8_t epnum)
{
 8003eb2:	b580      	push	{r7, lr}
 8003eb4:	b084      	sub	sp, #16
 8003eb6:	af00      	add	r7, sp, #0
 8003eb8:	6078      	str	r0, [r7, #4]
 8003eba:	460b      	mov	r3, r1
 8003ebc:	70fb      	strb	r3, [r7, #3]
  USB_OTG_EP *ep;
  if ((0x80 & epnum) == 0x80)
 8003ebe:	f997 3003 	ldrsb.w	r3, [r7, #3]
 8003ec2:	2b00      	cmp	r3, #0
 8003ec4:	da0d      	bge.n	8003ee2 <DCD_EP_ClrStall+0x30>
  {
    ep = &pdev->dev.in_ep[epnum & 0x7F];    
 8003ec6:	78fb      	ldrb	r3, [r7, #3]
 8003ec8:	f003 027f 	and.w	r2, r3, #127	; 0x7f
 8003ecc:	4613      	mov	r3, r2
 8003ece:	009b      	lsls	r3, r3, #2
 8003ed0:	4413      	add	r3, r2
 8003ed2:	00db      	lsls	r3, r3, #3
 8003ed4:	f503 738c 	add.w	r3, r3, #280	; 0x118
 8003ed8:	687a      	ldr	r2, [r7, #4]
 8003eda:	4413      	add	r3, r2
 8003edc:	3304      	adds	r3, #4
 8003ede:	60fb      	str	r3, [r7, #12]
 8003ee0:	e00a      	b.n	8003ef8 <DCD_EP_ClrStall+0x46>
  }
  else
  {
    ep = &pdev->dev.out_ep[epnum];
 8003ee2:	78fa      	ldrb	r2, [r7, #3]
 8003ee4:	4613      	mov	r3, r2
 8003ee6:	009b      	lsls	r3, r3, #2
 8003ee8:	4413      	add	r3, r2
 8003eea:	00db      	lsls	r3, r3, #3
 8003eec:	f503 735c 	add.w	r3, r3, #880	; 0x370
 8003ef0:	687a      	ldr	r2, [r7, #4]
 8003ef2:	4413      	add	r3, r2
 8003ef4:	3304      	adds	r3, #4
 8003ef6:	60fb      	str	r3, [r7, #12]
  }
  
  ep->is_stall = 0;  
 8003ef8:	68fb      	ldr	r3, [r7, #12]
 8003efa:	2200      	movs	r2, #0
 8003efc:	709a      	strb	r2, [r3, #2]
  ep->num   = epnum & 0x7F;
 8003efe:	78fb      	ldrb	r3, [r7, #3]
 8003f00:	f003 037f 	and.w	r3, r3, #127	; 0x7f
 8003f04:	b2da      	uxtb	r2, r3
 8003f06:	68fb      	ldr	r3, [r7, #12]
 8003f08:	701a      	strb	r2, [r3, #0]
  ep->is_in = ((epnum & 0x80) == 0x80);
 8003f0a:	f997 3003 	ldrsb.w	r3, [r7, #3]
 8003f0e:	b2db      	uxtb	r3, r3
 8003f10:	09db      	lsrs	r3, r3, #7
 8003f12:	b2db      	uxtb	r3, r3
 8003f14:	461a      	mov	r2, r3
 8003f16:	68fb      	ldr	r3, [r7, #12]
 8003f18:	705a      	strb	r2, [r3, #1]
  
  USB_OTG_EPClearStall(pdev , ep);
 8003f1a:	68f9      	ldr	r1, [r7, #12]
 8003f1c:	6878      	ldr	r0, [r7, #4]
 8003f1e:	f7ff fd3b 	bl	8003998 <USB_OTG_EPClearStall>
  return (0);
 8003f22:	2300      	movs	r3, #0
}
 8003f24:	4618      	mov	r0, r3
 8003f26:	3710      	adds	r7, #16
 8003f28:	46bd      	mov	sp, r7
 8003f2a:	bd80      	pop	{r7, pc}

08003f2c <DCD_EP_SetAddress>:
* @param pdev: device instance
* @param address: new device address
* @retval : status
*/
void  DCD_EP_SetAddress (USB_OTG_CORE_HANDLE *pdev, uint8_t address)
{
 8003f2c:	b480      	push	{r7}
 8003f2e:	b085      	sub	sp, #20
 8003f30:	af00      	add	r7, sp, #0
 8003f32:	6078      	str	r0, [r7, #4]
 8003f34:	460b      	mov	r3, r1
 8003f36:	70fb      	strb	r3, [r7, #3]
  USB_OTG_DCFG_TypeDef  dcfg;
  dcfg.d32 = 0;
 8003f38:	2300      	movs	r3, #0
 8003f3a:	60fb      	str	r3, [r7, #12]
  dcfg.b.devaddr = address;
 8003f3c:	78fb      	ldrb	r3, [r7, #3]
 8003f3e:	f003 037f 	and.w	r3, r3, #127	; 0x7f
 8003f42:	b2da      	uxtb	r2, r3
 8003f44:	89bb      	ldrh	r3, [r7, #12]
 8003f46:	f362 130a 	bfi	r3, r2, #4, #7
 8003f4a:	81bb      	strh	r3, [r7, #12]
  USB_OTG_MODIFY_REG32( &pdev->regs.DREGS->DCFG, 0, dcfg.d32);
 8003f4c:	687b      	ldr	r3, [r7, #4]
 8003f4e:	691b      	ldr	r3, [r3, #16]
 8003f50:	687a      	ldr	r2, [r7, #4]
 8003f52:	6912      	ldr	r2, [r2, #16]
 8003f54:	6811      	ldr	r1, [r2, #0]
 8003f56:	68fa      	ldr	r2, [r7, #12]
 8003f58:	430a      	orrs	r2, r1
 8003f5a:	601a      	str	r2, [r3, #0]
}
 8003f5c:	bf00      	nop
 8003f5e:	3714      	adds	r7, #20
 8003f60:	46bd      	mov	sp, r7
 8003f62:	f85d 7b04 	ldr.w	r7, [sp], #4
 8003f66:	4770      	bx	lr

08003f68 <USBD_OTG_ISR_Handler>:
*         handles all USB Interrupts
* @param  pdev: device instance
* @retval status
*/
uint32_t USBD_OTG_ISR_Handler (USB_OTG_CORE_HANDLE *pdev)
{
 8003f68:	b580      	push	{r7, lr}
 8003f6a:	b086      	sub	sp, #24
 8003f6c:	af00      	add	r7, sp, #0
 8003f6e:	6078      	str	r0, [r7, #4]
  USB_OTG_GINTSTS_TypeDef  gintr_status;
  uint32_t retval = 0;
 8003f70:	2300      	movs	r3, #0
 8003f72:	617b      	str	r3, [r7, #20]
  
  if (USB_OTG_IsDeviceMode(pdev)) /* ensure that we are in device mode */
 8003f74:	6878      	ldr	r0, [r7, #4]
 8003f76:	f7fe ffcf 	bl	8002f18 <USB_OTG_IsDeviceMode>
 8003f7a:	4603      	mov	r3, r0
 8003f7c:	2b00      	cmp	r3, #0
 8003f7e:	f000 809c 	beq.w	80040ba <USBD_OTG_ISR_Handler+0x152>
  {
    gintr_status.d32 = USB_OTG_ReadCoreItr(pdev);
 8003f82:	6878      	ldr	r0, [r7, #4]
 8003f84:	f7fe ffd9 	bl	8002f3a <USB_OTG_ReadCoreItr>
 8003f88:	4603      	mov	r3, r0
 8003f8a:	613b      	str	r3, [r7, #16]
    if (!gintr_status.d32) /* avoid spurious interrupt */
 8003f8c:	693b      	ldr	r3, [r7, #16]
 8003f8e:	2b00      	cmp	r3, #0
 8003f90:	d101      	bne.n	8003f96 <USBD_OTG_ISR_Handler+0x2e>
    {
      return 0;
 8003f92:	2300      	movs	r3, #0
 8003f94:	e092      	b.n	80040bc <USBD_OTG_ISR_Handler+0x154>
    }
    
    if (gintr_status.b.outepintr)
 8003f96:	7cbb      	ldrb	r3, [r7, #18]
 8003f98:	f003 0308 	and.w	r3, r3, #8
 8003f9c:	b2db      	uxtb	r3, r3
 8003f9e:	2b00      	cmp	r3, #0
 8003fa0:	d006      	beq.n	8003fb0 <USBD_OTG_ISR_Handler+0x48>
    {
      retval |= DCD_HandleOutEP_ISR(pdev);
 8003fa2:	6878      	ldr	r0, [r7, #4]
 8003fa4:	f000 f9fa 	bl	800439c <DCD_HandleOutEP_ISR>
 8003fa8:	4602      	mov	r2, r0
 8003faa:	697b      	ldr	r3, [r7, #20]
 8003fac:	4313      	orrs	r3, r2
 8003fae:	617b      	str	r3, [r7, #20]
    }    
    
    if (gintr_status.b.inepint)
 8003fb0:	7cbb      	ldrb	r3, [r7, #18]
 8003fb2:	f003 0304 	and.w	r3, r3, #4
 8003fb6:	b2db      	uxtb	r3, r3
 8003fb8:	2b00      	cmp	r3, #0
 8003fba:	d006      	beq.n	8003fca <USBD_OTG_ISR_Handler+0x62>
    {
      retval |= DCD_HandleInEP_ISR(pdev);
 8003fbc:	6878      	ldr	r0, [r7, #4]
 8003fbe:	f000 f91f 	bl	8004200 <DCD_HandleInEP_ISR>
 8003fc2:	4602      	mov	r2, r0
 8003fc4:	697b      	ldr	r3, [r7, #20]
 8003fc6:	4313      	orrs	r3, r2
 8003fc8:	617b      	str	r3, [r7, #20]
    }
    
    if (gintr_status.b.modemismatch)
 8003fca:	7c3b      	ldrb	r3, [r7, #16]
 8003fcc:	f003 0302 	and.w	r3, r3, #2
 8003fd0:	b2db      	uxtb	r3, r3
 8003fd2:	2b00      	cmp	r3, #0
 8003fd4:	d009      	beq.n	8003fea <USBD_OTG_ISR_Handler+0x82>
    {
      USB_OTG_GINTSTS_TypeDef  gintsts;
      
      /* Clear interrupt */
      gintsts.d32 = 0;
 8003fd6:	2300      	movs	r3, #0
 8003fd8:	60fb      	str	r3, [r7, #12]
      gintsts.b.modemismatch = 1;
 8003fda:	7b3b      	ldrb	r3, [r7, #12]
 8003fdc:	f043 0302 	orr.w	r3, r3, #2
 8003fe0:	733b      	strb	r3, [r7, #12]
      USB_OTG_WRITE_REG32(&pdev->regs.GREGS->GINTSTS, gintsts.d32);
 8003fe2:	687b      	ldr	r3, [r7, #4]
 8003fe4:	68db      	ldr	r3, [r3, #12]
 8003fe6:	68fa      	ldr	r2, [r7, #12]
 8003fe8:	615a      	str	r2, [r3, #20]
    }
    
    if (gintr_status.b.wkupintr)
 8003fea:	7cfb      	ldrb	r3, [r7, #19]
 8003fec:	f023 037f 	bic.w	r3, r3, #127	; 0x7f
 8003ff0:	b2db      	uxtb	r3, r3
 8003ff2:	2b00      	cmp	r3, #0
 8003ff4:	d006      	beq.n	8004004 <USBD_OTG_ISR_Handler+0x9c>
    {
      retval |= DCD_HandleResume_ISR(pdev);
 8003ff6:	6878      	ldr	r0, [r7, #4]
 8003ff8:	f000 f864 	bl	80040c4 <DCD_HandleResume_ISR>
 8003ffc:	4602      	mov	r2, r0
 8003ffe:	697b      	ldr	r3, [r7, #20]
 8004000:	4313      	orrs	r3, r2
 8004002:	617b      	str	r3, [r7, #20]
    }
    
    if (gintr_status.b.usbsuspend)
 8004004:	7c7b      	ldrb	r3, [r7, #17]
 8004006:	f003 0308 	and.w	r3, r3, #8
 800400a:	b2db      	uxtb	r3, r3
 800400c:	2b00      	cmp	r3, #0
 800400e:	d006      	beq.n	800401e <USBD_OTG_ISR_Handler+0xb6>
    {
      retval |= DCD_HandleUSBSuspend_ISR(pdev);
 8004010:	6878      	ldr	r0, [r7, #4]
 8004012:	f000 f897 	bl	8004144 <DCD_HandleUSBSuspend_ISR>
 8004016:	4602      	mov	r2, r0
 8004018:	697b      	ldr	r3, [r7, #20]
 800401a:	4313      	orrs	r3, r2
 800401c:	617b      	str	r3, [r7, #20]
    }
    if (gintr_status.b.sofintr)
 800401e:	7c3b      	ldrb	r3, [r7, #16]
 8004020:	f003 0308 	and.w	r3, r3, #8
 8004024:	b2db      	uxtb	r3, r3
 8004026:	2b00      	cmp	r3, #0
 8004028:	d006      	beq.n	8004038 <USBD_OTG_ISR_Handler+0xd0>
    {
      retval |= DCD_HandleSof_ISR(pdev);
 800402a:	6878      	ldr	r0, [r7, #4]
 800402c:	f000 fa5e 	bl	80044ec <DCD_HandleSof_ISR>
 8004030:	4602      	mov	r2, r0
 8004032:	697b      	ldr	r3, [r7, #20]
 8004034:	4313      	orrs	r3, r2
 8004036:	617b      	str	r3, [r7, #20]
      
    }
    
    if (gintr_status.b.rxstsqlvl)
 8004038:	7c3b      	ldrb	r3, [r7, #16]
 800403a:	f003 0310 	and.w	r3, r3, #16
 800403e:	b2db      	uxtb	r3, r3
 8004040:	2b00      	cmp	r3, #0
 8004042:	d006      	beq.n	8004052 <USBD_OTG_ISR_Handler+0xea>
    {
      retval |= DCD_HandleRxStatusQueueLevel_ISR(pdev);
 8004044:	6878      	ldr	r0, [r7, #4]
 8004046:	f000 fa6b 	bl	8004520 <DCD_HandleRxStatusQueueLevel_ISR>
 800404a:	4602      	mov	r2, r0
 800404c:	697b      	ldr	r3, [r7, #20]
 800404e:	4313      	orrs	r3, r2
 8004050:	617b      	str	r3, [r7, #20]
      
    }
    
    if (gintr_status.b.usbreset)
 8004052:	7c7b      	ldrb	r3, [r7, #17]
 8004054:	f003 0310 	and.w	r3, r3, #16
 8004058:	b2db      	uxtb	r3, r3
 800405a:	2b00      	cmp	r3, #0
 800405c:	d006      	beq.n	800406c <USBD_OTG_ISR_Handler+0x104>
    {
      retval |= DCD_HandleUsbReset_ISR(pdev);
 800405e:	6878      	ldr	r0, [r7, #4]
 8004060:	f000 fb52 	bl	8004708 <DCD_HandleUsbReset_ISR>
 8004064:	4602      	mov	r2, r0
 8004066:	697b      	ldr	r3, [r7, #20]
 8004068:	4313      	orrs	r3, r2
 800406a:	617b      	str	r3, [r7, #20]
      
    }
    if (gintr_status.b.enumdone)
 800406c:	7c7b      	ldrb	r3, [r7, #17]
 800406e:	f003 0320 	and.w	r3, r3, #32
 8004072:	b2db      	uxtb	r3, r3
 8004074:	2b00      	cmp	r3, #0
 8004076:	d006      	beq.n	8004086 <USBD_OTG_ISR_Handler+0x11e>
    {
      retval |= DCD_HandleEnumDone_ISR(pdev);
 8004078:	6878      	ldr	r0, [r7, #4]
 800407a:	f000 fbd5 	bl	8004828 <DCD_HandleEnumDone_ISR>
 800407e:	4602      	mov	r2, r0
 8004080:	697b      	ldr	r3, [r7, #20]
 8004082:	4313      	orrs	r3, r2
 8004084:	617b      	str	r3, [r7, #20]
    }
    
    if (gintr_status.b.incomplisoin)
 8004086:	7cbb      	ldrb	r3, [r7, #18]
 8004088:	f003 0310 	and.w	r3, r3, #16
 800408c:	b2db      	uxtb	r3, r3
 800408e:	2b00      	cmp	r3, #0
 8004090:	d006      	beq.n	80040a0 <USBD_OTG_ISR_Handler+0x138>
    {
      retval |= DCD_IsoINIncomplete_ISR(pdev);
 8004092:	6878      	ldr	r0, [r7, #4]
 8004094:	f000 fc04 	bl	80048a0 <DCD_IsoINIncomplete_ISR>
 8004098:	4602      	mov	r2, r0
 800409a:	697b      	ldr	r3, [r7, #20]
 800409c:	4313      	orrs	r3, r2
 800409e:	617b      	str	r3, [r7, #20]
    }

    if (gintr_status.b.incomplisoout)
 80040a0:	7cbb      	ldrb	r3, [r7, #18]
 80040a2:	f003 0320 	and.w	r3, r3, #32
 80040a6:	b2db      	uxtb	r3, r3
 80040a8:	2b00      	cmp	r3, #0
 80040aa:	d006      	beq.n	80040ba <USBD_OTG_ISR_Handler+0x152>
    {
      retval |= DCD_IsoOUTIncomplete_ISR(pdev);
 80040ac:	6878      	ldr	r0, [r7, #4]
 80040ae:	f000 fc11 	bl	80048d4 <DCD_IsoOUTIncomplete_ISR>
 80040b2:	4602      	mov	r2, r0
 80040b4:	697b      	ldr	r3, [r7, #20]
 80040b6:	4313      	orrs	r3, r2
 80040b8:	617b      	str	r3, [r7, #20]
    {
      retval |= DCD_OTG_ISR(pdev);
    }   
#endif    
  }
  return retval;
 80040ba:	697b      	ldr	r3, [r7, #20]
}
 80040bc:	4618      	mov	r0, r3
 80040be:	3718      	adds	r7, #24
 80040c0:	46bd      	mov	sp, r7
 80040c2:	bd80      	pop	{r7, pc}

080040c4 <DCD_HandleResume_ISR>:
*                 remote Wake-up sequence
* @param  pdev: device instance
* @retval status
*/
static uint32_t DCD_HandleResume_ISR(USB_OTG_CORE_HANDLE *pdev)
{
 80040c4:	b580      	push	{r7, lr}
 80040c6:	b086      	sub	sp, #24
 80040c8:	af00      	add	r7, sp, #0
 80040ca:	6078      	str	r0, [r7, #4]
  USB_OTG_GINTSTS_TypeDef  gintsts;
  USB_OTG_DCTL_TypeDef     devctl;
  USB_OTG_PCGCCTL_TypeDef  power;
  
  if(pdev->cfg.low_power)
 80040cc:	687b      	ldr	r3, [r7, #4]
 80040ce:	7a9b      	ldrb	r3, [r3, #10]
 80040d0:	2b00      	cmp	r3, #0
 80040d2:	d011      	beq.n	80040f8 <DCD_HandleResume_ISR+0x34>
  {
    /* un-gate USB Core clock */
    power.d32 = USB_OTG_READ_REG32(&pdev->regs.PCGCCTL);
 80040d4:	687b      	ldr	r3, [r7, #4]
 80040d6:	f503 7386 	add.w	r3, r3, #268	; 0x10c
 80040da:	681b      	ldr	r3, [r3, #0]
 80040dc:	60fb      	str	r3, [r7, #12]
    power.b.gatehclk = 0;
 80040de:	7b3b      	ldrb	r3, [r7, #12]
 80040e0:	f36f 0341 	bfc	r3, #1, #1
 80040e4:	733b      	strb	r3, [r7, #12]
    power.b.stoppclk = 0;
 80040e6:	7b3b      	ldrb	r3, [r7, #12]
 80040e8:	f36f 0300 	bfc	r3, #0, #1
 80040ec:	733b      	strb	r3, [r7, #12]
    USB_OTG_WRITE_REG32(pdev->regs.PCGCCTL, power.d32);
 80040ee:	687b      	ldr	r3, [r7, #4]
 80040f0:	f8d3 310c 	ldr.w	r3, [r3, #268]	; 0x10c
 80040f4:	68fa      	ldr	r2, [r7, #12]
 80040f6:	601a      	str	r2, [r3, #0]
  }
  
  /* Clear the Remote Wake-up Signaling */
  devctl.d32 = 0;
 80040f8:	2300      	movs	r3, #0
 80040fa:	613b      	str	r3, [r7, #16]
  devctl.b.rmtwkupsig = 1;
 80040fc:	7c3b      	ldrb	r3, [r7, #16]
 80040fe:	f043 0301 	orr.w	r3, r3, #1
 8004102:	743b      	strb	r3, [r7, #16]
  USB_OTG_MODIFY_REG32(&pdev->regs.DREGS->DCTL, devctl.d32, 0);
 8004104:	687b      	ldr	r3, [r7, #4]
 8004106:	691b      	ldr	r3, [r3, #16]
 8004108:	687a      	ldr	r2, [r7, #4]
 800410a:	6912      	ldr	r2, [r2, #16]
 800410c:	6851      	ldr	r1, [r2, #4]
 800410e:	693a      	ldr	r2, [r7, #16]
 8004110:	43d2      	mvns	r2, r2
 8004112:	400a      	ands	r2, r1
 8004114:	605a      	str	r2, [r3, #4]
  
  /* Inform upper layer by the Resume Event */
  USBD_DCD_INT_fops->Resume (pdev);
 8004116:	4b0a      	ldr	r3, [pc, #40]	; (8004140 <DCD_HandleResume_ISR+0x7c>)
 8004118:	681b      	ldr	r3, [r3, #0]
 800411a:	699b      	ldr	r3, [r3, #24]
 800411c:	6878      	ldr	r0, [r7, #4]
 800411e:	4798      	blx	r3
  
  /* Clear interrupt */
  gintsts.d32 = 0;
 8004120:	2300      	movs	r3, #0
 8004122:	617b      	str	r3, [r7, #20]
  gintsts.b.wkupintr = 1;
 8004124:	7dfb      	ldrb	r3, [r7, #23]
 8004126:	f043 0380 	orr.w	r3, r3, #128	; 0x80
 800412a:	75fb      	strb	r3, [r7, #23]
  USB_OTG_WRITE_REG32 (&pdev->regs.GREGS->GINTSTS, gintsts.d32);
 800412c:	687b      	ldr	r3, [r7, #4]
 800412e:	68db      	ldr	r3, [r3, #12]
 8004130:	697a      	ldr	r2, [r7, #20]
 8004132:	615a      	str	r2, [r3, #20]
  return 1;
 8004134:	2301      	movs	r3, #1
}
 8004136:	4618      	mov	r0, r3
 8004138:	3718      	adds	r7, #24
 800413a:	46bd      	mov	sp, r7
 800413c:	bd80      	pop	{r7, pc}
 800413e:	bf00      	nop
 8004140:	20007dcc 	.word	0x20007dcc

08004144 <DCD_HandleUSBSuspend_ISR>:
*         Indicates that SUSPEND state has been detected on the USB
* @param  pdev: device instance
* @retval status
*/
static uint32_t DCD_HandleUSBSuspend_ISR(USB_OTG_CORE_HANDLE *pdev)
{
 8004144:	b580      	push	{r7, lr}
 8004146:	b086      	sub	sp, #24
 8004148:	af00      	add	r7, sp, #0
 800414a:	6078      	str	r0, [r7, #4]
  USB_OTG_GINTSTS_TypeDef  gintsts;
  USB_OTG_PCGCCTL_TypeDef  power;
  USB_OTG_DSTS_TypeDef     dsts;
  __IO uint8_t prev_status = 0;
 800414c:	2300      	movs	r3, #0
 800414e:	72fb      	strb	r3, [r7, #11]
  
  prev_status = pdev->dev.device_status;
 8004150:	687b      	ldr	r3, [r7, #4]
 8004152:	f893 3112 	ldrb.w	r3, [r3, #274]	; 0x112
 8004156:	72fb      	strb	r3, [r7, #11]
  USBD_DCD_INT_fops->Suspend (pdev);      
 8004158:	4b27      	ldr	r3, [pc, #156]	; (80041f8 <DCD_HandleUSBSuspend_ISR+0xb4>)
 800415a:	681b      	ldr	r3, [r3, #0]
 800415c:	695b      	ldr	r3, [r3, #20]
 800415e:	6878      	ldr	r0, [r7, #4]
 8004160:	4798      	blx	r3
  
  dsts.d32 = USB_OTG_READ_REG32(&pdev->regs.DREGS->DSTS);
 8004162:	687b      	ldr	r3, [r7, #4]
 8004164:	691b      	ldr	r3, [r3, #16]
 8004166:	689b      	ldr	r3, [r3, #8]
 8004168:	60fb      	str	r3, [r7, #12]
    
  /* Clear interrupt */
  gintsts.d32 = 0;
 800416a:	2300      	movs	r3, #0
 800416c:	617b      	str	r3, [r7, #20]
  gintsts.b.usbsuspend = 1;
 800416e:	7d7b      	ldrb	r3, [r7, #21]
 8004170:	f043 0308 	orr.w	r3, r3, #8
 8004174:	757b      	strb	r3, [r7, #21]
  USB_OTG_WRITE_REG32(&pdev->regs.GREGS->GINTSTS, gintsts.d32);
 8004176:	687b      	ldr	r3, [r7, #4]
 8004178:	68db      	ldr	r3, [r3, #12]
 800417a:	697a      	ldr	r2, [r7, #20]
 800417c:	615a      	str	r2, [r3, #20]
  
  if((pdev->cfg.low_power) && (dsts.b.suspsts == 1)  && 
 800417e:	687b      	ldr	r3, [r7, #4]
 8004180:	7a9b      	ldrb	r3, [r3, #10]
 8004182:	2b00      	cmp	r3, #0
 8004184:	d032      	beq.n	80041ec <DCD_HandleUSBSuspend_ISR+0xa8>
 8004186:	7b3b      	ldrb	r3, [r7, #12]
 8004188:	f003 0301 	and.w	r3, r3, #1
 800418c:	b2db      	uxtb	r3, r3
 800418e:	2b00      	cmp	r3, #0
 8004190:	d02c      	beq.n	80041ec <DCD_HandleUSBSuspend_ISR+0xa8>
    (pdev->dev.connection_status == 1) && 
 8004192:	687b      	ldr	r3, [r7, #4]
 8004194:	f893 3115 	ldrb.w	r3, [r3, #277]	; 0x115
  if((pdev->cfg.low_power) && (dsts.b.suspsts == 1)  && 
 8004198:	2b01      	cmp	r3, #1
 800419a:	d127      	bne.n	80041ec <DCD_HandleUSBSuspend_ISR+0xa8>
    (prev_status  == USB_OTG_CONFIGURED))
 800419c:	7afb      	ldrb	r3, [r7, #11]
 800419e:	b2db      	uxtb	r3, r3
    (pdev->dev.connection_status == 1) && 
 80041a0:	2b03      	cmp	r3, #3
 80041a2:	d123      	bne.n	80041ec <DCD_HandleUSBSuspend_ISR+0xa8>
  {
	/*  switch-off the clocks */
    power.d32 = 0;
 80041a4:	2300      	movs	r3, #0
 80041a6:	613b      	str	r3, [r7, #16]
    power.b.stoppclk = 1;
 80041a8:	7c3b      	ldrb	r3, [r7, #16]
 80041aa:	f043 0301 	orr.w	r3, r3, #1
 80041ae:	743b      	strb	r3, [r7, #16]
    USB_OTG_MODIFY_REG32(pdev->regs.PCGCCTL, 0, power.d32);  
 80041b0:	687b      	ldr	r3, [r7, #4]
 80041b2:	f8d3 310c 	ldr.w	r3, [r3, #268]	; 0x10c
 80041b6:	687a      	ldr	r2, [r7, #4]
 80041b8:	f8d2 210c 	ldr.w	r2, [r2, #268]	; 0x10c
 80041bc:	6811      	ldr	r1, [r2, #0]
 80041be:	693a      	ldr	r2, [r7, #16]
 80041c0:	430a      	orrs	r2, r1
 80041c2:	601a      	str	r2, [r3, #0]
    
    power.b.gatehclk = 1;
 80041c4:	7c3b      	ldrb	r3, [r7, #16]
 80041c6:	f043 0302 	orr.w	r3, r3, #2
 80041ca:	743b      	strb	r3, [r7, #16]
    USB_OTG_MODIFY_REG32(pdev->regs.PCGCCTL, 0, power.d32);
 80041cc:	687b      	ldr	r3, [r7, #4]
 80041ce:	f8d3 310c 	ldr.w	r3, [r3, #268]	; 0x10c
 80041d2:	687a      	ldr	r2, [r7, #4]
 80041d4:	f8d2 210c 	ldr.w	r2, [r2, #268]	; 0x10c
 80041d8:	6811      	ldr	r1, [r2, #0]
 80041da:	693a      	ldr	r2, [r7, #16]
 80041dc:	430a      	orrs	r2, r1
 80041de:	601a      	str	r2, [r3, #0]
    
    /* Request to enter Sleep mode after exit from current ISR */
    SCB->SCR |= (SCB_SCR_SLEEPDEEP_Msk | SCB_SCR_SLEEPONEXIT_Msk);
 80041e0:	4a06      	ldr	r2, [pc, #24]	; (80041fc <DCD_HandleUSBSuspend_ISR+0xb8>)
 80041e2:	4b06      	ldr	r3, [pc, #24]	; (80041fc <DCD_HandleUSBSuspend_ISR+0xb8>)
 80041e4:	691b      	ldr	r3, [r3, #16]
 80041e6:	f043 0306 	orr.w	r3, r3, #6
 80041ea:	6113      	str	r3, [r2, #16]
  }
  return 1;
 80041ec:	2301      	movs	r3, #1
}
 80041ee:	4618      	mov	r0, r3
 80041f0:	3718      	adds	r7, #24
 80041f2:	46bd      	mov	sp, r7
 80041f4:	bd80      	pop	{r7, pc}
 80041f6:	bf00      	nop
 80041f8:	20007dcc 	.word	0x20007dcc
 80041fc:	e000ed00 	.word	0xe000ed00

08004200 <DCD_HandleInEP_ISR>:
*         Indicates that an IN EP has a pending Interrupt
* @param  pdev: device instance
* @retval status
*/
static uint32_t DCD_HandleInEP_ISR(USB_OTG_CORE_HANDLE *pdev)
{
 8004200:	b580      	push	{r7, lr}
 8004202:	b086      	sub	sp, #24
 8004204:	af00      	add	r7, sp, #0
 8004206:	6078      	str	r0, [r7, #4]
  USB_OTG_DIEPINTn_TypeDef  diepint;
  
  uint32_t ep_intr;
  uint32_t epnum = 0;
 8004208:	2300      	movs	r3, #0
 800420a:	613b      	str	r3, [r7, #16]
  uint32_t fifoemptymsk;
  diepint.d32 = 0;
 800420c:	2300      	movs	r3, #0
 800420e:	60bb      	str	r3, [r7, #8]
  ep_intr = USB_OTG_ReadDevAllInEPItr(pdev);
 8004210:	6878      	ldr	r0, [r7, #4]
 8004212:	f7ff fc2d 	bl	8003a70 <USB_OTG_ReadDevAllInEPItr>
 8004216:	6178      	str	r0, [r7, #20]
  
  while ( ep_intr )
 8004218:	e0b4      	b.n	8004384 <DCD_HandleInEP_ISR+0x184>
  {
    if (ep_intr&0x1) /* In ITR */
 800421a:	697b      	ldr	r3, [r7, #20]
 800421c:	f003 0301 	and.w	r3, r3, #1
 8004220:	2b00      	cmp	r3, #0
 8004222:	f000 80a9 	beq.w	8004378 <DCD_HandleInEP_ISR+0x178>
    {
      diepint.d32 = DCD_ReadDevInEP(pdev , epnum); /* Get In ITR status */
 8004226:	693b      	ldr	r3, [r7, #16]
 8004228:	b2db      	uxtb	r3, r3
 800422a:	4619      	mov	r1, r3
 800422c:	6878      	ldr	r0, [r7, #4]
 800422e:	f000 fb6b 	bl	8004908 <DCD_ReadDevInEP>
 8004232:	4603      	mov	r3, r0
 8004234:	60bb      	str	r3, [r7, #8]
      if ( diepint.b.xfercompl )
 8004236:	7a3b      	ldrb	r3, [r7, #8]
 8004238:	f003 0301 	and.w	r3, r3, #1
 800423c:	b2db      	uxtb	r3, r3
 800423e:	2b00      	cmp	r3, #0
 8004240:	d032      	beq.n	80042a8 <DCD_HandleInEP_ISR+0xa8>
      {
        fifoemptymsk = 0x1 << epnum;
 8004242:	2201      	movs	r2, #1
 8004244:	693b      	ldr	r3, [r7, #16]
 8004246:	fa02 f303 	lsl.w	r3, r2, r3
 800424a:	60fb      	str	r3, [r7, #12]
        USB_OTG_MODIFY_REG32(&pdev->regs.DREGS->DIEPEMPMSK, fifoemptymsk, 0);
 800424c:	687b      	ldr	r3, [r7, #4]
 800424e:	691b      	ldr	r3, [r3, #16]
 8004250:	687a      	ldr	r2, [r7, #4]
 8004252:	6912      	ldr	r2, [r2, #16]
 8004254:	6b51      	ldr	r1, [r2, #52]	; 0x34
 8004256:	68fa      	ldr	r2, [r7, #12]
 8004258:	43d2      	mvns	r2, r2
 800425a:	400a      	ands	r2, r1
 800425c:	635a      	str	r2, [r3, #52]	; 0x34
        CLEAR_IN_EP_INTR(epnum, xfercompl);
 800425e:	2300      	movs	r3, #0
 8004260:	60bb      	str	r3, [r7, #8]
 8004262:	7a3b      	ldrb	r3, [r7, #8]
 8004264:	f043 0301 	orr.w	r3, r3, #1
 8004268:	723b      	strb	r3, [r7, #8]
 800426a:	687a      	ldr	r2, [r7, #4]
 800426c:	693b      	ldr	r3, [r7, #16]
 800426e:	3304      	adds	r3, #4
 8004270:	009b      	lsls	r3, r3, #2
 8004272:	4413      	add	r3, r2
 8004274:	689b      	ldr	r3, [r3, #8]
 8004276:	68ba      	ldr	r2, [r7, #8]
 8004278:	609a      	str	r2, [r3, #8]
        /* TX COMPLETE */
        USBD_DCD_INT_fops->DataInStage(pdev , epnum);
 800427a:	4b47      	ldr	r3, [pc, #284]	; (8004398 <DCD_HandleInEP_ISR+0x198>)
 800427c:	681b      	ldr	r3, [r3, #0]
 800427e:	685b      	ldr	r3, [r3, #4]
 8004280:	693a      	ldr	r2, [r7, #16]
 8004282:	b2d2      	uxtb	r2, r2
 8004284:	4611      	mov	r1, r2
 8004286:	6878      	ldr	r0, [r7, #4]
 8004288:	4798      	blx	r3
        
        if (pdev->cfg.dma_enable == 1)
 800428a:	687b      	ldr	r3, [r7, #4]
 800428c:	78db      	ldrb	r3, [r3, #3]
 800428e:	2b01      	cmp	r3, #1
 8004290:	d10a      	bne.n	80042a8 <DCD_HandleInEP_ISR+0xa8>
        {
          if((epnum == 0) && (pdev->dev.device_state == USB_OTG_EP0_STATUS_IN))
 8004292:	693b      	ldr	r3, [r7, #16]
 8004294:	2b00      	cmp	r3, #0
 8004296:	d107      	bne.n	80042a8 <DCD_HandleInEP_ISR+0xa8>
 8004298:	687b      	ldr	r3, [r7, #4]
 800429a:	f893 3111 	ldrb.w	r3, [r3, #273]	; 0x111
 800429e:	2b04      	cmp	r3, #4
 80042a0:	d102      	bne.n	80042a8 <DCD_HandleInEP_ISR+0xa8>
          {
            /* prepare to rx more setup packets */
            USB_OTG_EP0_OutStart(pdev);
 80042a2:	6878      	ldr	r0, [r7, #4]
 80042a4:	f7ff fbfa 	bl	8003a9c <USB_OTG_EP0_OutStart>
          }
        }           
      }
      if ( diepint.b.timeout )
 80042a8:	7a3b      	ldrb	r3, [r7, #8]
 80042aa:	f003 0308 	and.w	r3, r3, #8
 80042ae:	b2db      	uxtb	r3, r3
 80042b0:	2b00      	cmp	r3, #0
 80042b2:	d00d      	beq.n	80042d0 <DCD_HandleInEP_ISR+0xd0>
      {
        CLEAR_IN_EP_INTR(epnum, timeout);
 80042b4:	2300      	movs	r3, #0
 80042b6:	60bb      	str	r3, [r7, #8]
 80042b8:	7a3b      	ldrb	r3, [r7, #8]
 80042ba:	f043 0308 	orr.w	r3, r3, #8
 80042be:	723b      	strb	r3, [r7, #8]
 80042c0:	687a      	ldr	r2, [r7, #4]
 80042c2:	693b      	ldr	r3, [r7, #16]
 80042c4:	3304      	adds	r3, #4
 80042c6:	009b      	lsls	r3, r3, #2
 80042c8:	4413      	add	r3, r2
 80042ca:	689b      	ldr	r3, [r3, #8]
 80042cc:	68ba      	ldr	r2, [r7, #8]
 80042ce:	609a      	str	r2, [r3, #8]
      }
      if (diepint.b.intktxfemp)
 80042d0:	7a3b      	ldrb	r3, [r7, #8]
 80042d2:	f003 0310 	and.w	r3, r3, #16
 80042d6:	b2db      	uxtb	r3, r3
 80042d8:	2b00      	cmp	r3, #0
 80042da:	d00d      	beq.n	80042f8 <DCD_HandleInEP_ISR+0xf8>
      {
        CLEAR_IN_EP_INTR(epnum, intktxfemp);
 80042dc:	2300      	movs	r3, #0
 80042de:	60bb      	str	r3, [r7, #8]
 80042e0:	7a3b      	ldrb	r3, [r7, #8]
 80042e2:	f043 0310 	orr.w	r3, r3, #16
 80042e6:	723b      	strb	r3, [r7, #8]
 80042e8:	687a      	ldr	r2, [r7, #4]
 80042ea:	693b      	ldr	r3, [r7, #16]
 80042ec:	3304      	adds	r3, #4
 80042ee:	009b      	lsls	r3, r3, #2
 80042f0:	4413      	add	r3, r2
 80042f2:	689b      	ldr	r3, [r3, #8]
 80042f4:	68ba      	ldr	r2, [r7, #8]
 80042f6:	609a      	str	r2, [r3, #8]
      }
      if (diepint.b.inepnakeff)
 80042f8:	7a3b      	ldrb	r3, [r7, #8]
 80042fa:	f003 0340 	and.w	r3, r3, #64	; 0x40
 80042fe:	b2db      	uxtb	r3, r3
 8004300:	2b00      	cmp	r3, #0
 8004302:	d00d      	beq.n	8004320 <DCD_HandleInEP_ISR+0x120>
      {
        CLEAR_IN_EP_INTR(epnum, inepnakeff);
 8004304:	2300      	movs	r3, #0
 8004306:	60bb      	str	r3, [r7, #8]
 8004308:	7a3b      	ldrb	r3, [r7, #8]
 800430a:	f043 0340 	orr.w	r3, r3, #64	; 0x40
 800430e:	723b      	strb	r3, [r7, #8]
 8004310:	687a      	ldr	r2, [r7, #4]
 8004312:	693b      	ldr	r3, [r7, #16]
 8004314:	3304      	adds	r3, #4
 8004316:	009b      	lsls	r3, r3, #2
 8004318:	4413      	add	r3, r2
 800431a:	689b      	ldr	r3, [r3, #8]
 800431c:	68ba      	ldr	r2, [r7, #8]
 800431e:	609a      	str	r2, [r3, #8]
      }
      if ( diepint.b.epdisabled )
 8004320:	7a3b      	ldrb	r3, [r7, #8]
 8004322:	f003 0302 	and.w	r3, r3, #2
 8004326:	b2db      	uxtb	r3, r3
 8004328:	2b00      	cmp	r3, #0
 800432a:	d00d      	beq.n	8004348 <DCD_HandleInEP_ISR+0x148>
      {
        CLEAR_IN_EP_INTR(epnum, epdisabled);
 800432c:	2300      	movs	r3, #0
 800432e:	60bb      	str	r3, [r7, #8]
 8004330:	7a3b      	ldrb	r3, [r7, #8]
 8004332:	f043 0302 	orr.w	r3, r3, #2
 8004336:	723b      	strb	r3, [r7, #8]
 8004338:	687a      	ldr	r2, [r7, #4]
 800433a:	693b      	ldr	r3, [r7, #16]
 800433c:	3304      	adds	r3, #4
 800433e:	009b      	lsls	r3, r3, #2
 8004340:	4413      	add	r3, r2
 8004342:	689b      	ldr	r3, [r3, #8]
 8004344:	68ba      	ldr	r2, [r7, #8]
 8004346:	609a      	str	r2, [r3, #8]
      }       
      if (diepint.b.emptyintr)
 8004348:	7a3b      	ldrb	r3, [r7, #8]
 800434a:	f023 037f 	bic.w	r3, r3, #127	; 0x7f
 800434e:	b2db      	uxtb	r3, r3
 8004350:	2b00      	cmp	r3, #0
 8004352:	d011      	beq.n	8004378 <DCD_HandleInEP_ISR+0x178>
      {
        
        DCD_WriteEmptyTxFifo(pdev , epnum);
 8004354:	6939      	ldr	r1, [r7, #16]
 8004356:	6878      	ldr	r0, [r7, #4]
 8004358:	f000 f964 	bl	8004624 <DCD_WriteEmptyTxFifo>
        
        CLEAR_IN_EP_INTR(epnum, emptyintr);
 800435c:	2300      	movs	r3, #0
 800435e:	60bb      	str	r3, [r7, #8]
 8004360:	7a3b      	ldrb	r3, [r7, #8]
 8004362:	f043 0380 	orr.w	r3, r3, #128	; 0x80
 8004366:	723b      	strb	r3, [r7, #8]
 8004368:	687a      	ldr	r2, [r7, #4]
 800436a:	693b      	ldr	r3, [r7, #16]
 800436c:	3304      	adds	r3, #4
 800436e:	009b      	lsls	r3, r3, #2
 8004370:	4413      	add	r3, r2
 8004372:	689b      	ldr	r3, [r3, #8]
 8004374:	68ba      	ldr	r2, [r7, #8]
 8004376:	609a      	str	r2, [r3, #8]
      }
    }
    epnum++;
 8004378:	693b      	ldr	r3, [r7, #16]
 800437a:	3301      	adds	r3, #1
 800437c:	613b      	str	r3, [r7, #16]
    ep_intr >>= 1;
 800437e:	697b      	ldr	r3, [r7, #20]
 8004380:	085b      	lsrs	r3, r3, #1
 8004382:	617b      	str	r3, [r7, #20]
  while ( ep_intr )
 8004384:	697b      	ldr	r3, [r7, #20]
 8004386:	2b00      	cmp	r3, #0
 8004388:	f47f af47 	bne.w	800421a <DCD_HandleInEP_ISR+0x1a>
  }
  
  return 1;
 800438c:	2301      	movs	r3, #1
}
 800438e:	4618      	mov	r0, r3
 8004390:	3718      	adds	r7, #24
 8004392:	46bd      	mov	sp, r7
 8004394:	bd80      	pop	{r7, pc}
 8004396:	bf00      	nop
 8004398:	20007dcc 	.word	0x20007dcc

0800439c <DCD_HandleOutEP_ISR>:
*         Indicates that an OUT EP has a pending Interrupt
* @param  pdev: device instance
* @retval status
*/
static uint32_t DCD_HandleOutEP_ISR(USB_OTG_CORE_HANDLE *pdev)
{
 800439c:	b580      	push	{r7, lr}
 800439e:	b086      	sub	sp, #24
 80043a0:	af00      	add	r7, sp, #0
 80043a2:	6078      	str	r0, [r7, #4]
  uint32_t ep_intr;
  USB_OTG_DOEPINTn_TypeDef  doepint;
  USB_OTG_DEPXFRSIZ_TypeDef  deptsiz;
  uint32_t epnum = 0;
 80043a4:	2300      	movs	r3, #0
 80043a6:	613b      	str	r3, [r7, #16]
  
  doepint.d32 = 0;
 80043a8:	2300      	movs	r3, #0
 80043aa:	60fb      	str	r3, [r7, #12]
  
  /* Read in the device interrupt bits */
  ep_intr = USB_OTG_ReadDevAllOutEp_itr(pdev);
 80043ac:	6878      	ldr	r0, [r7, #4]
 80043ae:	f7ff fb2e 	bl	8003a0e <USB_OTG_ReadDevAllOutEp_itr>
 80043b2:	6178      	str	r0, [r7, #20]
  
  while ( ep_intr )
 80043b4:	e08f      	b.n	80044d6 <DCD_HandleOutEP_ISR+0x13a>
  {
    if (ep_intr&0x1)
 80043b6:	697b      	ldr	r3, [r7, #20]
 80043b8:	f003 0301 	and.w	r3, r3, #1
 80043bc:	2b00      	cmp	r3, #0
 80043be:	f000 8084 	beq.w	80044ca <DCD_HandleOutEP_ISR+0x12e>
    {
      
      doepint.d32 = USB_OTG_ReadDevOutEP_itr(pdev, epnum);
 80043c2:	693b      	ldr	r3, [r7, #16]
 80043c4:	b2db      	uxtb	r3, r3
 80043c6:	4619      	mov	r1, r3
 80043c8:	6878      	ldr	r0, [r7, #4]
 80043ca:	f7ff fb36 	bl	8003a3a <USB_OTG_ReadDevOutEP_itr>
 80043ce:	4603      	mov	r3, r0
 80043d0:	60fb      	str	r3, [r7, #12]
      
      /* Transfer complete */
      if ( doepint.b.xfercompl )
 80043d2:	7b3b      	ldrb	r3, [r7, #12]
 80043d4:	f003 0301 	and.w	r3, r3, #1
 80043d8:	b2db      	uxtb	r3, r3
 80043da:	2b00      	cmp	r3, #0
 80043dc:	d048      	beq.n	8004470 <DCD_HandleOutEP_ISR+0xd4>
      {
        /* Clear the bit in DOEPINTn for this interrupt */
        CLEAR_OUT_EP_INTR(epnum, xfercompl);
 80043de:	2300      	movs	r3, #0
 80043e0:	60fb      	str	r3, [r7, #12]
 80043e2:	7b3b      	ldrb	r3, [r7, #12]
 80043e4:	f043 0301 	orr.w	r3, r3, #1
 80043e8:	733b      	strb	r3, [r7, #12]
 80043ea:	687a      	ldr	r2, [r7, #4]
 80043ec:	693b      	ldr	r3, [r7, #16]
 80043ee:	3314      	adds	r3, #20
 80043f0:	009b      	lsls	r3, r3, #2
 80043f2:	4413      	add	r3, r2
 80043f4:	685b      	ldr	r3, [r3, #4]
 80043f6:	68fa      	ldr	r2, [r7, #12]
 80043f8:	609a      	str	r2, [r3, #8]
        if (pdev->cfg.dma_enable == 1)
 80043fa:	687b      	ldr	r3, [r7, #4]
 80043fc:	78db      	ldrb	r3, [r3, #3]
 80043fe:	2b01      	cmp	r3, #1
 8004400:	d11f      	bne.n	8004442 <DCD_HandleOutEP_ISR+0xa6>
        {
          deptsiz.d32 = USB_OTG_READ_REG32(&(pdev->regs.OUTEP_REGS[epnum]->DOEPTSIZ));
 8004402:	687a      	ldr	r2, [r7, #4]
 8004404:	693b      	ldr	r3, [r7, #16]
 8004406:	3314      	adds	r3, #20
 8004408:	009b      	lsls	r3, r3, #2
 800440a:	4413      	add	r3, r2
 800440c:	685b      	ldr	r3, [r3, #4]
 800440e:	691b      	ldr	r3, [r3, #16]
 8004410:	60bb      	str	r3, [r7, #8]
          /*ToDo : handle more than one single MPS size packet */
          pdev->dev.out_ep[epnum].xfer_count = pdev->dev.out_ep[epnum].maxpacket - \
 8004412:	6879      	ldr	r1, [r7, #4]
 8004414:	693a      	ldr	r2, [r7, #16]
 8004416:	4613      	mov	r3, r2
 8004418:	009b      	lsls	r3, r3, #2
 800441a:	4413      	add	r3, r2
 800441c:	00db      	lsls	r3, r3, #3
 800441e:	440b      	add	r3, r1
 8004420:	f503 735f 	add.w	r3, r3, #892	; 0x37c
 8004424:	681b      	ldr	r3, [r3, #0]
            deptsiz.b.xfersize;
 8004426:	68ba      	ldr	r2, [r7, #8]
 8004428:	f3c2 0212 	ubfx	r2, r2, #0, #19
          pdev->dev.out_ep[epnum].xfer_count = pdev->dev.out_ep[epnum].maxpacket - \
 800442c:	1a99      	subs	r1, r3, r2
 800442e:	6878      	ldr	r0, [r7, #4]
 8004430:	693a      	ldr	r2, [r7, #16]
 8004432:	4613      	mov	r3, r2
 8004434:	009b      	lsls	r3, r3, #2
 8004436:	4413      	add	r3, r2
 8004438:	00db      	lsls	r3, r3, #3
 800443a:	4403      	add	r3, r0
 800443c:	f503 7363 	add.w	r3, r3, #908	; 0x38c
 8004440:	6019      	str	r1, [r3, #0]
        }
        /* Inform upper layer: data ready */
        /* RX COMPLETE */
        USBD_DCD_INT_fops->DataOutStage(pdev , epnum);
 8004442:	4b29      	ldr	r3, [pc, #164]	; (80044e8 <DCD_HandleOutEP_ISR+0x14c>)
 8004444:	681b      	ldr	r3, [r3, #0]
 8004446:	681b      	ldr	r3, [r3, #0]
 8004448:	693a      	ldr	r2, [r7, #16]
 800444a:	b2d2      	uxtb	r2, r2
 800444c:	4611      	mov	r1, r2
 800444e:	6878      	ldr	r0, [r7, #4]
 8004450:	4798      	blx	r3
        
        if (pdev->cfg.dma_enable == 1)
 8004452:	687b      	ldr	r3, [r7, #4]
 8004454:	78db      	ldrb	r3, [r3, #3]
 8004456:	2b01      	cmp	r3, #1
 8004458:	d10a      	bne.n	8004470 <DCD_HandleOutEP_ISR+0xd4>
        {
          if((epnum == 0) && (pdev->dev.device_state == USB_OTG_EP0_STATUS_OUT))
 800445a:	693b      	ldr	r3, [r7, #16]
 800445c:	2b00      	cmp	r3, #0
 800445e:	d107      	bne.n	8004470 <DCD_HandleOutEP_ISR+0xd4>
 8004460:	687b      	ldr	r3, [r7, #4]
 8004462:	f893 3111 	ldrb.w	r3, [r3, #273]	; 0x111
 8004466:	2b05      	cmp	r3, #5
 8004468:	d102      	bne.n	8004470 <DCD_HandleOutEP_ISR+0xd4>
          {
            /* prepare to rx more setup packets */
            USB_OTG_EP0_OutStart(pdev);
 800446a:	6878      	ldr	r0, [r7, #4]
 800446c:	f7ff fb16 	bl	8003a9c <USB_OTG_EP0_OutStart>
          }
        }        
      }
      /* Endpoint disable  */
      if ( doepint.b.epdisabled )
 8004470:	7b3b      	ldrb	r3, [r7, #12]
 8004472:	f003 0302 	and.w	r3, r3, #2
 8004476:	b2db      	uxtb	r3, r3
 8004478:	2b00      	cmp	r3, #0
 800447a:	d00d      	beq.n	8004498 <DCD_HandleOutEP_ISR+0xfc>
      {
        /* Clear the bit in DOEPINTn for this interrupt */
        CLEAR_OUT_EP_INTR(epnum, epdisabled);
 800447c:	2300      	movs	r3, #0
 800447e:	60fb      	str	r3, [r7, #12]
 8004480:	7b3b      	ldrb	r3, [r7, #12]
 8004482:	f043 0302 	orr.w	r3, r3, #2
 8004486:	733b      	strb	r3, [r7, #12]
 8004488:	687a      	ldr	r2, [r7, #4]
 800448a:	693b      	ldr	r3, [r7, #16]
 800448c:	3314      	adds	r3, #20
 800448e:	009b      	lsls	r3, r3, #2
 8004490:	4413      	add	r3, r2
 8004492:	685b      	ldr	r3, [r3, #4]
 8004494:	68fa      	ldr	r2, [r7, #12]
 8004496:	609a      	str	r2, [r3, #8]
      }
      /* Setup Phase Done (control EPs) */
      if ( doepint.b.setup )
 8004498:	7b3b      	ldrb	r3, [r7, #12]
 800449a:	f003 0308 	and.w	r3, r3, #8
 800449e:	b2db      	uxtb	r3, r3
 80044a0:	2b00      	cmp	r3, #0
 80044a2:	d012      	beq.n	80044ca <DCD_HandleOutEP_ISR+0x12e>
      {
        
        /* inform the upper layer that a setup packet is available */
        /* SETUP COMPLETE */
        USBD_DCD_INT_fops->SetupStage(pdev);
 80044a4:	4b10      	ldr	r3, [pc, #64]	; (80044e8 <DCD_HandleOutEP_ISR+0x14c>)
 80044a6:	681b      	ldr	r3, [r3, #0]
 80044a8:	689b      	ldr	r3, [r3, #8]
 80044aa:	6878      	ldr	r0, [r7, #4]
 80044ac:	4798      	blx	r3
        CLEAR_OUT_EP_INTR(epnum, setup);
 80044ae:	2300      	movs	r3, #0
 80044b0:	60fb      	str	r3, [r7, #12]
 80044b2:	7b3b      	ldrb	r3, [r7, #12]
 80044b4:	f043 0308 	orr.w	r3, r3, #8
 80044b8:	733b      	strb	r3, [r7, #12]
 80044ba:	687a      	ldr	r2, [r7, #4]
 80044bc:	693b      	ldr	r3, [r7, #16]
 80044be:	3314      	adds	r3, #20
 80044c0:	009b      	lsls	r3, r3, #2
 80044c2:	4413      	add	r3, r2
 80044c4:	685b      	ldr	r3, [r3, #4]
 80044c6:	68fa      	ldr	r2, [r7, #12]
 80044c8:	609a      	str	r2, [r3, #8]
      }
    }
    epnum++;
 80044ca:	693b      	ldr	r3, [r7, #16]
 80044cc:	3301      	adds	r3, #1
 80044ce:	613b      	str	r3, [r7, #16]
    ep_intr >>= 1;
 80044d0:	697b      	ldr	r3, [r7, #20]
 80044d2:	085b      	lsrs	r3, r3, #1
 80044d4:	617b      	str	r3, [r7, #20]
  while ( ep_intr )
 80044d6:	697b      	ldr	r3, [r7, #20]
 80044d8:	2b00      	cmp	r3, #0
 80044da:	f47f af6c 	bne.w	80043b6 <DCD_HandleOutEP_ISR+0x1a>
  }
  return 1;
 80044de:	2301      	movs	r3, #1
}
 80044e0:	4618      	mov	r0, r3
 80044e2:	3718      	adds	r7, #24
 80044e4:	46bd      	mov	sp, r7
 80044e6:	bd80      	pop	{r7, pc}
 80044e8:	20007dcc 	.word	0x20007dcc

080044ec <DCD_HandleSof_ISR>:
*         Handles the SOF Interrupts
* @param  pdev: device instance
* @retval status
*/
static uint32_t DCD_HandleSof_ISR(USB_OTG_CORE_HANDLE *pdev)
{
 80044ec:	b580      	push	{r7, lr}
 80044ee:	b084      	sub	sp, #16
 80044f0:	af00      	add	r7, sp, #0
 80044f2:	6078      	str	r0, [r7, #4]
  USB_OTG_GINTSTS_TypeDef  GINTSTS;
  
  
  USBD_DCD_INT_fops->SOF(pdev);
 80044f4:	4b09      	ldr	r3, [pc, #36]	; (800451c <DCD_HandleSof_ISR+0x30>)
 80044f6:	681b      	ldr	r3, [r3, #0]
 80044f8:	68db      	ldr	r3, [r3, #12]
 80044fa:	6878      	ldr	r0, [r7, #4]
 80044fc:	4798      	blx	r3
  
  /* Clear interrupt */
  GINTSTS.d32 = 0;
 80044fe:	2300      	movs	r3, #0
 8004500:	60fb      	str	r3, [r7, #12]
  GINTSTS.b.sofintr = 1;
 8004502:	7b3b      	ldrb	r3, [r7, #12]
 8004504:	f043 0308 	orr.w	r3, r3, #8
 8004508:	733b      	strb	r3, [r7, #12]
  USB_OTG_WRITE_REG32 (&pdev->regs.GREGS->GINTSTS, GINTSTS.d32);
 800450a:	687b      	ldr	r3, [r7, #4]
 800450c:	68db      	ldr	r3, [r3, #12]
 800450e:	68fa      	ldr	r2, [r7, #12]
 8004510:	615a      	str	r2, [r3, #20]
  
  return 1;
 8004512:	2301      	movs	r3, #1
}
 8004514:	4618      	mov	r0, r3
 8004516:	3710      	adds	r7, #16
 8004518:	46bd      	mov	sp, r7
 800451a:	bd80      	pop	{r7, pc}
 800451c:	20007dcc 	.word	0x20007dcc

08004520 <DCD_HandleRxStatusQueueLevel_ISR>:
*         Handles the Rx Status Queue Level Interrupt
* @param  pdev: device instance
* @retval status
*/
static uint32_t DCD_HandleRxStatusQueueLevel_ISR(USB_OTG_CORE_HANDLE *pdev)
{
 8004520:	b580      	push	{r7, lr}
 8004522:	b086      	sub	sp, #24
 8004524:	af00      	add	r7, sp, #0
 8004526:	6078      	str	r0, [r7, #4]
  USB_OTG_GINTMSK_TypeDef  int_mask;
  USB_OTG_DRXSTS_TypeDef   status;
  USB_OTG_EP *ep;
  
  /* Disable the Rx Status Queue Level interrupt */
  int_mask.d32 = 0;
 8004528:	2300      	movs	r3, #0
 800452a:	613b      	str	r3, [r7, #16]
  int_mask.b.rxstsqlvl = 1;
 800452c:	7c3b      	ldrb	r3, [r7, #16]
 800452e:	f043 0310 	orr.w	r3, r3, #16
 8004532:	743b      	strb	r3, [r7, #16]
  USB_OTG_MODIFY_REG32( &pdev->regs.GREGS->GINTMSK, int_mask.d32, 0);
 8004534:	687b      	ldr	r3, [r7, #4]
 8004536:	68db      	ldr	r3, [r3, #12]
 8004538:	687a      	ldr	r2, [r7, #4]
 800453a:	68d2      	ldr	r2, [r2, #12]
 800453c:	6991      	ldr	r1, [r2, #24]
 800453e:	693a      	ldr	r2, [r7, #16]
 8004540:	43d2      	mvns	r2, r2
 8004542:	400a      	ands	r2, r1
 8004544:	619a      	str	r2, [r3, #24]
  
  /* Get the Status from the top of the FIFO */
  status.d32 = USB_OTG_READ_REG32( &pdev->regs.GREGS->GRXSTSP );
 8004546:	687b      	ldr	r3, [r7, #4]
 8004548:	68db      	ldr	r3, [r3, #12]
 800454a:	6a1b      	ldr	r3, [r3, #32]
 800454c:	60fb      	str	r3, [r7, #12]
  
  ep = &pdev->dev.out_ep[status.b.epnum];
 800454e:	7b3b      	ldrb	r3, [r7, #12]
 8004550:	f3c3 0303 	ubfx	r3, r3, #0, #4
 8004554:	b2db      	uxtb	r3, r3
 8004556:	461a      	mov	r2, r3
 8004558:	4613      	mov	r3, r2
 800455a:	009b      	lsls	r3, r3, #2
 800455c:	4413      	add	r3, r2
 800455e:	00db      	lsls	r3, r3, #3
 8004560:	f503 735c 	add.w	r3, r3, #880	; 0x370
 8004564:	687a      	ldr	r2, [r7, #4]
 8004566:	4413      	add	r3, r2
 8004568:	3304      	adds	r3, #4
 800456a:	617b      	str	r3, [r7, #20]
  
  switch (status.b.pktsts)
 800456c:	7bbb      	ldrb	r3, [r7, #14]
 800456e:	f3c3 0343 	ubfx	r3, r3, #1, #4
 8004572:	b2db      	uxtb	r3, r3
 8004574:	3b01      	subs	r3, #1
 8004576:	2b05      	cmp	r3, #5
 8004578:	d844      	bhi.n	8004604 <DCD_HandleRxStatusQueueLevel_ISR+0xe4>
 800457a:	a201      	add	r2, pc, #4	; (adr r2, 8004580 <DCD_HandleRxStatusQueueLevel_ISR+0x60>)
 800457c:	f852 f023 	ldr.w	pc, [r2, r3, lsl #2]
 8004580:	08004605 	.word	0x08004605
 8004584:	08004599 	.word	0x08004599
 8004588:	08004605 	.word	0x08004605
 800458c:	08004605 	.word	0x08004605
 8004590:	08004605 	.word	0x08004605
 8004594:	080045e1 	.word	0x080045e1
  {
  case STS_GOUT_NAK:
    break;
  case STS_DATA_UPDT:
    if (status.b.bcnt)
 8004598:	89ba      	ldrh	r2, [r7, #12]
 800459a:	f647 73f0 	movw	r3, #32752	; 0x7ff0
 800459e:	4013      	ands	r3, r2
 80045a0:	b29b      	uxth	r3, r3
 80045a2:	2b00      	cmp	r3, #0
 80045a4:	d030      	beq.n	8004608 <DCD_HandleRxStatusQueueLevel_ISR+0xe8>
    {
      USB_OTG_ReadPacket(pdev,ep->xfer_buff, status.b.bcnt);
 80045a6:	697b      	ldr	r3, [r7, #20]
 80045a8:	68d9      	ldr	r1, [r3, #12]
 80045aa:	89bb      	ldrh	r3, [r7, #12]
 80045ac:	f3c3 130a 	ubfx	r3, r3, #4, #11
 80045b0:	b29b      	uxth	r3, r3
 80045b2:	461a      	mov	r2, r3
 80045b4:	6878      	ldr	r0, [r7, #4]
 80045b6:	f7fe fa4c 	bl	8002a52 <USB_OTG_ReadPacket>
      ep->xfer_buff += status.b.bcnt;
 80045ba:	697b      	ldr	r3, [r7, #20]
 80045bc:	68db      	ldr	r3, [r3, #12]
 80045be:	89ba      	ldrh	r2, [r7, #12]
 80045c0:	f3c2 120a 	ubfx	r2, r2, #4, #11
 80045c4:	b292      	uxth	r2, r2
 80045c6:	441a      	add	r2, r3
 80045c8:	697b      	ldr	r3, [r7, #20]
 80045ca:	60da      	str	r2, [r3, #12]
      ep->xfer_count += status.b.bcnt;
 80045cc:	697b      	ldr	r3, [r7, #20]
 80045ce:	699b      	ldr	r3, [r3, #24]
 80045d0:	89ba      	ldrh	r2, [r7, #12]
 80045d2:	f3c2 120a 	ubfx	r2, r2, #4, #11
 80045d6:	b292      	uxth	r2, r2
 80045d8:	441a      	add	r2, r3
 80045da:	697b      	ldr	r3, [r7, #20]
 80045dc:	619a      	str	r2, [r3, #24]
    }
    break;
 80045de:	e013      	b.n	8004608 <DCD_HandleRxStatusQueueLevel_ISR+0xe8>
    break;
  case STS_SETUP_COMP:
    break;
  case STS_SETUP_UPDT:
    /* Copy the setup packet received in FIFO into the setup buffer in RAM */
    USB_OTG_ReadPacket(pdev , pdev->dev.setup_packet, 8);
 80045e0:	687b      	ldr	r3, [r7, #4]
 80045e2:	f203 53cc 	addw	r3, r3, #1484	; 0x5cc
 80045e6:	2208      	movs	r2, #8
 80045e8:	4619      	mov	r1, r3
 80045ea:	6878      	ldr	r0, [r7, #4]
 80045ec:	f7fe fa31 	bl	8002a52 <USB_OTG_ReadPacket>
    ep->xfer_count += status.b.bcnt;
 80045f0:	697b      	ldr	r3, [r7, #20]
 80045f2:	699b      	ldr	r3, [r3, #24]
 80045f4:	89ba      	ldrh	r2, [r7, #12]
 80045f6:	f3c2 120a 	ubfx	r2, r2, #4, #11
 80045fa:	b292      	uxth	r2, r2
 80045fc:	441a      	add	r2, r3
 80045fe:	697b      	ldr	r3, [r7, #20]
 8004600:	619a      	str	r2, [r3, #24]
    break;
 8004602:	e002      	b.n	800460a <DCD_HandleRxStatusQueueLevel_ISR+0xea>
  default:
    break;
 8004604:	bf00      	nop
 8004606:	e000      	b.n	800460a <DCD_HandleRxStatusQueueLevel_ISR+0xea>
    break;
 8004608:	bf00      	nop
  }
  
  /* Enable the Rx Status Queue Level interrupt */
  USB_OTG_MODIFY_REG32( &pdev->regs.GREGS->GINTMSK, 0, int_mask.d32);
 800460a:	687b      	ldr	r3, [r7, #4]
 800460c:	68db      	ldr	r3, [r3, #12]
 800460e:	687a      	ldr	r2, [r7, #4]
 8004610:	68d2      	ldr	r2, [r2, #12]
 8004612:	6991      	ldr	r1, [r2, #24]
 8004614:	693a      	ldr	r2, [r7, #16]
 8004616:	430a      	orrs	r2, r1
 8004618:	619a      	str	r2, [r3, #24]
  
  return 1;
 800461a:	2301      	movs	r3, #1
}
 800461c:	4618      	mov	r0, r3
 800461e:	3718      	adds	r7, #24
 8004620:	46bd      	mov	sp, r7
 8004622:	bd80      	pop	{r7, pc}

08004624 <DCD_WriteEmptyTxFifo>:
*         check FIFO for the next packet to be loaded
* @param  pdev: device instance
* @retval status
*/
static uint32_t DCD_WriteEmptyTxFifo(USB_OTG_CORE_HANDLE *pdev, uint32_t epnum)
{
 8004624:	b580      	push	{r7, lr}
 8004626:	b086      	sub	sp, #24
 8004628:	af00      	add	r7, sp, #0
 800462a:	6078      	str	r0, [r7, #4]
 800462c:	6039      	str	r1, [r7, #0]
  USB_OTG_DTXFSTSn_TypeDef  txstatus;
  USB_OTG_EP *ep;
  uint32_t len = 0;
 800462e:	2300      	movs	r3, #0
 8004630:	617b      	str	r3, [r7, #20]
  uint32_t len32b;
  txstatus.d32 = 0;
 8004632:	2300      	movs	r3, #0
 8004634:	60bb      	str	r3, [r7, #8]
  
  ep = &pdev->dev.in_ep[epnum];    
 8004636:	683a      	ldr	r2, [r7, #0]
 8004638:	4613      	mov	r3, r2
 800463a:	009b      	lsls	r3, r3, #2
 800463c:	4413      	add	r3, r2
 800463e:	00db      	lsls	r3, r3, #3
 8004640:	f503 738c 	add.w	r3, r3, #280	; 0x118
 8004644:	687a      	ldr	r2, [r7, #4]
 8004646:	4413      	add	r3, r2
 8004648:	3304      	adds	r3, #4
 800464a:	60fb      	str	r3, [r7, #12]
  
  len = ep->xfer_len - ep->xfer_count;
 800464c:	68fb      	ldr	r3, [r7, #12]
 800464e:	695a      	ldr	r2, [r3, #20]
 8004650:	68fb      	ldr	r3, [r7, #12]
 8004652:	699b      	ldr	r3, [r3, #24]
 8004654:	1ad3      	subs	r3, r2, r3
 8004656:	617b      	str	r3, [r7, #20]
  
  if (len > ep->maxpacket)
 8004658:	68fb      	ldr	r3, [r7, #12]
 800465a:	689a      	ldr	r2, [r3, #8]
 800465c:	697b      	ldr	r3, [r7, #20]
 800465e:	429a      	cmp	r2, r3
 8004660:	d202      	bcs.n	8004668 <DCD_WriteEmptyTxFifo+0x44>
  {
    len = ep->maxpacket;
 8004662:	68fb      	ldr	r3, [r7, #12]
 8004664:	689b      	ldr	r3, [r3, #8]
 8004666:	617b      	str	r3, [r7, #20]
  }
  
  len32b = (len + 3) / 4;
 8004668:	697b      	ldr	r3, [r7, #20]
 800466a:	3303      	adds	r3, #3
 800466c:	089b      	lsrs	r3, r3, #2
 800466e:	613b      	str	r3, [r7, #16]
  txstatus.d32 = USB_OTG_READ_REG32( &pdev->regs.INEP_REGS[epnum]->DTXFSTS);
 8004670:	687a      	ldr	r2, [r7, #4]
 8004672:	683b      	ldr	r3, [r7, #0]
 8004674:	3304      	adds	r3, #4
 8004676:	009b      	lsls	r3, r3, #2
 8004678:	4413      	add	r3, r2
 800467a:	689b      	ldr	r3, [r3, #8]
 800467c:	699b      	ldr	r3, [r3, #24]
 800467e:	60bb      	str	r3, [r7, #8]
  
  
  
  while  (txstatus.b.txfspcavail > len32b &&
 8004680:	e02e      	b.n	80046e0 <DCD_WriteEmptyTxFifo+0xbc>
          ep->xfer_count < ep->xfer_len &&
            ep->xfer_len != 0)
  {
    /* Write the FIFO */
    len = ep->xfer_len - ep->xfer_count;
 8004682:	68fb      	ldr	r3, [r7, #12]
 8004684:	695a      	ldr	r2, [r3, #20]
 8004686:	68fb      	ldr	r3, [r7, #12]
 8004688:	699b      	ldr	r3, [r3, #24]
 800468a:	1ad3      	subs	r3, r2, r3
 800468c:	617b      	str	r3, [r7, #20]
    
    if (len > ep->maxpacket)
 800468e:	68fb      	ldr	r3, [r7, #12]
 8004690:	689a      	ldr	r2, [r3, #8]
 8004692:	697b      	ldr	r3, [r7, #20]
 8004694:	429a      	cmp	r2, r3
 8004696:	d202      	bcs.n	800469e <DCD_WriteEmptyTxFifo+0x7a>
    {
      len = ep->maxpacket;
 8004698:	68fb      	ldr	r3, [r7, #12]
 800469a:	689b      	ldr	r3, [r3, #8]
 800469c:	617b      	str	r3, [r7, #20]
    }
    len32b = (len + 3) / 4;
 800469e:	697b      	ldr	r3, [r7, #20]
 80046a0:	3303      	adds	r3, #3
 80046a2:	089b      	lsrs	r3, r3, #2
 80046a4:	613b      	str	r3, [r7, #16]
    
    USB_OTG_WritePacket (pdev , ep->xfer_buff, epnum, len);
 80046a6:	68fb      	ldr	r3, [r7, #12]
 80046a8:	68d9      	ldr	r1, [r3, #12]
 80046aa:	683b      	ldr	r3, [r7, #0]
 80046ac:	b2da      	uxtb	r2, r3
 80046ae:	697b      	ldr	r3, [r7, #20]
 80046b0:	b29b      	uxth	r3, r3
 80046b2:	6878      	ldr	r0, [r7, #4]
 80046b4:	f7fe f992 	bl	80029dc <USB_OTG_WritePacket>
    
    ep->xfer_buff  += len;
 80046b8:	68fb      	ldr	r3, [r7, #12]
 80046ba:	68da      	ldr	r2, [r3, #12]
 80046bc:	697b      	ldr	r3, [r7, #20]
 80046be:	441a      	add	r2, r3
 80046c0:	68fb      	ldr	r3, [r7, #12]
 80046c2:	60da      	str	r2, [r3, #12]
    ep->xfer_count += len;
 80046c4:	68fb      	ldr	r3, [r7, #12]
 80046c6:	699a      	ldr	r2, [r3, #24]
 80046c8:	697b      	ldr	r3, [r7, #20]
 80046ca:	441a      	add	r2, r3
 80046cc:	68fb      	ldr	r3, [r7, #12]
 80046ce:	619a      	str	r2, [r3, #24]
    
    txstatus.d32 = USB_OTG_READ_REG32(&pdev->regs.INEP_REGS[epnum]->DTXFSTS);
 80046d0:	687a      	ldr	r2, [r7, #4]
 80046d2:	683b      	ldr	r3, [r7, #0]
 80046d4:	3304      	adds	r3, #4
 80046d6:	009b      	lsls	r3, r3, #2
 80046d8:	4413      	add	r3, r2
 80046da:	689b      	ldr	r3, [r3, #8]
 80046dc:	699b      	ldr	r3, [r3, #24]
 80046de:	60bb      	str	r3, [r7, #8]
  while  (txstatus.b.txfspcavail > len32b &&
 80046e0:	893b      	ldrh	r3, [r7, #8]
 80046e2:	461a      	mov	r2, r3
 80046e4:	693b      	ldr	r3, [r7, #16]
 80046e6:	429a      	cmp	r2, r3
 80046e8:	d909      	bls.n	80046fe <DCD_WriteEmptyTxFifo+0xda>
          ep->xfer_count < ep->xfer_len &&
 80046ea:	68fb      	ldr	r3, [r7, #12]
 80046ec:	699a      	ldr	r2, [r3, #24]
 80046ee:	68fb      	ldr	r3, [r7, #12]
 80046f0:	695b      	ldr	r3, [r3, #20]
  while  (txstatus.b.txfspcavail > len32b &&
 80046f2:	429a      	cmp	r2, r3
 80046f4:	d203      	bcs.n	80046fe <DCD_WriteEmptyTxFifo+0xda>
            ep->xfer_len != 0)
 80046f6:	68fb      	ldr	r3, [r7, #12]
 80046f8:	695b      	ldr	r3, [r3, #20]
          ep->xfer_count < ep->xfer_len &&
 80046fa:	2b00      	cmp	r3, #0
 80046fc:	d1c1      	bne.n	8004682 <DCD_WriteEmptyTxFifo+0x5e>
  }
  
  return 1;
 80046fe:	2301      	movs	r3, #1
}
 8004700:	4618      	mov	r0, r3
 8004702:	3718      	adds	r7, #24
 8004704:	46bd      	mov	sp, r7
 8004706:	bd80      	pop	{r7, pc}

08004708 <DCD_HandleUsbReset_ISR>:
*         This interrupt occurs when a USB Reset is detected
* @param  pdev: device instance
* @retval status
*/
static uint32_t DCD_HandleUsbReset_ISR(USB_OTG_CORE_HANDLE *pdev)
{
 8004708:	b580      	push	{r7, lr}
 800470a:	b08a      	sub	sp, #40	; 0x28
 800470c:	af00      	add	r7, sp, #0
 800470e:	6078      	str	r0, [r7, #4]
  USB_OTG_DCFG_TypeDef     dcfg;
  USB_OTG_DCTL_TypeDef     dctl;
  USB_OTG_GINTSTS_TypeDef  gintsts;
  uint32_t i;
  
  dctl.d32 = 0;
 8004710:	2300      	movs	r3, #0
 8004712:	613b      	str	r3, [r7, #16]
  daintmsk.d32 = 0;
 8004714:	2300      	movs	r3, #0
 8004716:	623b      	str	r3, [r7, #32]
  doepmsk.d32 = 0;
 8004718:	2300      	movs	r3, #0
 800471a:	61fb      	str	r3, [r7, #28]
  diepmsk.d32 = 0;
 800471c:	2300      	movs	r3, #0
 800471e:	61bb      	str	r3, [r7, #24]
  dcfg.d32 = 0;
 8004720:	2300      	movs	r3, #0
 8004722:	617b      	str	r3, [r7, #20]
  gintsts.d32 = 0;
 8004724:	2300      	movs	r3, #0
 8004726:	60fb      	str	r3, [r7, #12]
  
  /* Clear the Remote Wake-up Signaling */
  dctl.b.rmtwkupsig = 1;
 8004728:	7c3b      	ldrb	r3, [r7, #16]
 800472a:	f043 0301 	orr.w	r3, r3, #1
 800472e:	743b      	strb	r3, [r7, #16]
  USB_OTG_MODIFY_REG32(&pdev->regs.DREGS->DCTL, dctl.d32, 0 );
 8004730:	687b      	ldr	r3, [r7, #4]
 8004732:	691b      	ldr	r3, [r3, #16]
 8004734:	687a      	ldr	r2, [r7, #4]
 8004736:	6912      	ldr	r2, [r2, #16]
 8004738:	6851      	ldr	r1, [r2, #4]
 800473a:	693a      	ldr	r2, [r7, #16]
 800473c:	43d2      	mvns	r2, r2
 800473e:	400a      	ands	r2, r1
 8004740:	605a      	str	r2, [r3, #4]
  
  /* Flush the Tx FIFO */
  USB_OTG_FlushTxFifo(pdev ,  0 );
 8004742:	2100      	movs	r1, #0
 8004744:	6878      	ldr	r0, [r7, #4]
 8004746:	f7fe fb3f 	bl	8002dc8 <USB_OTG_FlushTxFifo>
  
  for (i = 0; i < pdev->cfg.dev_endpoints ; i++)
 800474a:	2300      	movs	r3, #0
 800474c:	627b      	str	r3, [r7, #36]	; 0x24
 800474e:	e012      	b.n	8004776 <DCD_HandleUsbReset_ISR+0x6e>
  {
    USB_OTG_WRITE_REG32( &pdev->regs.INEP_REGS[i]->DIEPINT, 0xFF);
 8004750:	687a      	ldr	r2, [r7, #4]
 8004752:	6a7b      	ldr	r3, [r7, #36]	; 0x24
 8004754:	3304      	adds	r3, #4
 8004756:	009b      	lsls	r3, r3, #2
 8004758:	4413      	add	r3, r2
 800475a:	689b      	ldr	r3, [r3, #8]
 800475c:	22ff      	movs	r2, #255	; 0xff
 800475e:	609a      	str	r2, [r3, #8]
    USB_OTG_WRITE_REG32( &pdev->regs.OUTEP_REGS[i]->DOEPINT, 0xFF);
 8004760:	687a      	ldr	r2, [r7, #4]
 8004762:	6a7b      	ldr	r3, [r7, #36]	; 0x24
 8004764:	3314      	adds	r3, #20
 8004766:	009b      	lsls	r3, r3, #2
 8004768:	4413      	add	r3, r2
 800476a:	685b      	ldr	r3, [r3, #4]
 800476c:	22ff      	movs	r2, #255	; 0xff
 800476e:	609a      	str	r2, [r3, #8]
  for (i = 0; i < pdev->cfg.dev_endpoints ; i++)
 8004770:	6a7b      	ldr	r3, [r7, #36]	; 0x24
 8004772:	3301      	adds	r3, #1
 8004774:	627b      	str	r3, [r7, #36]	; 0x24
 8004776:	687b      	ldr	r3, [r7, #4]
 8004778:	785b      	ldrb	r3, [r3, #1]
 800477a:	461a      	mov	r2, r3
 800477c:	6a7b      	ldr	r3, [r7, #36]	; 0x24
 800477e:	429a      	cmp	r2, r3
 8004780:	d8e6      	bhi.n	8004750 <DCD_HandleUsbReset_ISR+0x48>
  }
  USB_OTG_WRITE_REG32( &pdev->regs.DREGS->DAINT, 0xFFFFFFFF );
 8004782:	687b      	ldr	r3, [r7, #4]
 8004784:	691b      	ldr	r3, [r3, #16]
 8004786:	f04f 32ff 	mov.w	r2, #4294967295
 800478a:	619a      	str	r2, [r3, #24]
  
  daintmsk.ep.in = 1;
 800478c:	2301      	movs	r3, #1
 800478e:	843b      	strh	r3, [r7, #32]
  daintmsk.ep.out = 1;
 8004790:	2301      	movs	r3, #1
 8004792:	847b      	strh	r3, [r7, #34]	; 0x22
  USB_OTG_WRITE_REG32( &pdev->regs.DREGS->DAINTMSK, daintmsk.d32 );
 8004794:	687b      	ldr	r3, [r7, #4]
 8004796:	691b      	ldr	r3, [r3, #16]
 8004798:	6a3a      	ldr	r2, [r7, #32]
 800479a:	61da      	str	r2, [r3, #28]
  
  doepmsk.b.setup = 1;
 800479c:	7f3b      	ldrb	r3, [r7, #28]
 800479e:	f043 0308 	orr.w	r3, r3, #8
 80047a2:	773b      	strb	r3, [r7, #28]
  doepmsk.b.xfercompl = 1;
 80047a4:	7f3b      	ldrb	r3, [r7, #28]
 80047a6:	f043 0301 	orr.w	r3, r3, #1
 80047aa:	773b      	strb	r3, [r7, #28]
  doepmsk.b.epdisabled = 1;
 80047ac:	7f3b      	ldrb	r3, [r7, #28]
 80047ae:	f043 0302 	orr.w	r3, r3, #2
 80047b2:	773b      	strb	r3, [r7, #28]
  USB_OTG_WRITE_REG32( &pdev->regs.DREGS->DOEPMSK, doepmsk.d32 );
 80047b4:	687b      	ldr	r3, [r7, #4]
 80047b6:	691b      	ldr	r3, [r3, #16]
 80047b8:	69fa      	ldr	r2, [r7, #28]
 80047ba:	615a      	str	r2, [r3, #20]
#ifdef USB_OTG_HS_DEDICATED_EP1_ENABLED   
  USB_OTG_WRITE_REG32( &pdev->regs.DREGS->DOUTEP1MSK, doepmsk.d32 );
#endif
  diepmsk.b.xfercompl = 1;
 80047bc:	7e3b      	ldrb	r3, [r7, #24]
 80047be:	f043 0301 	orr.w	r3, r3, #1
 80047c2:	763b      	strb	r3, [r7, #24]
  diepmsk.b.timeout = 1;
 80047c4:	7e3b      	ldrb	r3, [r7, #24]
 80047c6:	f043 0308 	orr.w	r3, r3, #8
 80047ca:	763b      	strb	r3, [r7, #24]
  diepmsk.b.epdisabled = 1;
 80047cc:	7e3b      	ldrb	r3, [r7, #24]
 80047ce:	f043 0302 	orr.w	r3, r3, #2
 80047d2:	763b      	strb	r3, [r7, #24]

  USB_OTG_WRITE_REG32( &pdev->regs.DREGS->DIEPMSK, diepmsk.d32 );
 80047d4:	687b      	ldr	r3, [r7, #4]
 80047d6:	691b      	ldr	r3, [r3, #16]
 80047d8:	69ba      	ldr	r2, [r7, #24]
 80047da:	611a      	str	r2, [r3, #16]
#ifdef USB_OTG_HS_DEDICATED_EP1_ENABLED  
  USB_OTG_WRITE_REG32( &pdev->regs.DREGS->DINEP1MSK, diepmsk.d32 );
#endif
  /* Reset Device Address */
  dcfg.d32 = USB_OTG_READ_REG32( &pdev->regs.DREGS->DCFG);
 80047dc:	687b      	ldr	r3, [r7, #4]
 80047de:	691b      	ldr	r3, [r3, #16]
 80047e0:	681b      	ldr	r3, [r3, #0]
 80047e2:	617b      	str	r3, [r7, #20]
  dcfg.b.devaddr = 0;
 80047e4:	8abb      	ldrh	r3, [r7, #20]
 80047e6:	f36f 130a 	bfc	r3, #4, #7
 80047ea:	82bb      	strh	r3, [r7, #20]
  USB_OTG_WRITE_REG32( &pdev->regs.DREGS->DCFG, dcfg.d32);
 80047ec:	687b      	ldr	r3, [r7, #4]
 80047ee:	691b      	ldr	r3, [r3, #16]
 80047f0:	697a      	ldr	r2, [r7, #20]
 80047f2:	601a      	str	r2, [r3, #0]
  
  
  /* setup EP0 to receive SETUP packets */
  USB_OTG_EP0_OutStart(pdev);
 80047f4:	6878      	ldr	r0, [r7, #4]
 80047f6:	f7ff f951 	bl	8003a9c <USB_OTG_EP0_OutStart>
  
  /* Clear interrupt */
  gintsts.d32 = 0;
 80047fa:	2300      	movs	r3, #0
 80047fc:	60fb      	str	r3, [r7, #12]
  gintsts.b.usbreset = 1;
 80047fe:	7b7b      	ldrb	r3, [r7, #13]
 8004800:	f043 0310 	orr.w	r3, r3, #16
 8004804:	737b      	strb	r3, [r7, #13]
  USB_OTG_WRITE_REG32 (&pdev->regs.GREGS->GINTSTS, gintsts.d32);
 8004806:	687b      	ldr	r3, [r7, #4]
 8004808:	68db      	ldr	r3, [r3, #12]
 800480a:	68fa      	ldr	r2, [r7, #12]
 800480c:	615a      	str	r2, [r3, #20]
  
  /*Reset internal state machine */
  USBD_DCD_INT_fops->Reset(pdev);
 800480e:	4b05      	ldr	r3, [pc, #20]	; (8004824 <DCD_HandleUsbReset_ISR+0x11c>)
 8004810:	681b      	ldr	r3, [r3, #0]
 8004812:	691b      	ldr	r3, [r3, #16]
 8004814:	6878      	ldr	r0, [r7, #4]
 8004816:	4798      	blx	r3
  return 1;
 8004818:	2301      	movs	r3, #1
}
 800481a:	4618      	mov	r0, r3
 800481c:	3728      	adds	r7, #40	; 0x28
 800481e:	46bd      	mov	sp, r7
 8004820:	bd80      	pop	{r7, pc}
 8004822:	bf00      	nop
 8004824:	20007dcc 	.word	0x20007dcc

08004828 <DCD_HandleEnumDone_ISR>:
*         Read the device status register and set the device speed
* @param  pdev: device instance
* @retval status
*/
static uint32_t DCD_HandleEnumDone_ISR(USB_OTG_CORE_HANDLE *pdev)
{
 8004828:	b580      	push	{r7, lr}
 800482a:	b084      	sub	sp, #16
 800482c:	af00      	add	r7, sp, #0
 800482e:	6078      	str	r0, [r7, #4]
  USB_OTG_GINTSTS_TypeDef  gintsts;
  USB_OTG_GUSBCFG_TypeDef  gusbcfg;
  
  USB_OTG_EP0Activate(pdev);
 8004830:	6878      	ldr	r0, [r7, #4]
 8004832:	f7fe fd56 	bl	80032e2 <USB_OTG_EP0Activate>
  
  /* Set USB turn-around time based on device speed and PHY interface. */
  gusbcfg.d32 = USB_OTG_READ_REG32(&pdev->regs.GREGS->GUSBCFG);
 8004836:	687b      	ldr	r3, [r7, #4]
 8004838:	68db      	ldr	r3, [r3, #12]
 800483a:	68db      	ldr	r3, [r3, #12]
 800483c:	60bb      	str	r3, [r7, #8]
  
  /* Full or High speed */
  if ( USB_OTG_GetDeviceSpeed(pdev) == USB_SPEED_HIGH)
 800483e:	6878      	ldr	r0, [r7, #4]
 8004840:	f7fe fd2b 	bl	800329a <USB_OTG_GetDeviceSpeed>
 8004844:	4603      	mov	r3, r0
 8004846:	2b03      	cmp	r3, #3
 8004848:	d10c      	bne.n	8004864 <DCD_HandleEnumDone_ISR+0x3c>
  {
    pdev->cfg.speed            = USB_OTG_SPEED_HIGH;
 800484a:	687b      	ldr	r3, [r7, #4]
 800484c:	2200      	movs	r2, #0
 800484e:	709a      	strb	r2, [r3, #2]
    pdev->cfg.mps              = USB_OTG_HS_MAX_PACKET_SIZE ;    
 8004850:	687b      	ldr	r3, [r7, #4]
 8004852:	f44f 7200 	mov.w	r2, #512	; 0x200
 8004856:	809a      	strh	r2, [r3, #4]
    gusbcfg.b.usbtrdtim = 9;
 8004858:	7a7b      	ldrb	r3, [r7, #9]
 800485a:	2209      	movs	r2, #9
 800485c:	f362 0385 	bfi	r3, r2, #2, #4
 8004860:	727b      	strb	r3, [r7, #9]
 8004862:	e00a      	b.n	800487a <DCD_HandleEnumDone_ISR+0x52>
  }
  else
  {
    pdev->cfg.speed            = USB_OTG_SPEED_FULL;
 8004864:	687b      	ldr	r3, [r7, #4]
 8004866:	2201      	movs	r2, #1
 8004868:	709a      	strb	r2, [r3, #2]
    pdev->cfg.mps              = USB_OTG_FS_MAX_PACKET_SIZE ;  
 800486a:	687b      	ldr	r3, [r7, #4]
 800486c:	2240      	movs	r2, #64	; 0x40
 800486e:	809a      	strh	r2, [r3, #4]
    gusbcfg.b.usbtrdtim = 5;
 8004870:	7a7b      	ldrb	r3, [r7, #9]
 8004872:	2205      	movs	r2, #5
 8004874:	f362 0385 	bfi	r3, r2, #2, #4
 8004878:	727b      	strb	r3, [r7, #9]
  }
  
  USB_OTG_WRITE_REG32(&pdev->regs.GREGS->GUSBCFG, gusbcfg.d32);
 800487a:	687b      	ldr	r3, [r7, #4]
 800487c:	68db      	ldr	r3, [r3, #12]
 800487e:	68ba      	ldr	r2, [r7, #8]
 8004880:	60da      	str	r2, [r3, #12]
  
  /* Clear interrupt */
  gintsts.d32 = 0;
 8004882:	2300      	movs	r3, #0
 8004884:	60fb      	str	r3, [r7, #12]
  gintsts.b.enumdone = 1;
 8004886:	7b7b      	ldrb	r3, [r7, #13]
 8004888:	f043 0320 	orr.w	r3, r3, #32
 800488c:	737b      	strb	r3, [r7, #13]
  USB_OTG_WRITE_REG32( &pdev->regs.GREGS->GINTSTS, gintsts.d32 );
 800488e:	687b      	ldr	r3, [r7, #4]
 8004890:	68db      	ldr	r3, [r3, #12]
 8004892:	68fa      	ldr	r2, [r7, #12]
 8004894:	615a      	str	r2, [r3, #20]
  return 1;
 8004896:	2301      	movs	r3, #1
}
 8004898:	4618      	mov	r0, r3
 800489a:	3710      	adds	r7, #16
 800489c:	46bd      	mov	sp, r7
 800489e:	bd80      	pop	{r7, pc}

080048a0 <DCD_IsoINIncomplete_ISR>:
*         handle the ISO IN incomplete interrupt
* @param  pdev: device instance
* @retval status
*/
static uint32_t DCD_IsoINIncomplete_ISR(USB_OTG_CORE_HANDLE *pdev)
{
 80048a0:	b580      	push	{r7, lr}
 80048a2:	b084      	sub	sp, #16
 80048a4:	af00      	add	r7, sp, #0
 80048a6:	6078      	str	r0, [r7, #4]
  USB_OTG_GINTSTS_TypeDef gintsts;  
  
  gintsts.d32 = 0;
 80048a8:	2300      	movs	r3, #0
 80048aa:	60fb      	str	r3, [r7, #12]

  USBD_DCD_INT_fops->IsoINIncomplete (pdev); 
 80048ac:	4b08      	ldr	r3, [pc, #32]	; (80048d0 <DCD_IsoINIncomplete_ISR+0x30>)
 80048ae:	681b      	ldr	r3, [r3, #0]
 80048b0:	69db      	ldr	r3, [r3, #28]
 80048b2:	6878      	ldr	r0, [r7, #4]
 80048b4:	4798      	blx	r3
  
  /* Clear interrupt */
  gintsts.b.incomplisoin = 1;
 80048b6:	7bbb      	ldrb	r3, [r7, #14]
 80048b8:	f043 0310 	orr.w	r3, r3, #16
 80048bc:	73bb      	strb	r3, [r7, #14]
  USB_OTG_WRITE_REG32(&pdev->regs.GREGS->GINTSTS, gintsts.d32);
 80048be:	687b      	ldr	r3, [r7, #4]
 80048c0:	68db      	ldr	r3, [r3, #12]
 80048c2:	68fa      	ldr	r2, [r7, #12]
 80048c4:	615a      	str	r2, [r3, #20]
  
  return 1;
 80048c6:	2301      	movs	r3, #1
}
 80048c8:	4618      	mov	r0, r3
 80048ca:	3710      	adds	r7, #16
 80048cc:	46bd      	mov	sp, r7
 80048ce:	bd80      	pop	{r7, pc}
 80048d0:	20007dcc 	.word	0x20007dcc

080048d4 <DCD_IsoOUTIncomplete_ISR>:
*         handle the ISO OUT incomplete interrupt
* @param  pdev: device instance
* @retval status
*/
static uint32_t DCD_IsoOUTIncomplete_ISR(USB_OTG_CORE_HANDLE *pdev)
{
 80048d4:	b580      	push	{r7, lr}
 80048d6:	b084      	sub	sp, #16
 80048d8:	af00      	add	r7, sp, #0
 80048da:	6078      	str	r0, [r7, #4]
  USB_OTG_GINTSTS_TypeDef gintsts;  
  
  gintsts.d32 = 0;
 80048dc:	2300      	movs	r3, #0
 80048de:	60fb      	str	r3, [r7, #12]

  USBD_DCD_INT_fops->IsoOUTIncomplete (pdev); 
 80048e0:	4b08      	ldr	r3, [pc, #32]	; (8004904 <DCD_IsoOUTIncomplete_ISR+0x30>)
 80048e2:	681b      	ldr	r3, [r3, #0]
 80048e4:	6a1b      	ldr	r3, [r3, #32]
 80048e6:	6878      	ldr	r0, [r7, #4]
 80048e8:	4798      	blx	r3
  
  /* Clear interrupt */
  gintsts.b.incomplisoout = 1;
 80048ea:	7bbb      	ldrb	r3, [r7, #14]
 80048ec:	f043 0320 	orr.w	r3, r3, #32
 80048f0:	73bb      	strb	r3, [r7, #14]
  USB_OTG_WRITE_REG32(&pdev->regs.GREGS->GINTSTS, gintsts.d32);
 80048f2:	687b      	ldr	r3, [r7, #4]
 80048f4:	68db      	ldr	r3, [r3, #12]
 80048f6:	68fa      	ldr	r2, [r7, #12]
 80048f8:	615a      	str	r2, [r3, #20]
  return 1;
 80048fa:	2301      	movs	r3, #1
}
 80048fc:	4618      	mov	r0, r3
 80048fe:	3710      	adds	r7, #16
 8004900:	46bd      	mov	sp, r7
 8004902:	bd80      	pop	{r7, pc}
 8004904:	20007dcc 	.word	0x20007dcc

08004908 <DCD_ReadDevInEP>:
*         Reads ep flags
* @param  pdev: device instance
* @retval status
*/
static uint32_t DCD_ReadDevInEP (USB_OTG_CORE_HANDLE *pdev, uint8_t epnum)
{
 8004908:	b480      	push	{r7}
 800490a:	b087      	sub	sp, #28
 800490c:	af00      	add	r7, sp, #0
 800490e:	6078      	str	r0, [r7, #4]
 8004910:	460b      	mov	r3, r1
 8004912:	70fb      	strb	r3, [r7, #3]
  uint32_t v, msk, emp;
  msk = USB_OTG_READ_REG32(&pdev->regs.DREGS->DIEPMSK);
 8004914:	687b      	ldr	r3, [r7, #4]
 8004916:	691b      	ldr	r3, [r3, #16]
 8004918:	691b      	ldr	r3, [r3, #16]
 800491a:	617b      	str	r3, [r7, #20]
  emp = USB_OTG_READ_REG32(&pdev->regs.DREGS->DIEPEMPMSK);
 800491c:	687b      	ldr	r3, [r7, #4]
 800491e:	691b      	ldr	r3, [r3, #16]
 8004920:	6b5b      	ldr	r3, [r3, #52]	; 0x34
 8004922:	613b      	str	r3, [r7, #16]
  msk |= ((emp >> epnum) & 0x1) << 7;
 8004924:	78fb      	ldrb	r3, [r7, #3]
 8004926:	693a      	ldr	r2, [r7, #16]
 8004928:	fa22 f303 	lsr.w	r3, r2, r3
 800492c:	01db      	lsls	r3, r3, #7
 800492e:	b2db      	uxtb	r3, r3
 8004930:	697a      	ldr	r2, [r7, #20]
 8004932:	4313      	orrs	r3, r2
 8004934:	617b      	str	r3, [r7, #20]
  v = USB_OTG_READ_REG32(&pdev->regs.INEP_REGS[epnum]->DIEPINT) & msk;
 8004936:	78fb      	ldrb	r3, [r7, #3]
 8004938:	687a      	ldr	r2, [r7, #4]
 800493a:	3304      	adds	r3, #4
 800493c:	009b      	lsls	r3, r3, #2
 800493e:	4413      	add	r3, r2
 8004940:	689b      	ldr	r3, [r3, #8]
 8004942:	689a      	ldr	r2, [r3, #8]
 8004944:	697b      	ldr	r3, [r7, #20]
 8004946:	4013      	ands	r3, r2
 8004948:	60fb      	str	r3, [r7, #12]
  return v;
 800494a:	68fb      	ldr	r3, [r7, #12]
}
 800494c:	4618      	mov	r0, r3
 800494e:	371c      	adds	r7, #28
 8004950:	46bd      	mov	sp, r7
 8004952:	f85d 7b04 	ldr.w	r7, [sp], #4
 8004956:	4770      	bx	lr

08004958 <usbd_cdc_Init>:
  * @param  cfgidx: Configuration index
  * @retval status
  */
static uint8_t  usbd_cdc_Init (void  *pdev, 
                               uint8_t cfgidx)
{
 8004958:	b580      	push	{r7, lr}
 800495a:	b084      	sub	sp, #16
 800495c:	af00      	add	r7, sp, #0
 800495e:	6078      	str	r0, [r7, #4]
 8004960:	460b      	mov	r3, r1
 8004962:	70fb      	strb	r3, [r7, #3]
  uint8_t *pbuf;

  /* Open EP IN */
  DCD_EP_Open(pdev,
 8004964:	2302      	movs	r3, #2
 8004966:	2240      	movs	r2, #64	; 0x40
 8004968:	2181      	movs	r1, #129	; 0x81
 800496a:	6878      	ldr	r0, [r7, #4]
 800496c:	f7ff f952 	bl	8003c14 <DCD_EP_Open>
              CDC_IN_EP,
              CDC_DATA_IN_PACKET_SIZE,
              USB_OTG_EP_BULK);
  
  /* Open EP OUT */
  DCD_EP_Open(pdev,
 8004970:	2302      	movs	r3, #2
 8004972:	2240      	movs	r2, #64	; 0x40
 8004974:	2101      	movs	r1, #1
 8004976:	6878      	ldr	r0, [r7, #4]
 8004978:	f7ff f94c 	bl	8003c14 <DCD_EP_Open>
              CDC_OUT_EP,
              CDC_DATA_OUT_PACKET_SIZE,
              USB_OTG_EP_BULK);
  
  /* Open Command IN EP */
  DCD_EP_Open(pdev,
 800497c:	2303      	movs	r3, #3
 800497e:	2208      	movs	r2, #8
 8004980:	2182      	movs	r1, #130	; 0x82
 8004982:	6878      	ldr	r0, [r7, #4]
 8004984:	f7ff f946 	bl	8003c14 <DCD_EP_Open>
              CDC_CMD_EP,
              CDC_CMD_PACKET_SZE,
              USB_OTG_EP_INT);
  
  pbuf = (uint8_t *)USBD_DeviceDesc;
 8004988:	4b0b      	ldr	r3, [pc, #44]	; (80049b8 <usbd_cdc_Init+0x60>)
 800498a:	60fb      	str	r3, [r7, #12]
  pbuf[4] = DEVICE_CLASS_CDC;
 800498c:	68fb      	ldr	r3, [r7, #12]
 800498e:	3304      	adds	r3, #4
 8004990:	2202      	movs	r2, #2
 8004992:	701a      	strb	r2, [r3, #0]
  pbuf[5] = DEVICE_SUBCLASS_CDC;
 8004994:	68fb      	ldr	r3, [r7, #12]
 8004996:	3305      	adds	r3, #5
 8004998:	2200      	movs	r2, #0
 800499a:	701a      	strb	r2, [r3, #0]
  
  /* Initialize the Interface physical components */
  APP_FOPS.pIf_Init();
 800499c:	4b07      	ldr	r3, [pc, #28]	; (80049bc <usbd_cdc_Init+0x64>)
 800499e:	681b      	ldr	r3, [r3, #0]
 80049a0:	4798      	blx	r3

  /* Prepare Out endpoint to receive next packet */
  DCD_EP_PrepareRx(pdev,
 80049a2:	2340      	movs	r3, #64	; 0x40
 80049a4:	4a06      	ldr	r2, [pc, #24]	; (80049c0 <usbd_cdc_Init+0x68>)
 80049a6:	2101      	movs	r1, #1
 80049a8:	6878      	ldr	r0, [r7, #4]
 80049aa:	f7ff f9c7 	bl	8003d3c <DCD_EP_PrepareRx>
                   CDC_OUT_EP,
                   (uint8_t*)(USB_Rx_Buffer),
                   CDC_DATA_OUT_PACKET_SIZE);
  
  return USBD_OK;
 80049ae:	2300      	movs	r3, #0
}
 80049b0:	4618      	mov	r0, r3
 80049b2:	3710      	adds	r7, #16
 80049b4:	46bd      	mov	sp, r7
 80049b6:	bd80      	pop	{r7, pc}
 80049b8:	20007dec 	.word	0x20007dec
 80049bc:	20007d8c 	.word	0x20007d8c
 80049c0:	20008580 	.word	0x20008580

080049c4 <usbd_cdc_DeInit>:
  * @param  cfgidx: Configuration index
  * @retval status
  */
static uint8_t  usbd_cdc_DeInit (void  *pdev, 
                                 uint8_t cfgidx)
{
 80049c4:	b580      	push	{r7, lr}
 80049c6:	b082      	sub	sp, #8
 80049c8:	af00      	add	r7, sp, #0
 80049ca:	6078      	str	r0, [r7, #4]
 80049cc:	460b      	mov	r3, r1
 80049ce:	70fb      	strb	r3, [r7, #3]
  /* Open EP IN */
  DCD_EP_Close(pdev,
 80049d0:	2181      	movs	r1, #129	; 0x81
 80049d2:	6878      	ldr	r0, [r7, #4]
 80049d4:	f7ff f976 	bl	8003cc4 <DCD_EP_Close>
              CDC_IN_EP);
  
  /* Open EP OUT */
  DCD_EP_Close(pdev,
 80049d8:	2101      	movs	r1, #1
 80049da:	6878      	ldr	r0, [r7, #4]
 80049dc:	f7ff f972 	bl	8003cc4 <DCD_EP_Close>
              CDC_OUT_EP);
  
  /* Open Command IN EP */
  DCD_EP_Close(pdev,
 80049e0:	2182      	movs	r1, #130	; 0x82
 80049e2:	6878      	ldr	r0, [r7, #4]
 80049e4:	f7ff f96e 	bl	8003cc4 <DCD_EP_Close>
              CDC_CMD_EP);

  /* Restore default state of the Interface physical components */
  APP_FOPS.pIf_DeInit();
 80049e8:	4b03      	ldr	r3, [pc, #12]	; (80049f8 <usbd_cdc_DeInit+0x34>)
 80049ea:	685b      	ldr	r3, [r3, #4]
 80049ec:	4798      	blx	r3
  
  return USBD_OK;
 80049ee:	2300      	movs	r3, #0
}
 80049f0:	4618      	mov	r0, r3
 80049f2:	3708      	adds	r7, #8
 80049f4:	46bd      	mov	sp, r7
 80049f6:	bd80      	pop	{r7, pc}
 80049f8:	20007d8c 	.word	0x20007d8c

080049fc <usbd_cdc_Setup>:
  * @param  req: usb requests
  * @retval status
  */
static uint8_t  usbd_cdc_Setup (void  *pdev, 
                                USB_SETUP_REQ *req)
{
 80049fc:	b580      	push	{r7, lr}
 80049fe:	b084      	sub	sp, #16
 8004a00:	af00      	add	r7, sp, #0
 8004a02:	6078      	str	r0, [r7, #4]
 8004a04:	6039      	str	r1, [r7, #0]
  uint16_t len=USB_CDC_DESC_SIZ;
 8004a06:	233a      	movs	r3, #58	; 0x3a
 8004a08:	81fb      	strh	r3, [r7, #14]
  uint8_t  *pbuf=usbd_cdc_CfgDesc + 9;
 8004a0a:	4b3f      	ldr	r3, [pc, #252]	; (8004b08 <usbd_cdc_Setup+0x10c>)
 8004a0c:	60bb      	str	r3, [r7, #8]
  
  switch (req->bmRequest & USB_REQ_TYPE_MASK)
 8004a0e:	683b      	ldr	r3, [r7, #0]
 8004a10:	781b      	ldrb	r3, [r3, #0]
 8004a12:	f003 0360 	and.w	r3, r3, #96	; 0x60
 8004a16:	2b00      	cmp	r3, #0
 8004a18:	d03d      	beq.n	8004a96 <usbd_cdc_Setup+0x9a>
 8004a1a:	2b20      	cmp	r3, #32
 8004a1c:	d135      	bne.n	8004a8a <usbd_cdc_Setup+0x8e>
  {
    /* CDC Class Requests -------------------------------*/
  case USB_REQ_TYPE_CLASS :
      /* Check if the request is a data setup packet */
      if (req->wLength)
 8004a1e:	683b      	ldr	r3, [r7, #0]
 8004a20:	88db      	ldrh	r3, [r3, #6]
 8004a22:	2b00      	cmp	r3, #0
 8004a24:	d027      	beq.n	8004a76 <usbd_cdc_Setup+0x7a>
      {
        /* Check if the request is Device-to-Host */
        if (req->bmRequest & 0x80)
 8004a26:	683b      	ldr	r3, [r7, #0]
 8004a28:	781b      	ldrb	r3, [r3, #0]
 8004a2a:	b25b      	sxtb	r3, r3
 8004a2c:	2b00      	cmp	r3, #0
 8004a2e:	da10      	bge.n	8004a52 <usbd_cdc_Setup+0x56>
        {
          /* Get the data to be sent to Host from interface layer */
          APP_FOPS.pIf_Ctrl(req->bRequest, CmdBuff, req->wLength);
 8004a30:	4b36      	ldr	r3, [pc, #216]	; (8004b0c <usbd_cdc_Setup+0x110>)
 8004a32:	689b      	ldr	r3, [r3, #8]
 8004a34:	683a      	ldr	r2, [r7, #0]
 8004a36:	7852      	ldrb	r2, [r2, #1]
 8004a38:	4610      	mov	r0, r2
 8004a3a:	683a      	ldr	r2, [r7, #0]
 8004a3c:	88d2      	ldrh	r2, [r2, #6]
 8004a3e:	4934      	ldr	r1, [pc, #208]	; (8004b10 <usbd_cdc_Setup+0x114>)
 8004a40:	4798      	blx	r3
          
          /* Send the data to the host */
          USBD_CtlSendData (pdev, 
 8004a42:	683b      	ldr	r3, [r7, #0]
 8004a44:	88db      	ldrh	r3, [r3, #6]
 8004a46:	461a      	mov	r2, r3
 8004a48:	4931      	ldr	r1, [pc, #196]	; (8004b10 <usbd_cdc_Setup+0x114>)
 8004a4a:	6878      	ldr	r0, [r7, #4]
 8004a4c:	f000 fd44 	bl	80054d8 <USBD_CtlSendData>
 8004a50:	e019      	b.n	8004a86 <usbd_cdc_Setup+0x8a>
                            req->wLength);          
        }
        else /* Host-to-Device requeset */
        {
          /* Set the value of the current command to be processed */
          cdcCmd = req->bRequest;
 8004a52:	683b      	ldr	r3, [r7, #0]
 8004a54:	785b      	ldrb	r3, [r3, #1]
 8004a56:	461a      	mov	r2, r3
 8004a58:	4b2e      	ldr	r3, [pc, #184]	; (8004b14 <usbd_cdc_Setup+0x118>)
 8004a5a:	601a      	str	r2, [r3, #0]
          cdcLen = req->wLength;
 8004a5c:	683b      	ldr	r3, [r7, #0]
 8004a5e:	88db      	ldrh	r3, [r3, #6]
 8004a60:	461a      	mov	r2, r3
 8004a62:	4b2d      	ldr	r3, [pc, #180]	; (8004b18 <usbd_cdc_Setup+0x11c>)
 8004a64:	601a      	str	r2, [r3, #0]
          
          /* Prepare the reception of the buffer over EP0
          Next step: the received data will be managed in usbd_cdc_EP0_TxSent() 
          function. */
          USBD_CtlPrepareRx (pdev,
 8004a66:	683b      	ldr	r3, [r7, #0]
 8004a68:	88db      	ldrh	r3, [r3, #6]
 8004a6a:	461a      	mov	r2, r3
 8004a6c:	4928      	ldr	r1, [pc, #160]	; (8004b10 <usbd_cdc_Setup+0x114>)
 8004a6e:	6878      	ldr	r0, [r7, #4]
 8004a70:	f000 fd66 	bl	8005540 <USBD_CtlPrepareRx>
 8004a74:	e007      	b.n	8004a86 <usbd_cdc_Setup+0x8a>
        }
      }
      else /* No Data request */
      {
        /* Transfer the command to the interface layer */
        APP_FOPS.pIf_Ctrl(req->bRequest, NULL, 0);
 8004a76:	4b25      	ldr	r3, [pc, #148]	; (8004b0c <usbd_cdc_Setup+0x110>)
 8004a78:	689b      	ldr	r3, [r3, #8]
 8004a7a:	683a      	ldr	r2, [r7, #0]
 8004a7c:	7852      	ldrb	r2, [r2, #1]
 8004a7e:	4610      	mov	r0, r2
 8004a80:	2200      	movs	r2, #0
 8004a82:	2100      	movs	r1, #0
 8004a84:	4798      	blx	r3
      }
      
      return USBD_OK;
 8004a86:	2300      	movs	r3, #0
 8004a88:	e03a      	b.n	8004b00 <usbd_cdc_Setup+0x104>
      
    default:
      USBD_CtlError (pdev, req);
 8004a8a:	6839      	ldr	r1, [r7, #0]
 8004a8c:	6878      	ldr	r0, [r7, #4]
 8004a8e:	f001 f9da 	bl	8005e46 <USBD_CtlError>
      return USBD_FAIL;
 8004a92:	2302      	movs	r3, #2
 8004a94:	e034      	b.n	8004b00 <usbd_cdc_Setup+0x104>
    
      
      
    /* Standard Requests -------------------------------*/
  case USB_REQ_TYPE_STANDARD:
    switch (req->bRequest)
 8004a96:	683b      	ldr	r3, [r7, #0]
 8004a98:	785b      	ldrb	r3, [r3, #1]
 8004a9a:	2b0a      	cmp	r3, #10
 8004a9c:	d018      	beq.n	8004ad0 <usbd_cdc_Setup+0xd4>
 8004a9e:	2b0b      	cmp	r3, #11
 8004aa0:	d01c      	beq.n	8004adc <usbd_cdc_Setup+0xe0>
 8004aa2:	2b06      	cmp	r3, #6
 8004aa4:	d12b      	bne.n	8004afe <usbd_cdc_Setup+0x102>
    {
    case USB_REQ_GET_DESCRIPTOR: 
      if( (req->wValue >> 8) == CDC_DESCRIPTOR_TYPE)
 8004aa6:	683b      	ldr	r3, [r7, #0]
 8004aa8:	885b      	ldrh	r3, [r3, #2]
 8004aaa:	0a1b      	lsrs	r3, r3, #8
 8004aac:	b29b      	uxth	r3, r3
 8004aae:	2b21      	cmp	r3, #33	; 0x21
 8004ab0:	d107      	bne.n	8004ac2 <usbd_cdc_Setup+0xc6>
      {
#ifdef USB_OTG_HS_INTERNAL_DMA_ENABLED
        pbuf = usbd_cdc_Desc;   
#else
        pbuf = usbd_cdc_CfgDesc + 9 + (9 * USBD_ITF_MAX_NUM);
 8004ab2:	4b1a      	ldr	r3, [pc, #104]	; (8004b1c <usbd_cdc_Setup+0x120>)
 8004ab4:	60bb      	str	r3, [r7, #8]
#endif 
        len = MIN(USB_CDC_DESC_SIZ , req->wLength);
 8004ab6:	683b      	ldr	r3, [r7, #0]
 8004ab8:	88db      	ldrh	r3, [r3, #6]
 8004aba:	2b3a      	cmp	r3, #58	; 0x3a
 8004abc:	bf28      	it	cs
 8004abe:	233a      	movcs	r3, #58	; 0x3a
 8004ac0:	81fb      	strh	r3, [r7, #14]
      }
      
      USBD_CtlSendData (pdev, 
 8004ac2:	89fb      	ldrh	r3, [r7, #14]
 8004ac4:	461a      	mov	r2, r3
 8004ac6:	68b9      	ldr	r1, [r7, #8]
 8004ac8:	6878      	ldr	r0, [r7, #4]
 8004aca:	f000 fd05 	bl	80054d8 <USBD_CtlSendData>
                        pbuf,
                        len);
      break;
 8004ace:	e016      	b.n	8004afe <usbd_cdc_Setup+0x102>
      
    case USB_REQ_GET_INTERFACE :
      USBD_CtlSendData (pdev,
 8004ad0:	2201      	movs	r2, #1
 8004ad2:	4913      	ldr	r1, [pc, #76]	; (8004b20 <usbd_cdc_Setup+0x124>)
 8004ad4:	6878      	ldr	r0, [r7, #4]
 8004ad6:	f000 fcff 	bl	80054d8 <USBD_CtlSendData>
                        (uint8_t *)&usbd_cdc_AltSet,
                        1);
      break;
 8004ada:	e010      	b.n	8004afe <usbd_cdc_Setup+0x102>
      
    case USB_REQ_SET_INTERFACE :
      if ((uint8_t)(req->wValue) < USBD_ITF_MAX_NUM)
 8004adc:	683b      	ldr	r3, [r7, #0]
 8004ade:	885b      	ldrh	r3, [r3, #2]
 8004ae0:	b2db      	uxtb	r3, r3
 8004ae2:	2b00      	cmp	r3, #0
 8004ae4:	d106      	bne.n	8004af4 <usbd_cdc_Setup+0xf8>
      {
        usbd_cdc_AltSet = (uint8_t)(req->wValue);
 8004ae6:	683b      	ldr	r3, [r7, #0]
 8004ae8:	885b      	ldrh	r3, [r3, #2]
 8004aea:	b2db      	uxtb	r3, r3
 8004aec:	461a      	mov	r2, r3
 8004aee:	4b0c      	ldr	r3, [pc, #48]	; (8004b20 <usbd_cdc_Setup+0x124>)
 8004af0:	601a      	str	r2, [r3, #0]
      else
      {
        /* Call the error management function (command will be nacked */
        USBD_CtlError (pdev, req);
      }
      break;
 8004af2:	e003      	b.n	8004afc <usbd_cdc_Setup+0x100>
        USBD_CtlError (pdev, req);
 8004af4:	6839      	ldr	r1, [r7, #0]
 8004af6:	6878      	ldr	r0, [r7, #4]
 8004af8:	f001 f9a5 	bl	8005e46 <USBD_CtlError>
      break;
 8004afc:	bf00      	nop
    }
  }
  return USBD_OK;
 8004afe:	2300      	movs	r3, #0
}
 8004b00:	4618      	mov	r0, r3
 8004b02:	3710      	adds	r7, #16
 8004b04:	46bd      	mov	sp, r7
 8004b06:	bd80      	pop	{r7, pc}
 8004b08:	20007d19 	.word	0x20007d19
 8004b0c:	20007d8c 	.word	0x20007d8c
 8004b10:	200085c0 	.word	0x200085c0
 8004b14:	20007d54 	.word	0x20007d54
 8004b18:	20007e9c 	.word	0x20007e9c
 8004b1c:	20007d22 	.word	0x20007d22
 8004b20:	20007e88 	.word	0x20007e88

08004b24 <usbd_cdc_EP0_RxReady>:
  *         Data received on control endpoint
  * @param  pdev: device device instance
  * @retval status
  */
static uint8_t  usbd_cdc_EP0_RxReady (void  *pdev)
{ 
 8004b24:	b580      	push	{r7, lr}
 8004b26:	b082      	sub	sp, #8
 8004b28:	af00      	add	r7, sp, #0
 8004b2a:	6078      	str	r0, [r7, #4]
  if (cdcCmd != NO_CMD)
 8004b2c:	4b09      	ldr	r3, [pc, #36]	; (8004b54 <usbd_cdc_EP0_RxReady+0x30>)
 8004b2e:	681b      	ldr	r3, [r3, #0]
 8004b30:	2bff      	cmp	r3, #255	; 0xff
 8004b32:	d00a      	beq.n	8004b4a <usbd_cdc_EP0_RxReady+0x26>
  {
    /* Process the data */
    APP_FOPS.pIf_Ctrl(cdcCmd, CmdBuff, cdcLen);
 8004b34:	4b08      	ldr	r3, [pc, #32]	; (8004b58 <usbd_cdc_EP0_RxReady+0x34>)
 8004b36:	689b      	ldr	r3, [r3, #8]
 8004b38:	4a06      	ldr	r2, [pc, #24]	; (8004b54 <usbd_cdc_EP0_RxReady+0x30>)
 8004b3a:	6810      	ldr	r0, [r2, #0]
 8004b3c:	4a07      	ldr	r2, [pc, #28]	; (8004b5c <usbd_cdc_EP0_RxReady+0x38>)
 8004b3e:	6812      	ldr	r2, [r2, #0]
 8004b40:	4907      	ldr	r1, [pc, #28]	; (8004b60 <usbd_cdc_EP0_RxReady+0x3c>)
 8004b42:	4798      	blx	r3
    
    /* Reset the command variable to default value */
    cdcCmd = NO_CMD;
 8004b44:	4b03      	ldr	r3, [pc, #12]	; (8004b54 <usbd_cdc_EP0_RxReady+0x30>)
 8004b46:	22ff      	movs	r2, #255	; 0xff
 8004b48:	601a      	str	r2, [r3, #0]
  }
  
  return USBD_OK;
 8004b4a:	2300      	movs	r3, #0
}
 8004b4c:	4618      	mov	r0, r3
 8004b4e:	3708      	adds	r7, #8
 8004b50:	46bd      	mov	sp, r7
 8004b52:	bd80      	pop	{r7, pc}
 8004b54:	20007d54 	.word	0x20007d54
 8004b58:	20007d8c 	.word	0x20007d8c
 8004b5c:	20007e9c 	.word	0x20007e9c
 8004b60:	200085c0 	.word	0x200085c0

08004b64 <usbd_cdc_DataIn>:
  * @param  pdev: device instance
  * @param  epnum: endpoint number
  * @retval status
  */
static uint8_t  usbd_cdc_DataIn (void *pdev, uint8_t epnum)
{
 8004b64:	b580      	push	{r7, lr}
 8004b66:	b084      	sub	sp, #16
 8004b68:	af00      	add	r7, sp, #0
 8004b6a:	6078      	str	r0, [r7, #4]
 8004b6c:	460b      	mov	r3, r1
 8004b6e:	70fb      	strb	r3, [r7, #3]
  uint16_t USB_Tx_ptr;
  uint16_t USB_Tx_length;

  if (USB_Tx_State == 1)
 8004b70:	4b1e      	ldr	r3, [pc, #120]	; (8004bec <usbd_cdc_DataIn+0x88>)
 8004b72:	781b      	ldrb	r3, [r3, #0]
 8004b74:	2b01      	cmp	r3, #1
 8004b76:	d133      	bne.n	8004be0 <usbd_cdc_DataIn+0x7c>
  {
    if (APP_Rx_length == 0) 
 8004b78:	4b1d      	ldr	r3, [pc, #116]	; (8004bf0 <usbd_cdc_DataIn+0x8c>)
 8004b7a:	681b      	ldr	r3, [r3, #0]
 8004b7c:	2b00      	cmp	r3, #0
 8004b7e:	d103      	bne.n	8004b88 <usbd_cdc_DataIn+0x24>
    {
      USB_Tx_State = 0;
 8004b80:	4b1a      	ldr	r3, [pc, #104]	; (8004bec <usbd_cdc_DataIn+0x88>)
 8004b82:	2200      	movs	r2, #0
 8004b84:	701a      	strb	r2, [r3, #0]
 8004b86:	e02b      	b.n	8004be0 <usbd_cdc_DataIn+0x7c>
    }
    else 
    {
      if (APP_Rx_length > CDC_DATA_IN_PACKET_SIZE){
 8004b88:	4b19      	ldr	r3, [pc, #100]	; (8004bf0 <usbd_cdc_DataIn+0x8c>)
 8004b8a:	681b      	ldr	r3, [r3, #0]
 8004b8c:	2b40      	cmp	r3, #64	; 0x40
 8004b8e:	d90f      	bls.n	8004bb0 <usbd_cdc_DataIn+0x4c>
        USB_Tx_ptr = APP_Rx_ptr_out;
 8004b90:	4b18      	ldr	r3, [pc, #96]	; (8004bf4 <usbd_cdc_DataIn+0x90>)
 8004b92:	681b      	ldr	r3, [r3, #0]
 8004b94:	81fb      	strh	r3, [r7, #14]
        USB_Tx_length = CDC_DATA_IN_PACKET_SIZE;
 8004b96:	2340      	movs	r3, #64	; 0x40
 8004b98:	81bb      	strh	r3, [r7, #12]
        
        APP_Rx_ptr_out += CDC_DATA_IN_PACKET_SIZE;
 8004b9a:	4b16      	ldr	r3, [pc, #88]	; (8004bf4 <usbd_cdc_DataIn+0x90>)
 8004b9c:	681b      	ldr	r3, [r3, #0]
 8004b9e:	3340      	adds	r3, #64	; 0x40
 8004ba0:	4a14      	ldr	r2, [pc, #80]	; (8004bf4 <usbd_cdc_DataIn+0x90>)
 8004ba2:	6013      	str	r3, [r2, #0]
        APP_Rx_length -= CDC_DATA_IN_PACKET_SIZE;    
 8004ba4:	4b12      	ldr	r3, [pc, #72]	; (8004bf0 <usbd_cdc_DataIn+0x8c>)
 8004ba6:	681b      	ldr	r3, [r3, #0]
 8004ba8:	3b40      	subs	r3, #64	; 0x40
 8004baa:	4a11      	ldr	r2, [pc, #68]	; (8004bf0 <usbd_cdc_DataIn+0x8c>)
 8004bac:	6013      	str	r3, [r2, #0]
 8004bae:	e00f      	b.n	8004bd0 <usbd_cdc_DataIn+0x6c>
      }
      else 
      {
        USB_Tx_ptr = APP_Rx_ptr_out;
 8004bb0:	4b10      	ldr	r3, [pc, #64]	; (8004bf4 <usbd_cdc_DataIn+0x90>)
 8004bb2:	681b      	ldr	r3, [r3, #0]
 8004bb4:	81fb      	strh	r3, [r7, #14]
        USB_Tx_length = APP_Rx_length;
 8004bb6:	4b0e      	ldr	r3, [pc, #56]	; (8004bf0 <usbd_cdc_DataIn+0x8c>)
 8004bb8:	681b      	ldr	r3, [r3, #0]
 8004bba:	81bb      	strh	r3, [r7, #12]
        
        APP_Rx_ptr_out += APP_Rx_length;
 8004bbc:	4b0d      	ldr	r3, [pc, #52]	; (8004bf4 <usbd_cdc_DataIn+0x90>)
 8004bbe:	681a      	ldr	r2, [r3, #0]
 8004bc0:	4b0b      	ldr	r3, [pc, #44]	; (8004bf0 <usbd_cdc_DataIn+0x8c>)
 8004bc2:	681b      	ldr	r3, [r3, #0]
 8004bc4:	4413      	add	r3, r2
 8004bc6:	4a0b      	ldr	r2, [pc, #44]	; (8004bf4 <usbd_cdc_DataIn+0x90>)
 8004bc8:	6013      	str	r3, [r2, #0]
        APP_Rx_length = 0;
 8004bca:	4b09      	ldr	r3, [pc, #36]	; (8004bf0 <usbd_cdc_DataIn+0x8c>)
 8004bcc:	2200      	movs	r2, #0
 8004bce:	601a      	str	r2, [r3, #0]
      }
      
      /* Prepare the available data buffer to be sent on IN endpoint */
      DCD_EP_Tx (pdev,
                 CDC_IN_EP,
                 (uint8_t*)&APP_Rx_Buffer[USB_Tx_ptr],
 8004bd0:	89fb      	ldrh	r3, [r7, #14]
      DCD_EP_Tx (pdev,
 8004bd2:	4a09      	ldr	r2, [pc, #36]	; (8004bf8 <usbd_cdc_DataIn+0x94>)
 8004bd4:	441a      	add	r2, r3
 8004bd6:	89bb      	ldrh	r3, [r7, #12]
 8004bd8:	2181      	movs	r1, #129	; 0x81
 8004bda:	6878      	ldr	r0, [r7, #4]
 8004bdc:	f7ff f8f0 	bl	8003dc0 <DCD_EP_Tx>
                 USB_Tx_length);
    }
  }  
  
  return USBD_OK;
 8004be0:	2300      	movs	r3, #0
}
 8004be2:	4618      	mov	r0, r3
 8004be4:	3710      	adds	r7, #16
 8004be6:	46bd      	mov	sp, r7
 8004be8:	bd80      	pop	{r7, pc}
 8004bea:	bf00      	nop
 8004bec:	20007e98 	.word	0x20007e98
 8004bf0:	20007e94 	.word	0x20007e94
 8004bf4:	20007e90 	.word	0x20007e90
 8004bf8:	200085c8 	.word	0x200085c8

08004bfc <usbd_cdc_DataOut>:
  * @param  pdev: device instance
  * @param  epnum: endpoint number
  * @retval status
  */
static uint8_t  usbd_cdc_DataOut (void *pdev, uint8_t epnum)
{      
 8004bfc:	b580      	push	{r7, lr}
 8004bfe:	b084      	sub	sp, #16
 8004c00:	af00      	add	r7, sp, #0
 8004c02:	6078      	str	r0, [r7, #4]
 8004c04:	460b      	mov	r3, r1
 8004c06:	70fb      	strb	r3, [r7, #3]
  uint16_t USB_Rx_Cnt;
  
  /* Get the received data buffer and update the counter */
  USB_Rx_Cnt = ((USB_OTG_CORE_HANDLE*)pdev)->dev.out_ep[epnum].xfer_count;
 8004c08:	78fa      	ldrb	r2, [r7, #3]
 8004c0a:	6879      	ldr	r1, [r7, #4]
 8004c0c:	4613      	mov	r3, r2
 8004c0e:	009b      	lsls	r3, r3, #2
 8004c10:	4413      	add	r3, r2
 8004c12:	00db      	lsls	r3, r3, #3
 8004c14:	440b      	add	r3, r1
 8004c16:	f503 7363 	add.w	r3, r3, #908	; 0x38c
 8004c1a:	681b      	ldr	r3, [r3, #0]
 8004c1c:	81fb      	strh	r3, [r7, #14]
  
  /* USB data will be immediately processed, this allow next USB traffic being 
     NAKed till the end of the application Xfer */
  APP_FOPS.pIf_DataRx(USB_Rx_Buffer, USB_Rx_Cnt);
 8004c1e:	4b08      	ldr	r3, [pc, #32]	; (8004c40 <usbd_cdc_DataOut+0x44>)
 8004c20:	691b      	ldr	r3, [r3, #16]
 8004c22:	89fa      	ldrh	r2, [r7, #14]
 8004c24:	4611      	mov	r1, r2
 8004c26:	4807      	ldr	r0, [pc, #28]	; (8004c44 <usbd_cdc_DataOut+0x48>)
 8004c28:	4798      	blx	r3
  
  /* Prepare Out endpoint to receive next packet */
  DCD_EP_PrepareRx(pdev,
 8004c2a:	2340      	movs	r3, #64	; 0x40
 8004c2c:	4a05      	ldr	r2, [pc, #20]	; (8004c44 <usbd_cdc_DataOut+0x48>)
 8004c2e:	2101      	movs	r1, #1
 8004c30:	6878      	ldr	r0, [r7, #4]
 8004c32:	f7ff f883 	bl	8003d3c <DCD_EP_PrepareRx>
                   CDC_OUT_EP,
                   (uint8_t*)(USB_Rx_Buffer),
                   CDC_DATA_OUT_PACKET_SIZE);

  return USBD_OK;
 8004c36:	2300      	movs	r3, #0
}
 8004c38:	4618      	mov	r0, r3
 8004c3a:	3710      	adds	r7, #16
 8004c3c:	46bd      	mov	sp, r7
 8004c3e:	bd80      	pop	{r7, pc}
 8004c40:	20007d8c 	.word	0x20007d8c
 8004c44:	20008580 	.word	0x20008580

08004c48 <usbd_cdc_SOF>:
  * @param  pdev: instance
  * @param  epnum: endpoint number
  * @retval status
  */
static uint8_t  usbd_cdc_SOF (void *pdev)
{      
 8004c48:	b580      	push	{r7, lr}
 8004c4a:	b082      	sub	sp, #8
 8004c4c:	af00      	add	r7, sp, #0
 8004c4e:	6078      	str	r0, [r7, #4]
  static uint32_t FrameCount = 0;
  
  if (FrameCount++ == CDC_IN_FRAME_INTERVAL)
 8004c50:	4b08      	ldr	r3, [pc, #32]	; (8004c74 <usbd_cdc_SOF+0x2c>)
 8004c52:	681b      	ldr	r3, [r3, #0]
 8004c54:	1c5a      	adds	r2, r3, #1
 8004c56:	4907      	ldr	r1, [pc, #28]	; (8004c74 <usbd_cdc_SOF+0x2c>)
 8004c58:	600a      	str	r2, [r1, #0]
 8004c5a:	2b05      	cmp	r3, #5
 8004c5c:	d105      	bne.n	8004c6a <usbd_cdc_SOF+0x22>
  {
    /* Reset the frame counter */
    FrameCount = 0;
 8004c5e:	4b05      	ldr	r3, [pc, #20]	; (8004c74 <usbd_cdc_SOF+0x2c>)
 8004c60:	2200      	movs	r2, #0
 8004c62:	601a      	str	r2, [r3, #0]
    
    /* Check the data to be sent through IN pipe */
    Handle_USBAsynchXfer(pdev);
 8004c64:	6878      	ldr	r0, [r7, #4]
 8004c66:	f000 f807 	bl	8004c78 <Handle_USBAsynchXfer>
  }
  
  return USBD_OK;
 8004c6a:	2300      	movs	r3, #0
}
 8004c6c:	4618      	mov	r0, r3
 8004c6e:	3708      	adds	r7, #8
 8004c70:	46bd      	mov	sp, r7
 8004c72:	bd80      	pop	{r7, pc}
 8004c74:	20007ea0 	.word	0x20007ea0

08004c78 <Handle_USBAsynchXfer>:
  *         Send data to USB
  * @param  pdev: instance
  * @retval None
  */
static void Handle_USBAsynchXfer (void *pdev)
{
 8004c78:	b580      	push	{r7, lr}
 8004c7a:	b084      	sub	sp, #16
 8004c7c:	af00      	add	r7, sp, #0
 8004c7e:	6078      	str	r0, [r7, #4]
  uint16_t USB_Tx_ptr;
  uint16_t USB_Tx_length;
  
  if(USB_Tx_State != 1)
 8004c80:	4b2d      	ldr	r3, [pc, #180]	; (8004d38 <Handle_USBAsynchXfer+0xc0>)
 8004c82:	781b      	ldrb	r3, [r3, #0]
 8004c84:	2b01      	cmp	r3, #1
 8004c86:	d054      	beq.n	8004d32 <Handle_USBAsynchXfer+0xba>
  {
    if (APP_Rx_ptr_out == APP_RX_DATA_SIZE)
 8004c88:	4b2c      	ldr	r3, [pc, #176]	; (8004d3c <Handle_USBAsynchXfer+0xc4>)
 8004c8a:	681b      	ldr	r3, [r3, #0]
 8004c8c:	f5b3 6f00 	cmp.w	r3, #2048	; 0x800
 8004c90:	d102      	bne.n	8004c98 <Handle_USBAsynchXfer+0x20>
    {
      APP_Rx_ptr_out = 0;
 8004c92:	4b2a      	ldr	r3, [pc, #168]	; (8004d3c <Handle_USBAsynchXfer+0xc4>)
 8004c94:	2200      	movs	r2, #0
 8004c96:	601a      	str	r2, [r3, #0]
    }
    
    if(APP_Rx_ptr_out == APP_Rx_ptr_in) 
 8004c98:	4b28      	ldr	r3, [pc, #160]	; (8004d3c <Handle_USBAsynchXfer+0xc4>)
 8004c9a:	681a      	ldr	r2, [r3, #0]
 8004c9c:	4b28      	ldr	r3, [pc, #160]	; (8004d40 <Handle_USBAsynchXfer+0xc8>)
 8004c9e:	681b      	ldr	r3, [r3, #0]
 8004ca0:	429a      	cmp	r2, r3
 8004ca2:	d103      	bne.n	8004cac <Handle_USBAsynchXfer+0x34>
    {
      USB_Tx_State = 0; 
 8004ca4:	4b24      	ldr	r3, [pc, #144]	; (8004d38 <Handle_USBAsynchXfer+0xc0>)
 8004ca6:	2200      	movs	r2, #0
 8004ca8:	701a      	strb	r2, [r3, #0]
      return;
 8004caa:	e042      	b.n	8004d32 <Handle_USBAsynchXfer+0xba>
    }
    
    if(APP_Rx_ptr_out > APP_Rx_ptr_in) /* rollback */
 8004cac:	4b23      	ldr	r3, [pc, #140]	; (8004d3c <Handle_USBAsynchXfer+0xc4>)
 8004cae:	681a      	ldr	r2, [r3, #0]
 8004cb0:	4b23      	ldr	r3, [pc, #140]	; (8004d40 <Handle_USBAsynchXfer+0xc8>)
 8004cb2:	681b      	ldr	r3, [r3, #0]
 8004cb4:	429a      	cmp	r2, r3
 8004cb6:	d906      	bls.n	8004cc6 <Handle_USBAsynchXfer+0x4e>
    { 
      APP_Rx_length = APP_RX_DATA_SIZE - APP_Rx_ptr_out;
 8004cb8:	4b20      	ldr	r3, [pc, #128]	; (8004d3c <Handle_USBAsynchXfer+0xc4>)
 8004cba:	681b      	ldr	r3, [r3, #0]
 8004cbc:	f5c3 6300 	rsb	r3, r3, #2048	; 0x800
 8004cc0:	4a20      	ldr	r2, [pc, #128]	; (8004d44 <Handle_USBAsynchXfer+0xcc>)
 8004cc2:	6013      	str	r3, [r2, #0]
 8004cc4:	e006      	b.n	8004cd4 <Handle_USBAsynchXfer+0x5c>
    
    }
    else 
    {
      APP_Rx_length = APP_Rx_ptr_in - APP_Rx_ptr_out;
 8004cc6:	4b1e      	ldr	r3, [pc, #120]	; (8004d40 <Handle_USBAsynchXfer+0xc8>)
 8004cc8:	681a      	ldr	r2, [r3, #0]
 8004cca:	4b1c      	ldr	r3, [pc, #112]	; (8004d3c <Handle_USBAsynchXfer+0xc4>)
 8004ccc:	681b      	ldr	r3, [r3, #0]
 8004cce:	1ad3      	subs	r3, r2, r3
 8004cd0:	4a1c      	ldr	r2, [pc, #112]	; (8004d44 <Handle_USBAsynchXfer+0xcc>)
 8004cd2:	6013      	str	r3, [r2, #0]
    }
#ifdef USB_OTG_HS_INTERNAL_DMA_ENABLED
     APP_Rx_length &= ~0x03;
#endif /* USB_OTG_HS_INTERNAL_DMA_ENABLED */
    
    if (APP_Rx_length > CDC_DATA_IN_PACKET_SIZE)
 8004cd4:	4b1b      	ldr	r3, [pc, #108]	; (8004d44 <Handle_USBAsynchXfer+0xcc>)
 8004cd6:	681b      	ldr	r3, [r3, #0]
 8004cd8:	2b40      	cmp	r3, #64	; 0x40
 8004cda:	d90f      	bls.n	8004cfc <Handle_USBAsynchXfer+0x84>
    {
      USB_Tx_ptr = APP_Rx_ptr_out;
 8004cdc:	4b17      	ldr	r3, [pc, #92]	; (8004d3c <Handle_USBAsynchXfer+0xc4>)
 8004cde:	681b      	ldr	r3, [r3, #0]
 8004ce0:	81fb      	strh	r3, [r7, #14]
      USB_Tx_length = CDC_DATA_IN_PACKET_SIZE;
 8004ce2:	2340      	movs	r3, #64	; 0x40
 8004ce4:	81bb      	strh	r3, [r7, #12]
      
      APP_Rx_ptr_out += CDC_DATA_IN_PACKET_SIZE;	
 8004ce6:	4b15      	ldr	r3, [pc, #84]	; (8004d3c <Handle_USBAsynchXfer+0xc4>)
 8004ce8:	681b      	ldr	r3, [r3, #0]
 8004cea:	3340      	adds	r3, #64	; 0x40
 8004cec:	4a13      	ldr	r2, [pc, #76]	; (8004d3c <Handle_USBAsynchXfer+0xc4>)
 8004cee:	6013      	str	r3, [r2, #0]
      APP_Rx_length -= CDC_DATA_IN_PACKET_SIZE;
 8004cf0:	4b14      	ldr	r3, [pc, #80]	; (8004d44 <Handle_USBAsynchXfer+0xcc>)
 8004cf2:	681b      	ldr	r3, [r3, #0]
 8004cf4:	3b40      	subs	r3, #64	; 0x40
 8004cf6:	4a13      	ldr	r2, [pc, #76]	; (8004d44 <Handle_USBAsynchXfer+0xcc>)
 8004cf8:	6013      	str	r3, [r2, #0]
 8004cfa:	e00f      	b.n	8004d1c <Handle_USBAsynchXfer+0xa4>
    }
    else
    {
      USB_Tx_ptr = APP_Rx_ptr_out;
 8004cfc:	4b0f      	ldr	r3, [pc, #60]	; (8004d3c <Handle_USBAsynchXfer+0xc4>)
 8004cfe:	681b      	ldr	r3, [r3, #0]
 8004d00:	81fb      	strh	r3, [r7, #14]
      USB_Tx_length = APP_Rx_length;
 8004d02:	4b10      	ldr	r3, [pc, #64]	; (8004d44 <Handle_USBAsynchXfer+0xcc>)
 8004d04:	681b      	ldr	r3, [r3, #0]
 8004d06:	81bb      	strh	r3, [r7, #12]
      
      APP_Rx_ptr_out += APP_Rx_length;
 8004d08:	4b0c      	ldr	r3, [pc, #48]	; (8004d3c <Handle_USBAsynchXfer+0xc4>)
 8004d0a:	681a      	ldr	r2, [r3, #0]
 8004d0c:	4b0d      	ldr	r3, [pc, #52]	; (8004d44 <Handle_USBAsynchXfer+0xcc>)
 8004d0e:	681b      	ldr	r3, [r3, #0]
 8004d10:	4413      	add	r3, r2
 8004d12:	4a0a      	ldr	r2, [pc, #40]	; (8004d3c <Handle_USBAsynchXfer+0xc4>)
 8004d14:	6013      	str	r3, [r2, #0]
      APP_Rx_length = 0;
 8004d16:	4b0b      	ldr	r3, [pc, #44]	; (8004d44 <Handle_USBAsynchXfer+0xcc>)
 8004d18:	2200      	movs	r2, #0
 8004d1a:	601a      	str	r2, [r3, #0]
    }
    USB_Tx_State = 1; 
 8004d1c:	4b06      	ldr	r3, [pc, #24]	; (8004d38 <Handle_USBAsynchXfer+0xc0>)
 8004d1e:	2201      	movs	r2, #1
 8004d20:	701a      	strb	r2, [r3, #0]

    DCD_EP_Tx (pdev,
               CDC_IN_EP,
               (uint8_t*)&APP_Rx_Buffer[USB_Tx_ptr],
 8004d22:	89fb      	ldrh	r3, [r7, #14]
    DCD_EP_Tx (pdev,
 8004d24:	4a08      	ldr	r2, [pc, #32]	; (8004d48 <Handle_USBAsynchXfer+0xd0>)
 8004d26:	441a      	add	r2, r3
 8004d28:	89bb      	ldrh	r3, [r7, #12]
 8004d2a:	2181      	movs	r1, #129	; 0x81
 8004d2c:	6878      	ldr	r0, [r7, #4]
 8004d2e:	f7ff f847 	bl	8003dc0 <DCD_EP_Tx>
               USB_Tx_length);
  }  
  
}
 8004d32:	3710      	adds	r7, #16
 8004d34:	46bd      	mov	sp, r7
 8004d36:	bd80      	pop	{r7, pc}
 8004d38:	20007e98 	.word	0x20007e98
 8004d3c:	20007e90 	.word	0x20007e90
 8004d40:	20007e8c 	.word	0x20007e8c
 8004d44:	20007e94 	.word	0x20007e94
 8004d48:	200085c8 	.word	0x200085c8

08004d4c <USBD_cdc_GetCfgDesc>:
  * @param  speed : current device speed
  * @param  length : pointer data length
  * @retval pointer to descriptor buffer
  */
static uint8_t  *USBD_cdc_GetCfgDesc (uint8_t speed, uint16_t *length)
{
 8004d4c:	b480      	push	{r7}
 8004d4e:	b083      	sub	sp, #12
 8004d50:	af00      	add	r7, sp, #0
 8004d52:	4603      	mov	r3, r0
 8004d54:	6039      	str	r1, [r7, #0]
 8004d56:	71fb      	strb	r3, [r7, #7]
  *length = sizeof (usbd_cdc_CfgDesc);
 8004d58:	683b      	ldr	r3, [r7, #0]
 8004d5a:	2243      	movs	r2, #67	; 0x43
 8004d5c:	801a      	strh	r2, [r3, #0]
  return usbd_cdc_CfgDesc;
 8004d5e:	4b03      	ldr	r3, [pc, #12]	; (8004d6c <USBD_cdc_GetCfgDesc+0x20>)
}
 8004d60:	4618      	mov	r0, r3
 8004d62:	370c      	adds	r7, #12
 8004d64:	46bd      	mov	sp, r7
 8004d66:	f85d 7b04 	ldr.w	r7, [sp], #4
 8004d6a:	4770      	bx	lr
 8004d6c:	20007d10 	.word	0x20007d10

08004d70 <VCP_Init>:
  * @brief  VCP_Init
  *         Initializes the Media on the STM32
  * @param  None
  * @retval Result of the opeartion (USBD_OK in all cases)
  */
static uint16_t VCP_Init(void) {
 8004d70:	b480      	push	{r7}
 8004d72:	af00      	add	r7, sp, #0
  return USBD_OK;
 8004d74:	2300      	movs	r3, #0
}
 8004d76:	4618      	mov	r0, r3
 8004d78:	46bd      	mov	sp, r7
 8004d7a:	f85d 7b04 	ldr.w	r7, [sp], #4
 8004d7e:	4770      	bx	lr

08004d80 <VCP_DeInit>:
  * @brief  VCP_DeInit
  *         DeInitializes the Media on the STM32
  * @param  None
  * @retval Result of the opeartion (USBD_OK in all cases)
  */
static uint16_t VCP_DeInit(void) {
 8004d80:	b480      	push	{r7}
 8004d82:	af00      	add	r7, sp, #0
  return USBD_OK;
 8004d84:	2300      	movs	r3, #0
}
 8004d86:	4618      	mov	r0, r3
 8004d88:	46bd      	mov	sp, r7
 8004d8a:	f85d 7b04 	ldr.w	r7, [sp], #4
 8004d8e:	4770      	bx	lr

08004d90 <VCP_Ctrl>:
  * @param  Buf: Buffer containing command data (request parameters)
  * @param  Len: Number of data to be sent (in bytes)
  * @retval Result of the opeartion (USBD_OK in all cases)
  */
static uint16_t VCP_Ctrl (uint32_t Cmd, uint8_t* Buf, uint32_t Len)
{ /*
 8004d90:	b480      	push	{r7}
 8004d92:	b085      	sub	sp, #20
 8004d94:	af00      	add	r7, sp, #0
 8004d96:	60f8      	str	r0, [r7, #12]
 8004d98:	60b9      	str	r1, [r7, #8]
 8004d9a:	607a      	str	r2, [r7, #4]
	for (i = 0; i < Len; i++) {
		printf("0x%02X ", Buf[i]);
	}
	printf("\n");
	*/
  switch (Cmd)
 8004d9c:	68fb      	ldr	r3, [r7, #12]
 8004d9e:	2b23      	cmp	r3, #35	; 0x23
 8004da0:	f200 809b 	bhi.w	8004eda <VCP_Ctrl+0x14a>
 8004da4:	a201      	add	r2, pc, #4	; (adr r2, 8004dac <VCP_Ctrl+0x1c>)
 8004da6:	f852 f023 	ldr.w	pc, [r2, r3, lsl #2]
 8004daa:	bf00      	nop
 8004dac:	08004edb 	.word	0x08004edb
 8004db0:	08004edb 	.word	0x08004edb
 8004db4:	08004edb 	.word	0x08004edb
 8004db8:	08004edb 	.word	0x08004edb
 8004dbc:	08004edb 	.word	0x08004edb
 8004dc0:	08004edb 	.word	0x08004edb
 8004dc4:	08004edb 	.word	0x08004edb
 8004dc8:	08004edb 	.word	0x08004edb
 8004dcc:	08004edb 	.word	0x08004edb
 8004dd0:	08004edb 	.word	0x08004edb
 8004dd4:	08004edb 	.word	0x08004edb
 8004dd8:	08004edb 	.word	0x08004edb
 8004ddc:	08004edb 	.word	0x08004edb
 8004de0:	08004edb 	.word	0x08004edb
 8004de4:	08004edb 	.word	0x08004edb
 8004de8:	08004edb 	.word	0x08004edb
 8004dec:	08004edb 	.word	0x08004edb
 8004df0:	08004edb 	.word	0x08004edb
 8004df4:	08004edb 	.word	0x08004edb
 8004df8:	08004edb 	.word	0x08004edb
 8004dfc:	08004edb 	.word	0x08004edb
 8004e00:	08004edb 	.word	0x08004edb
 8004e04:	08004edb 	.word	0x08004edb
 8004e08:	08004edb 	.word	0x08004edb
 8004e0c:	08004edb 	.word	0x08004edb
 8004e10:	08004edb 	.word	0x08004edb
 8004e14:	08004edb 	.word	0x08004edb
 8004e18:	08004edb 	.word	0x08004edb
 8004e1c:	08004edb 	.word	0x08004edb
 8004e20:	08004edb 	.word	0x08004edb
 8004e24:	08004edb 	.word	0x08004edb
 8004e28:	08004edb 	.word	0x08004edb
 8004e2c:	08004e3d 	.word	0x08004e3d
 8004e30:	08004e87 	.word	0x08004e87
 8004e34:	08004edb 	.word	0x08004edb
 8004e38:	08004edb 	.word	0x08004edb
  case CLEAR_COMM_FEATURE:
    /* Not  needed for this driver */
    break;

  case SET_LINE_CODING:
    linecoding.bitrate = (uint32_t)(Buf[0] | (Buf[1] << 8) | (Buf[2] << 16) | (Buf[3] << 24));
 8004e3c:	68bb      	ldr	r3, [r7, #8]
 8004e3e:	781b      	ldrb	r3, [r3, #0]
 8004e40:	461a      	mov	r2, r3
 8004e42:	68bb      	ldr	r3, [r7, #8]
 8004e44:	3301      	adds	r3, #1
 8004e46:	781b      	ldrb	r3, [r3, #0]
 8004e48:	021b      	lsls	r3, r3, #8
 8004e4a:	431a      	orrs	r2, r3
 8004e4c:	68bb      	ldr	r3, [r7, #8]
 8004e4e:	3302      	adds	r3, #2
 8004e50:	781b      	ldrb	r3, [r3, #0]
 8004e52:	041b      	lsls	r3, r3, #16
 8004e54:	431a      	orrs	r2, r3
 8004e56:	68bb      	ldr	r3, [r7, #8]
 8004e58:	3303      	adds	r3, #3
 8004e5a:	781b      	ldrb	r3, [r3, #0]
 8004e5c:	061b      	lsls	r3, r3, #24
 8004e5e:	4313      	orrs	r3, r2
 8004e60:	461a      	mov	r2, r3
 8004e62:	4b22      	ldr	r3, [pc, #136]	; (8004eec <VCP_Ctrl+0x15c>)
 8004e64:	601a      	str	r2, [r3, #0]
    linecoding.format = Buf[4];
 8004e66:	68bb      	ldr	r3, [r7, #8]
 8004e68:	791a      	ldrb	r2, [r3, #4]
 8004e6a:	4b20      	ldr	r3, [pc, #128]	; (8004eec <VCP_Ctrl+0x15c>)
 8004e6c:	711a      	strb	r2, [r3, #4]
    linecoding.paritytype = Buf[5];
 8004e6e:	68bb      	ldr	r3, [r7, #8]
 8004e70:	795a      	ldrb	r2, [r3, #5]
 8004e72:	4b1e      	ldr	r3, [pc, #120]	; (8004eec <VCP_Ctrl+0x15c>)
 8004e74:	715a      	strb	r2, [r3, #5]
    linecoding.datatype = Buf[6];
 8004e76:	68bb      	ldr	r3, [r7, #8]
 8004e78:	799a      	ldrb	r2, [r3, #6]
 8004e7a:	4b1c      	ldr	r3, [pc, #112]	; (8004eec <VCP_Ctrl+0x15c>)
 8004e7c:	719a      	strb	r2, [r3, #6]
	linecoding.changed = 1;
 8004e7e:	4b1b      	ldr	r3, [pc, #108]	; (8004eec <VCP_Ctrl+0x15c>)
 8004e80:	2201      	movs	r2, #1
 8004e82:	71da      	strb	r2, [r3, #7]
  
    //VCP_COMConfig(OTHER_CONFIG);
    break;
 8004e84:	e02a      	b.n	8004edc <VCP_Ctrl+0x14c>

  case GET_LINE_CODING:
    Buf[0] = (uint8_t)(linecoding.bitrate);
 8004e86:	4b19      	ldr	r3, [pc, #100]	; (8004eec <VCP_Ctrl+0x15c>)
 8004e88:	681b      	ldr	r3, [r3, #0]
 8004e8a:	b2da      	uxtb	r2, r3
 8004e8c:	68bb      	ldr	r3, [r7, #8]
 8004e8e:	701a      	strb	r2, [r3, #0]
    Buf[1] = (uint8_t)(linecoding.bitrate >> 8);
 8004e90:	68bb      	ldr	r3, [r7, #8]
 8004e92:	3301      	adds	r3, #1
 8004e94:	4a15      	ldr	r2, [pc, #84]	; (8004eec <VCP_Ctrl+0x15c>)
 8004e96:	6812      	ldr	r2, [r2, #0]
 8004e98:	0a12      	lsrs	r2, r2, #8
 8004e9a:	b2d2      	uxtb	r2, r2
 8004e9c:	701a      	strb	r2, [r3, #0]
    Buf[2] = (uint8_t)(linecoding.bitrate >> 16);
 8004e9e:	68bb      	ldr	r3, [r7, #8]
 8004ea0:	3302      	adds	r3, #2
 8004ea2:	4a12      	ldr	r2, [pc, #72]	; (8004eec <VCP_Ctrl+0x15c>)
 8004ea4:	6812      	ldr	r2, [r2, #0]
 8004ea6:	0c12      	lsrs	r2, r2, #16
 8004ea8:	b2d2      	uxtb	r2, r2
 8004eaa:	701a      	strb	r2, [r3, #0]
    Buf[3] = (uint8_t)(linecoding.bitrate >> 24);
 8004eac:	68bb      	ldr	r3, [r7, #8]
 8004eae:	3303      	adds	r3, #3
 8004eb0:	4a0e      	ldr	r2, [pc, #56]	; (8004eec <VCP_Ctrl+0x15c>)
 8004eb2:	6812      	ldr	r2, [r2, #0]
 8004eb4:	0e12      	lsrs	r2, r2, #24
 8004eb6:	b2d2      	uxtb	r2, r2
 8004eb8:	701a      	strb	r2, [r3, #0]
    Buf[4] = linecoding.format;
 8004eba:	68bb      	ldr	r3, [r7, #8]
 8004ebc:	3304      	adds	r3, #4
 8004ebe:	4a0b      	ldr	r2, [pc, #44]	; (8004eec <VCP_Ctrl+0x15c>)
 8004ec0:	7912      	ldrb	r2, [r2, #4]
 8004ec2:	701a      	strb	r2, [r3, #0]
    Buf[5] = linecoding.paritytype;
 8004ec4:	68bb      	ldr	r3, [r7, #8]
 8004ec6:	3305      	adds	r3, #5
 8004ec8:	4a08      	ldr	r2, [pc, #32]	; (8004eec <VCP_Ctrl+0x15c>)
 8004eca:	7952      	ldrb	r2, [r2, #5]
 8004ecc:	701a      	strb	r2, [r3, #0]
    Buf[6] = linecoding.datatype; 
 8004ece:	68bb      	ldr	r3, [r7, #8]
 8004ed0:	3306      	adds	r3, #6
 8004ed2:	4a06      	ldr	r2, [pc, #24]	; (8004eec <VCP_Ctrl+0x15c>)
 8004ed4:	7992      	ldrb	r2, [r2, #6]
 8004ed6:	701a      	strb	r2, [r3, #0]
    break;
 8004ed8:	e000      	b.n	8004edc <VCP_Ctrl+0x14c>
  case SEND_BREAK:
    /* Not  needed for this driver */
    break;    
    
  default:
    break;
 8004eda:	bf00      	nop
  }

  return USBD_OK;
 8004edc:	2300      	movs	r3, #0
}
 8004ede:	4618      	mov	r0, r3
 8004ee0:	3714      	adds	r7, #20
 8004ee2:	46bd      	mov	sp, r7
 8004ee4:	f85d 7b04 	ldr.w	r7, [sp], #4
 8004ee8:	4770      	bx	lr
 8004eea:	bf00      	nop
 8004eec:	20007d84 	.word	0x20007d84

08004ef0 <VCP_DataTx>:
  *         this function.
  * @param  Buf: Buffer of data to be sent
  * @param  Len: Number of data to be sent (in bytes)
  * @retval Result of the opeartion: USBD_OK if all operations are OK else VCP_FAIL
  */
uint16_t VCP_DataTx (uint8_t* Buf, uint32_t Len) {
 8004ef0:	b480      	push	{r7}
 8004ef2:	b085      	sub	sp, #20
 8004ef4:	af00      	add	r7, sp, #0
 8004ef6:	6078      	str	r0, [r7, #4]
 8004ef8:	6039      	str	r1, [r7, #0]
	uint32_t tx_counter = 0;
 8004efa:	2300      	movs	r3, #0
 8004efc:	60fb      	str	r3, [r7, #12]
	
	while (tx_counter < Len) {
 8004efe:	e017      	b.n	8004f30 <VCP_DataTx+0x40>
		APP_Rx_Buffer[APP_Rx_ptr_in] = *(Buf+tx_counter);
 8004f00:	4b11      	ldr	r3, [pc, #68]	; (8004f48 <VCP_DataTx+0x58>)
 8004f02:	681b      	ldr	r3, [r3, #0]
 8004f04:	6879      	ldr	r1, [r7, #4]
 8004f06:	68fa      	ldr	r2, [r7, #12]
 8004f08:	440a      	add	r2, r1
 8004f0a:	7811      	ldrb	r1, [r2, #0]
 8004f0c:	4a0f      	ldr	r2, [pc, #60]	; (8004f4c <VCP_DataTx+0x5c>)
 8004f0e:	54d1      	strb	r1, [r2, r3]
		
		APP_Rx_ptr_in++;
 8004f10:	4b0d      	ldr	r3, [pc, #52]	; (8004f48 <VCP_DataTx+0x58>)
 8004f12:	681b      	ldr	r3, [r3, #0]
 8004f14:	3301      	adds	r3, #1
 8004f16:	4a0c      	ldr	r2, [pc, #48]	; (8004f48 <VCP_DataTx+0x58>)
 8004f18:	6013      	str	r3, [r2, #0]
		
		/* To avoid buffer overflow */
		if (APP_Rx_ptr_in >= APP_RX_DATA_SIZE) {
 8004f1a:	4b0b      	ldr	r3, [pc, #44]	; (8004f48 <VCP_DataTx+0x58>)
 8004f1c:	681b      	ldr	r3, [r3, #0]
 8004f1e:	f5b3 6f00 	cmp.w	r3, #2048	; 0x800
 8004f22:	d302      	bcc.n	8004f2a <VCP_DataTx+0x3a>
			APP_Rx_ptr_in = 0;
 8004f24:	4b08      	ldr	r3, [pc, #32]	; (8004f48 <VCP_DataTx+0x58>)
 8004f26:	2200      	movs	r2, #0
 8004f28:	601a      	str	r2, [r3, #0]
		}
		
		tx_counter++;
 8004f2a:	68fb      	ldr	r3, [r7, #12]
 8004f2c:	3301      	adds	r3, #1
 8004f2e:	60fb      	str	r3, [r7, #12]
	while (tx_counter < Len) {
 8004f30:	68fa      	ldr	r2, [r7, #12]
 8004f32:	683b      	ldr	r3, [r7, #0]
 8004f34:	429a      	cmp	r2, r3
 8004f36:	d3e3      	bcc.n	8004f00 <VCP_DataTx+0x10>
	}
	
	return USBD_OK;
 8004f38:	2300      	movs	r3, #0
}
 8004f3a:	4618      	mov	r0, r3
 8004f3c:	3714      	adds	r7, #20
 8004f3e:	46bd      	mov	sp, r7
 8004f40:	f85d 7b04 	ldr.w	r7, [sp], #4
 8004f44:	4770      	bx	lr
 8004f46:	bf00      	nop
 8004f48:	20007e8c 	.word	0x20007e8c
 8004f4c:	200085c8 	.word	0x200085c8

08004f50 <VCP_DataRx>:
  *                 
  * @param  Buf: Buffer of data to be received
  * @param  Len: Number of data received (in bytes)
  * @retval Result of the opeartion: USBD_OK if all operations are OK else VCP_FAIL
  */
uint16_t VCP_DataRx (uint8_t* Buf, uint32_t Len) {
 8004f50:	b580      	push	{r7, lr}
 8004f52:	b084      	sub	sp, #16
 8004f54:	af00      	add	r7, sp, #0
 8004f56:	6078      	str	r0, [r7, #4]
 8004f58:	6039      	str	r1, [r7, #0]
	uint32_t i;
	for (i = 0; i < Len; i++) {
 8004f5a:	2300      	movs	r3, #0
 8004f5c:	60fb      	str	r3, [r7, #12]
 8004f5e:	e009      	b.n	8004f74 <VCP_DataRx+0x24>
		/* Add data to internal buffer */
		TM_INT_USB_VCP_AddReceived(*(Buf + i));
 8004f60:	687a      	ldr	r2, [r7, #4]
 8004f62:	68fb      	ldr	r3, [r7, #12]
 8004f64:	4413      	add	r3, r2
 8004f66:	781b      	ldrb	r3, [r3, #0]
 8004f68:	4618      	mov	r0, r3
 8004f6a:	f7fd fbe7 	bl	800273c <TM_INT_USB_VCP_AddReceived>
	for (i = 0; i < Len; i++) {
 8004f6e:	68fb      	ldr	r3, [r7, #12]
 8004f70:	3301      	adds	r3, #1
 8004f72:	60fb      	str	r3, [r7, #12]
 8004f74:	68fa      	ldr	r2, [r7, #12]
 8004f76:	683b      	ldr	r3, [r7, #0]
 8004f78:	429a      	cmp	r2, r3
 8004f7a:	d3f1      	bcc.n	8004f60 <VCP_DataRx+0x10>
	}
	
	return USBD_OK;
 8004f7c:	2300      	movs	r3, #0
}
 8004f7e:	4618      	mov	r0, r3
 8004f80:	3710      	adds	r7, #16
 8004f82:	46bd      	mov	sp, r7
 8004f84:	bd80      	pop	{r7, pc}

08004f86 <USBD_Init>:
void USBD_Init(USB_OTG_CORE_HANDLE *pdev,
               USB_OTG_CORE_ID_TypeDef coreID,
               USBD_DEVICE *pDevice,                  
               USBD_Class_cb_TypeDef *class_cb, 
               USBD_Usr_cb_TypeDef *usr_cb)
{
 8004f86:	b580      	push	{r7, lr}
 8004f88:	b084      	sub	sp, #16
 8004f8a:	af00      	add	r7, sp, #0
 8004f8c:	60f8      	str	r0, [r7, #12]
 8004f8e:	607a      	str	r2, [r7, #4]
 8004f90:	603b      	str	r3, [r7, #0]
 8004f92:	460b      	mov	r3, r1
 8004f94:	72fb      	strb	r3, [r7, #11]
  /* Hardware Init */
  USB_OTG_BSP_Init(pdev);  
 8004f96:	68f8      	ldr	r0, [r7, #12]
 8004f98:	f7fd fbfe 	bl	8002798 <USB_OTG_BSP_Init>
  
  USBD_DeInit(pdev);
 8004f9c:	68f8      	ldr	r0, [r7, #12]
 8004f9e:	f000 f81d 	bl	8004fdc <USBD_DeInit>
  
  /*Register class and user callbacks */
  pdev->dev.class_cb = class_cb;
 8004fa2:	68fb      	ldr	r3, [r7, #12]
 8004fa4:	683a      	ldr	r2, [r7, #0]
 8004fa6:	f8c3 25e4 	str.w	r2, [r3, #1508]	; 0x5e4
  pdev->dev.usr_cb = usr_cb;  
 8004faa:	68fb      	ldr	r3, [r7, #12]
 8004fac:	69ba      	ldr	r2, [r7, #24]
 8004fae:	f8c3 25e8 	str.w	r2, [r3, #1512]	; 0x5e8
  pdev->dev.usr_device = pDevice;    
 8004fb2:	68fb      	ldr	r3, [r7, #12]
 8004fb4:	687a      	ldr	r2, [r7, #4]
 8004fb6:	f8c3 25ec 	str.w	r2, [r3, #1516]	; 0x5ec
  
  /* set USB OTG core params */
  DCD_Init(pdev , coreID);
 8004fba:	7afb      	ldrb	r3, [r7, #11]
 8004fbc:	4619      	mov	r1, r3
 8004fbe:	68f8      	ldr	r0, [r7, #12]
 8004fc0:	f7fe fda5 	bl	8003b0e <DCD_Init>
  
  /* Upon Init call usr callback */
  pdev->dev.usr_cb->Init();
 8004fc4:	68fb      	ldr	r3, [r7, #12]
 8004fc6:	f8d3 35e8 	ldr.w	r3, [r3, #1512]	; 0x5e8
 8004fca:	681b      	ldr	r3, [r3, #0]
 8004fcc:	4798      	blx	r3
  
  /* Enable Interrupts */
  USB_OTG_BSP_EnableInterrupt(pdev);
 8004fce:	68f8      	ldr	r0, [r7, #12]
 8004fd0:	f7fd fc3a 	bl	8002848 <USB_OTG_BSP_EnableInterrupt>
}
 8004fd4:	bf00      	nop
 8004fd6:	3710      	adds	r7, #16
 8004fd8:	46bd      	mov	sp, r7
 8004fda:	bd80      	pop	{r7, pc}

08004fdc <USBD_DeInit>:
*         Re-Initialize th device library
* @param  pdev: device instance
* @retval status: status
*/
USBD_Status USBD_DeInit(USB_OTG_CORE_HANDLE *pdev)
{
 8004fdc:	b480      	push	{r7}
 8004fde:	b083      	sub	sp, #12
 8004fe0:	af00      	add	r7, sp, #0
 8004fe2:	6078      	str	r0, [r7, #4]
  /* Software Init */
  
  return USBD_OK;
 8004fe4:	2300      	movs	r3, #0
}
 8004fe6:	4618      	mov	r0, r3
 8004fe8:	370c      	adds	r7, #12
 8004fea:	46bd      	mov	sp, r7
 8004fec:	f85d 7b04 	ldr.w	r7, [sp], #4
 8004ff0:	4770      	bx	lr

08004ff2 <USBD_SetupStage>:
*         Handle the setup stage
* @param  pdev: device instance
* @retval status
*/
static uint8_t USBD_SetupStage(USB_OTG_CORE_HANDLE *pdev)
{
 8004ff2:	b580      	push	{r7, lr}
 8004ff4:	b084      	sub	sp, #16
 8004ff6:	af00      	add	r7, sp, #0
 8004ff8:	6078      	str	r0, [r7, #4]
  USB_SETUP_REQ req;
  
  USBD_ParseSetupRequest(pdev , &req);
 8004ffa:	f107 0308 	add.w	r3, r7, #8
 8004ffe:	4619      	mov	r1, r3
 8005000:	6878      	ldr	r0, [r7, #4]
 8005002:	f000 fed7 	bl	8005db4 <USBD_ParseSetupRequest>
  
  switch (req.bmRequest & 0x1F) 
 8005006:	7a3b      	ldrb	r3, [r7, #8]
 8005008:	f003 031f 	and.w	r3, r3, #31
 800500c:	2b01      	cmp	r3, #1
 800500e:	d00a      	beq.n	8005026 <USBD_SetupStage+0x34>
 8005010:	2b02      	cmp	r3, #2
 8005012:	d00f      	beq.n	8005034 <USBD_SetupStage+0x42>
 8005014:	2b00      	cmp	r3, #0
 8005016:	d114      	bne.n	8005042 <USBD_SetupStage+0x50>
  {
  case USB_REQ_RECIPIENT_DEVICE:   
    USBD_StdDevReq (pdev, &req);
 8005018:	f107 0308 	add.w	r3, r7, #8
 800501c:	4619      	mov	r1, r3
 800501e:	6878      	ldr	r0, [r7, #4]
 8005020:	f000 faf2 	bl	8005608 <USBD_StdDevReq>
    break;
 8005024:	e016      	b.n	8005054 <USBD_SetupStage+0x62>
    
  case USB_REQ_RECIPIENT_INTERFACE:     
    USBD_StdItfReq(pdev, &req);
 8005026:	f107 0308 	add.w	r3, r7, #8
 800502a:	4619      	mov	r1, r3
 800502c:	6878      	ldr	r0, [r7, #4]
 800502e:	f000 fb3b 	bl	80056a8 <USBD_StdItfReq>
    break;
 8005032:	e00f      	b.n	8005054 <USBD_SetupStage+0x62>
    
  case USB_REQ_RECIPIENT_ENDPOINT:        
    USBD_StdEPReq(pdev, &req);   
 8005034:	f107 0308 	add.w	r3, r7, #8
 8005038:	4619      	mov	r1, r3
 800503a:	6878      	ldr	r0, [r7, #4]
 800503c:	f000 fb68 	bl	8005710 <USBD_StdEPReq>
    break;
 8005040:	e008      	b.n	8005054 <USBD_SetupStage+0x62>
    
  default:           
    DCD_EP_Stall(pdev , req.bmRequest & 0x80);
 8005042:	7a3b      	ldrb	r3, [r7, #8]
 8005044:	f023 037f 	bic.w	r3, r3, #127	; 0x7f
 8005048:	b2db      	uxtb	r3, r3
 800504a:	4619      	mov	r1, r3
 800504c:	6878      	ldr	r0, [r7, #4]
 800504e:	f7fe fef3 	bl	8003e38 <DCD_EP_Stall>
    break;
 8005052:	bf00      	nop
  }  
  return USBD_OK;
 8005054:	2300      	movs	r3, #0
}
 8005056:	4618      	mov	r0, r3
 8005058:	3710      	adds	r7, #16
 800505a:	46bd      	mov	sp, r7
 800505c:	bd80      	pop	{r7, pc}

0800505e <USBD_DataOutStage>:
* @param  pdev: device instance
* @param  epnum: endpoint index
* @retval status
*/
static uint8_t USBD_DataOutStage(USB_OTG_CORE_HANDLE *pdev , uint8_t epnum)
{
 800505e:	b580      	push	{r7, lr}
 8005060:	b084      	sub	sp, #16
 8005062:	af00      	add	r7, sp, #0
 8005064:	6078      	str	r0, [r7, #4]
 8005066:	460b      	mov	r3, r1
 8005068:	70fb      	strb	r3, [r7, #3]
  USB_OTG_EP *ep;
  
  if(epnum == 0) 
 800506a:	78fb      	ldrb	r3, [r7, #3]
 800506c:	2b00      	cmp	r3, #0
 800506e:	d144      	bne.n	80050fa <USBD_DataOutStage+0x9c>
  {
    ep = &pdev->dev.out_ep[0];
 8005070:	687b      	ldr	r3, [r7, #4]
 8005072:	f503 735d 	add.w	r3, r3, #884	; 0x374
 8005076:	60fb      	str	r3, [r7, #12]
    if ( pdev->dev.device_state == USB_OTG_EP0_DATA_OUT)
 8005078:	687b      	ldr	r3, [r7, #4]
 800507a:	f893 3111 	ldrb.w	r3, [r3, #273]	; 0x111
 800507e:	2b03      	cmp	r3, #3
 8005080:	d14e      	bne.n	8005120 <USBD_DataOutStage+0xc2>
    {
      if(ep->rem_data_len > ep->maxpacket)
 8005082:	68fb      	ldr	r3, [r7, #12]
 8005084:	69da      	ldr	r2, [r3, #28]
 8005086:	68fb      	ldr	r3, [r7, #12]
 8005088:	689b      	ldr	r3, [r3, #8]
 800508a:	429a      	cmp	r2, r3
 800508c:	d920      	bls.n	80050d0 <USBD_DataOutStage+0x72>
      {
        ep->rem_data_len -=  ep->maxpacket;
 800508e:	68fb      	ldr	r3, [r7, #12]
 8005090:	69da      	ldr	r2, [r3, #28]
 8005092:	68fb      	ldr	r3, [r7, #12]
 8005094:	689b      	ldr	r3, [r3, #8]
 8005096:	1ad2      	subs	r2, r2, r3
 8005098:	68fb      	ldr	r3, [r7, #12]
 800509a:	61da      	str	r2, [r3, #28]
        
        if(pdev->cfg.dma_enable == 1)
 800509c:	687b      	ldr	r3, [r7, #4]
 800509e:	78db      	ldrb	r3, [r3, #3]
 80050a0:	2b01      	cmp	r3, #1
 80050a2:	d106      	bne.n	80050b2 <USBD_DataOutStage+0x54>
        {
          /* in slave mode this, is handled by the RxSTSQLvl ISR */
          ep->xfer_buff += ep->maxpacket; 
 80050a4:	68fb      	ldr	r3, [r7, #12]
 80050a6:	68da      	ldr	r2, [r3, #12]
 80050a8:	68fb      	ldr	r3, [r7, #12]
 80050aa:	689b      	ldr	r3, [r3, #8]
 80050ac:	441a      	add	r2, r3
 80050ae:	68fb      	ldr	r3, [r7, #12]
 80050b0:	60da      	str	r2, [r3, #12]
        }        
        USBD_CtlContinueRx (pdev, 
 80050b2:	68fb      	ldr	r3, [r7, #12]
 80050b4:	68d9      	ldr	r1, [r3, #12]
                            ep->xfer_buff,
                            MIN(ep->rem_data_len ,ep->maxpacket));
 80050b6:	68fb      	ldr	r3, [r7, #12]
 80050b8:	689a      	ldr	r2, [r3, #8]
 80050ba:	68fb      	ldr	r3, [r7, #12]
 80050bc:	69db      	ldr	r3, [r3, #28]
 80050be:	4293      	cmp	r3, r2
 80050c0:	bf28      	it	cs
 80050c2:	4613      	movcs	r3, r2
        USBD_CtlContinueRx (pdev, 
 80050c4:	b29b      	uxth	r3, r3
 80050c6:	461a      	mov	r2, r3
 80050c8:	6878      	ldr	r0, [r7, #4]
 80050ca:	f000 fa59 	bl	8005580 <USBD_CtlContinueRx>
 80050ce:	e027      	b.n	8005120 <USBD_DataOutStage+0xc2>
      }
      else
      {
        if((pdev->dev.class_cb->EP0_RxReady != NULL)&&
 80050d0:	687b      	ldr	r3, [r7, #4]
 80050d2:	f8d3 35e4 	ldr.w	r3, [r3, #1508]	; 0x5e4
 80050d6:	691b      	ldr	r3, [r3, #16]
 80050d8:	2b00      	cmp	r3, #0
 80050da:	d00a      	beq.n	80050f2 <USBD_DataOutStage+0x94>
           (pdev->dev.device_status == USB_OTG_CONFIGURED))
 80050dc:	687b      	ldr	r3, [r7, #4]
 80050de:	f893 3112 	ldrb.w	r3, [r3, #274]	; 0x112
        if((pdev->dev.class_cb->EP0_RxReady != NULL)&&
 80050e2:	2b03      	cmp	r3, #3
 80050e4:	d105      	bne.n	80050f2 <USBD_DataOutStage+0x94>
        {
          pdev->dev.class_cb->EP0_RxReady(pdev); 
 80050e6:	687b      	ldr	r3, [r7, #4]
 80050e8:	f8d3 35e4 	ldr.w	r3, [r3, #1508]	; 0x5e4
 80050ec:	691b      	ldr	r3, [r3, #16]
 80050ee:	6878      	ldr	r0, [r7, #4]
 80050f0:	4798      	blx	r3
        }
        USBD_CtlSendStatus(pdev);
 80050f2:	6878      	ldr	r0, [r7, #4]
 80050f4:	f000 fa58 	bl	80055a8 <USBD_CtlSendStatus>
 80050f8:	e012      	b.n	8005120 <USBD_DataOutStage+0xc2>
      }
    }
  }
  else if((pdev->dev.class_cb->DataOut != NULL)&&
 80050fa:	687b      	ldr	r3, [r7, #4]
 80050fc:	f8d3 35e4 	ldr.w	r3, [r3, #1508]	; 0x5e4
 8005100:	699b      	ldr	r3, [r3, #24]
 8005102:	2b00      	cmp	r3, #0
 8005104:	d00c      	beq.n	8005120 <USBD_DataOutStage+0xc2>
          (pdev->dev.device_status == USB_OTG_CONFIGURED))
 8005106:	687b      	ldr	r3, [r7, #4]
 8005108:	f893 3112 	ldrb.w	r3, [r3, #274]	; 0x112
  else if((pdev->dev.class_cb->DataOut != NULL)&&
 800510c:	2b03      	cmp	r3, #3
 800510e:	d107      	bne.n	8005120 <USBD_DataOutStage+0xc2>
  {
    pdev->dev.class_cb->DataOut(pdev, epnum); 
 8005110:	687b      	ldr	r3, [r7, #4]
 8005112:	f8d3 35e4 	ldr.w	r3, [r3, #1508]	; 0x5e4
 8005116:	699b      	ldr	r3, [r3, #24]
 8005118:	78fa      	ldrb	r2, [r7, #3]
 800511a:	4611      	mov	r1, r2
 800511c:	6878      	ldr	r0, [r7, #4]
 800511e:	4798      	blx	r3
  }  
  return USBD_OK;
 8005120:	2300      	movs	r3, #0
}
 8005122:	4618      	mov	r0, r3
 8005124:	3710      	adds	r7, #16
 8005126:	46bd      	mov	sp, r7
 8005128:	bd80      	pop	{r7, pc}

0800512a <USBD_DataInStage>:
* @param  pdev: device instance
* @param  epnum: endpoint index
* @retval status
*/
static uint8_t USBD_DataInStage(USB_OTG_CORE_HANDLE *pdev , uint8_t epnum)
{
 800512a:	b580      	push	{r7, lr}
 800512c:	b084      	sub	sp, #16
 800512e:	af00      	add	r7, sp, #0
 8005130:	6078      	str	r0, [r7, #4]
 8005132:	460b      	mov	r3, r1
 8005134:	70fb      	strb	r3, [r7, #3]
  USB_OTG_EP *ep;
  
  if(epnum == 0) 
 8005136:	78fb      	ldrb	r3, [r7, #3]
 8005138:	2b00      	cmp	r3, #0
 800513a:	d16b      	bne.n	8005214 <USBD_DataInStage+0xea>
  {
    ep = &pdev->dev.in_ep[0];
 800513c:	687b      	ldr	r3, [r7, #4]
 800513e:	f503 738e 	add.w	r3, r3, #284	; 0x11c
 8005142:	60fb      	str	r3, [r7, #12]
    if ( pdev->dev.device_state == USB_OTG_EP0_DATA_IN)
 8005144:	687b      	ldr	r3, [r7, #4]
 8005146:	f893 3111 	ldrb.w	r3, [r3, #273]	; 0x111
 800514a:	2b02      	cmp	r3, #2
 800514c:	d155      	bne.n	80051fa <USBD_DataInStage+0xd0>
    {
      if(ep->rem_data_len > ep->maxpacket)
 800514e:	68fb      	ldr	r3, [r7, #12]
 8005150:	69da      	ldr	r2, [r3, #28]
 8005152:	68fb      	ldr	r3, [r7, #12]
 8005154:	689b      	ldr	r3, [r3, #8]
 8005156:	429a      	cmp	r2, r3
 8005158:	d91b      	bls.n	8005192 <USBD_DataInStage+0x68>
      {
        ep->rem_data_len -=  ep->maxpacket;
 800515a:	68fb      	ldr	r3, [r7, #12]
 800515c:	69da      	ldr	r2, [r3, #28]
 800515e:	68fb      	ldr	r3, [r7, #12]
 8005160:	689b      	ldr	r3, [r3, #8]
 8005162:	1ad2      	subs	r2, r2, r3
 8005164:	68fb      	ldr	r3, [r7, #12]
 8005166:	61da      	str	r2, [r3, #28]
        if(pdev->cfg.dma_enable == 1)
 8005168:	687b      	ldr	r3, [r7, #4]
 800516a:	78db      	ldrb	r3, [r3, #3]
 800516c:	2b01      	cmp	r3, #1
 800516e:	d106      	bne.n	800517e <USBD_DataInStage+0x54>
        {
          /* in slave mode this, is handled by the TxFifoEmpty ISR */
          ep->xfer_buff += ep->maxpacket;
 8005170:	68fb      	ldr	r3, [r7, #12]
 8005172:	68da      	ldr	r2, [r3, #12]
 8005174:	68fb      	ldr	r3, [r7, #12]
 8005176:	689b      	ldr	r3, [r3, #8]
 8005178:	441a      	add	r2, r3
 800517a:	68fb      	ldr	r3, [r7, #12]
 800517c:	60da      	str	r2, [r3, #12]
        }
        USBD_CtlContinueSendData (pdev, 
 800517e:	68fb      	ldr	r3, [r7, #12]
 8005180:	68d9      	ldr	r1, [r3, #12]
                                  ep->xfer_buff, 
                                  ep->rem_data_len);
 8005182:	68fb      	ldr	r3, [r7, #12]
 8005184:	69db      	ldr	r3, [r3, #28]
        USBD_CtlContinueSendData (pdev, 
 8005186:	b29b      	uxth	r3, r3
 8005188:	461a      	mov	r2, r3
 800518a:	6878      	ldr	r0, [r7, #4]
 800518c:	f000 f9c4 	bl	8005518 <USBD_CtlContinueSendData>
 8005190:	e033      	b.n	80051fa <USBD_DataInStage+0xd0>
      }
      else
      { /* last packet is MPS multiple, so send ZLP packet */
        if((ep->total_data_len % ep->maxpacket == 0) &&
 8005192:	68fb      	ldr	r3, [r7, #12]
 8005194:	6a1b      	ldr	r3, [r3, #32]
 8005196:	68fa      	ldr	r2, [r7, #12]
 8005198:	6892      	ldr	r2, [r2, #8]
 800519a:	fbb3 f1f2 	udiv	r1, r3, r2
 800519e:	fb02 f201 	mul.w	r2, r2, r1
 80051a2:	1a9b      	subs	r3, r3, r2
 80051a4:	2b00      	cmp	r3, #0
 80051a6:	d114      	bne.n	80051d2 <USBD_DataInStage+0xa8>
           (ep->total_data_len >= ep->maxpacket) &&
 80051a8:	68fb      	ldr	r3, [r7, #12]
 80051aa:	6a1a      	ldr	r2, [r3, #32]
 80051ac:	68fb      	ldr	r3, [r7, #12]
 80051ae:	689b      	ldr	r3, [r3, #8]
        if((ep->total_data_len % ep->maxpacket == 0) &&
 80051b0:	429a      	cmp	r2, r3
 80051b2:	d30e      	bcc.n	80051d2 <USBD_DataInStage+0xa8>
             (ep->total_data_len < ep->ctl_data_len ))
 80051b4:	68fb      	ldr	r3, [r7, #12]
 80051b6:	6a1a      	ldr	r2, [r3, #32]
 80051b8:	68fb      	ldr	r3, [r7, #12]
 80051ba:	6a5b      	ldr	r3, [r3, #36]	; 0x24
           (ep->total_data_len >= ep->maxpacket) &&
 80051bc:	429a      	cmp	r2, r3
 80051be:	d208      	bcs.n	80051d2 <USBD_DataInStage+0xa8>
        {
          
          USBD_CtlContinueSendData(pdev , NULL, 0);
 80051c0:	2200      	movs	r2, #0
 80051c2:	2100      	movs	r1, #0
 80051c4:	6878      	ldr	r0, [r7, #4]
 80051c6:	f000 f9a7 	bl	8005518 <USBD_CtlContinueSendData>
          ep->ctl_data_len = 0;
 80051ca:	68fb      	ldr	r3, [r7, #12]
 80051cc:	2200      	movs	r2, #0
 80051ce:	625a      	str	r2, [r3, #36]	; 0x24
 80051d0:	e013      	b.n	80051fa <USBD_DataInStage+0xd0>
        }
        else
        {
          if((pdev->dev.class_cb->EP0_TxSent != NULL)&&
 80051d2:	687b      	ldr	r3, [r7, #4]
 80051d4:	f8d3 35e4 	ldr.w	r3, [r3, #1508]	; 0x5e4
 80051d8:	68db      	ldr	r3, [r3, #12]
 80051da:	2b00      	cmp	r3, #0
 80051dc:	d00a      	beq.n	80051f4 <USBD_DataInStage+0xca>
             (pdev->dev.device_status == USB_OTG_CONFIGURED))
 80051de:	687b      	ldr	r3, [r7, #4]
 80051e0:	f893 3112 	ldrb.w	r3, [r3, #274]	; 0x112
          if((pdev->dev.class_cb->EP0_TxSent != NULL)&&
 80051e4:	2b03      	cmp	r3, #3
 80051e6:	d105      	bne.n	80051f4 <USBD_DataInStage+0xca>
          {
            pdev->dev.class_cb->EP0_TxSent(pdev); 
 80051e8:	687b      	ldr	r3, [r7, #4]
 80051ea:	f8d3 35e4 	ldr.w	r3, [r3, #1508]	; 0x5e4
 80051ee:	68db      	ldr	r3, [r3, #12]
 80051f0:	6878      	ldr	r0, [r7, #4]
 80051f2:	4798      	blx	r3
          }          
          USBD_CtlReceiveStatus(pdev);
 80051f4:	6878      	ldr	r0, [r7, #4]
 80051f6:	f000 f9ef 	bl	80055d8 <USBD_CtlReceiveStatus>
        }
      }
    }
    if (pdev->dev.test_mode == 1)
 80051fa:	687b      	ldr	r3, [r7, #4]
 80051fc:	f893 3116 	ldrb.w	r3, [r3, #278]	; 0x116
 8005200:	2b01      	cmp	r3, #1
 8005202:	d11a      	bne.n	800523a <USBD_DataInStage+0x110>
    {
      USBD_RunTestMode(pdev); 
 8005204:	6878      	ldr	r0, [r7, #4]
 8005206:	f000 f81d 	bl	8005244 <USBD_RunTestMode>
      pdev->dev.test_mode = 0;
 800520a:	687b      	ldr	r3, [r7, #4]
 800520c:	2200      	movs	r2, #0
 800520e:	f883 2116 	strb.w	r2, [r3, #278]	; 0x116
 8005212:	e012      	b.n	800523a <USBD_DataInStage+0x110>
    }
  }
  else if((pdev->dev.class_cb->DataIn != NULL)&& 
 8005214:	687b      	ldr	r3, [r7, #4]
 8005216:	f8d3 35e4 	ldr.w	r3, [r3, #1508]	; 0x5e4
 800521a:	695b      	ldr	r3, [r3, #20]
 800521c:	2b00      	cmp	r3, #0
 800521e:	d00c      	beq.n	800523a <USBD_DataInStage+0x110>
          (pdev->dev.device_status == USB_OTG_CONFIGURED))
 8005220:	687b      	ldr	r3, [r7, #4]
 8005222:	f893 3112 	ldrb.w	r3, [r3, #274]	; 0x112
  else if((pdev->dev.class_cb->DataIn != NULL)&& 
 8005226:	2b03      	cmp	r3, #3
 8005228:	d107      	bne.n	800523a <USBD_DataInStage+0x110>
  {
    pdev->dev.class_cb->DataIn(pdev, epnum); 
 800522a:	687b      	ldr	r3, [r7, #4]
 800522c:	f8d3 35e4 	ldr.w	r3, [r3, #1508]	; 0x5e4
 8005230:	695b      	ldr	r3, [r3, #20]
 8005232:	78fa      	ldrb	r2, [r7, #3]
 8005234:	4611      	mov	r1, r2
 8005236:	6878      	ldr	r0, [r7, #4]
 8005238:	4798      	blx	r3
  }  
  return USBD_OK;
 800523a:	2300      	movs	r3, #0
}
 800523c:	4618      	mov	r0, r3
 800523e:	3710      	adds	r7, #16
 8005240:	46bd      	mov	sp, r7
 8005242:	bd80      	pop	{r7, pc}

08005244 <USBD_RunTestMode>:
*         Launch test mode process
* @param  pdev: device instance
* @retval status
*/
static uint8_t  USBD_RunTestMode (USB_OTG_CORE_HANDLE  *pdev) 
{
 8005244:	b480      	push	{r7}
 8005246:	b083      	sub	sp, #12
 8005248:	af00      	add	r7, sp, #0
 800524a:	6078      	str	r0, [r7, #4]
  USB_OTG_WRITE_REG32(&pdev->regs.DREGS->DCTL, SET_TEST_MODE.d32);
 800524c:	687b      	ldr	r3, [r7, #4]
 800524e:	691b      	ldr	r3, [r3, #16]
 8005250:	4a04      	ldr	r2, [pc, #16]	; (8005264 <USBD_RunTestMode+0x20>)
 8005252:	6812      	ldr	r2, [r2, #0]
 8005254:	605a      	str	r2, [r3, #4]
  return USBD_OK;  
 8005256:	2300      	movs	r3, #0
}
 8005258:	4618      	mov	r0, r3
 800525a:	370c      	adds	r7, #12
 800525c:	46bd      	mov	sp, r7
 800525e:	f85d 7b04 	ldr.w	r7, [sp], #4
 8005262:	4770      	bx	lr
 8005264:	20008dc8 	.word	0x20008dc8

08005268 <USBD_Reset>:
* @param  pdev: device instance
* @retval status
*/

static uint8_t USBD_Reset(USB_OTG_CORE_HANDLE  *pdev)
{
 8005268:	b580      	push	{r7, lr}
 800526a:	b082      	sub	sp, #8
 800526c:	af00      	add	r7, sp, #0
 800526e:	6078      	str	r0, [r7, #4]
  /* Open EP0 OUT */
  DCD_EP_Open(pdev,
 8005270:	2300      	movs	r3, #0
 8005272:	2240      	movs	r2, #64	; 0x40
 8005274:	2100      	movs	r1, #0
 8005276:	6878      	ldr	r0, [r7, #4]
 8005278:	f7fe fccc 	bl	8003c14 <DCD_EP_Open>
              0x00,
              USB_OTG_MAX_EP0_SIZE,
              EP_TYPE_CTRL);
  
  /* Open EP0 IN */
  DCD_EP_Open(pdev,
 800527c:	2300      	movs	r3, #0
 800527e:	2240      	movs	r2, #64	; 0x40
 8005280:	2180      	movs	r1, #128	; 0x80
 8005282:	6878      	ldr	r0, [r7, #4]
 8005284:	f7fe fcc6 	bl	8003c14 <DCD_EP_Open>
              0x80,
              USB_OTG_MAX_EP0_SIZE,
              EP_TYPE_CTRL);
  
  /* Upon Reset call usr call back */
  pdev->dev.device_status = USB_OTG_DEFAULT;
 8005288:	687b      	ldr	r3, [r7, #4]
 800528a:	2201      	movs	r2, #1
 800528c:	f883 2112 	strb.w	r2, [r3, #274]	; 0x112
  pdev->dev.usr_cb->DeviceReset(pdev->cfg.speed);
 8005290:	687b      	ldr	r3, [r7, #4]
 8005292:	f8d3 35e8 	ldr.w	r3, [r3, #1512]	; 0x5e8
 8005296:	685b      	ldr	r3, [r3, #4]
 8005298:	687a      	ldr	r2, [r7, #4]
 800529a:	7892      	ldrb	r2, [r2, #2]
 800529c:	4610      	mov	r0, r2
 800529e:	4798      	blx	r3
  
  return USBD_OK;
 80052a0:	2300      	movs	r3, #0
}
 80052a2:	4618      	mov	r0, r3
 80052a4:	3708      	adds	r7, #8
 80052a6:	46bd      	mov	sp, r7
 80052a8:	bd80      	pop	{r7, pc}

080052aa <USBD_Resume>:
* @param  pdev: device instance
* @retval status
*/

static uint8_t USBD_Resume(USB_OTG_CORE_HANDLE  *pdev)
{
 80052aa:	b580      	push	{r7, lr}
 80052ac:	b082      	sub	sp, #8
 80052ae:	af00      	add	r7, sp, #0
 80052b0:	6078      	str	r0, [r7, #4]
  /* Upon Resume call usr call back */
  pdev->dev.usr_cb->DeviceResumed(); 
 80052b2:	687b      	ldr	r3, [r7, #4]
 80052b4:	f8d3 35e8 	ldr.w	r3, [r3, #1512]	; 0x5e8
 80052b8:	691b      	ldr	r3, [r3, #16]
 80052ba:	4798      	blx	r3
  pdev->dev.device_status = pdev->dev.device_old_status;  
 80052bc:	687b      	ldr	r3, [r7, #4]
 80052be:	f893 2113 	ldrb.w	r2, [r3, #275]	; 0x113
 80052c2:	687b      	ldr	r3, [r7, #4]
 80052c4:	f883 2112 	strb.w	r2, [r3, #274]	; 0x112
  pdev->dev.device_status = USB_OTG_CONFIGURED;  
 80052c8:	687b      	ldr	r3, [r7, #4]
 80052ca:	2203      	movs	r2, #3
 80052cc:	f883 2112 	strb.w	r2, [r3, #274]	; 0x112
  return USBD_OK;
 80052d0:	2300      	movs	r3, #0
}
 80052d2:	4618      	mov	r0, r3
 80052d4:	3708      	adds	r7, #8
 80052d6:	46bd      	mov	sp, r7
 80052d8:	bd80      	pop	{r7, pc}

080052da <USBD_Suspend>:
* @param  pdev: device instance
* @retval status
*/

static uint8_t USBD_Suspend(USB_OTG_CORE_HANDLE  *pdev)
{
 80052da:	b580      	push	{r7, lr}
 80052dc:	b082      	sub	sp, #8
 80052de:	af00      	add	r7, sp, #0
 80052e0:	6078      	str	r0, [r7, #4]
  pdev->dev.device_old_status = pdev->dev.device_status;
 80052e2:	687b      	ldr	r3, [r7, #4]
 80052e4:	f893 2112 	ldrb.w	r2, [r3, #274]	; 0x112
 80052e8:	687b      	ldr	r3, [r7, #4]
 80052ea:	f883 2113 	strb.w	r2, [r3, #275]	; 0x113
  pdev->dev.device_status  = USB_OTG_SUSPENDED;
 80052ee:	687b      	ldr	r3, [r7, #4]
 80052f0:	2204      	movs	r2, #4
 80052f2:	f883 2112 	strb.w	r2, [r3, #274]	; 0x112
  /* Upon Resume call usr call back */
  pdev->dev.usr_cb->DeviceSuspended(); 
 80052f6:	687b      	ldr	r3, [r7, #4]
 80052f8:	f8d3 35e8 	ldr.w	r3, [r3, #1512]	; 0x5e8
 80052fc:	68db      	ldr	r3, [r3, #12]
 80052fe:	4798      	blx	r3
  return USBD_OK;
 8005300:	2300      	movs	r3, #0
}
 8005302:	4618      	mov	r0, r3
 8005304:	3708      	adds	r7, #8
 8005306:	46bd      	mov	sp, r7
 8005308:	bd80      	pop	{r7, pc}

0800530a <USBD_SOF>:
* @param  pdev: device instance
* @retval status
*/

static uint8_t USBD_SOF(USB_OTG_CORE_HANDLE  *pdev)
{
 800530a:	b580      	push	{r7, lr}
 800530c:	b082      	sub	sp, #8
 800530e:	af00      	add	r7, sp, #0
 8005310:	6078      	str	r0, [r7, #4]
  if(pdev->dev.class_cb->SOF)
 8005312:	687b      	ldr	r3, [r7, #4]
 8005314:	f8d3 35e4 	ldr.w	r3, [r3, #1508]	; 0x5e4
 8005318:	69db      	ldr	r3, [r3, #28]
 800531a:	2b00      	cmp	r3, #0
 800531c:	d005      	beq.n	800532a <USBD_SOF+0x20>
  {
    pdev->dev.class_cb->SOF(pdev); 
 800531e:	687b      	ldr	r3, [r7, #4]
 8005320:	f8d3 35e4 	ldr.w	r3, [r3, #1508]	; 0x5e4
 8005324:	69db      	ldr	r3, [r3, #28]
 8005326:	6878      	ldr	r0, [r7, #4]
 8005328:	4798      	blx	r3
  }
  return USBD_OK;
 800532a:	2300      	movs	r3, #0
}
 800532c:	4618      	mov	r0, r3
 800532e:	3708      	adds	r7, #8
 8005330:	46bd      	mov	sp, r7
 8005332:	bd80      	pop	{r7, pc}

08005334 <USBD_SetCfg>:
* @param  cfgidx: configuration index
* @retval status
*/

USBD_Status USBD_SetCfg(USB_OTG_CORE_HANDLE  *pdev, uint8_t cfgidx)
{
 8005334:	b580      	push	{r7, lr}
 8005336:	b082      	sub	sp, #8
 8005338:	af00      	add	r7, sp, #0
 800533a:	6078      	str	r0, [r7, #4]
 800533c:	460b      	mov	r3, r1
 800533e:	70fb      	strb	r3, [r7, #3]
  pdev->dev.class_cb->Init(pdev, cfgidx); 
 8005340:	687b      	ldr	r3, [r7, #4]
 8005342:	f8d3 35e4 	ldr.w	r3, [r3, #1508]	; 0x5e4
 8005346:	681b      	ldr	r3, [r3, #0]
 8005348:	78fa      	ldrb	r2, [r7, #3]
 800534a:	4611      	mov	r1, r2
 800534c:	6878      	ldr	r0, [r7, #4]
 800534e:	4798      	blx	r3
  
  /* Upon set config call usr call back */
  pdev->dev.usr_cb->DeviceConfigured();
 8005350:	687b      	ldr	r3, [r7, #4]
 8005352:	f8d3 35e8 	ldr.w	r3, [r3, #1512]	; 0x5e8
 8005356:	689b      	ldr	r3, [r3, #8]
 8005358:	4798      	blx	r3
  return USBD_OK; 
 800535a:	2300      	movs	r3, #0
}
 800535c:	4618      	mov	r0, r3
 800535e:	3708      	adds	r7, #8
 8005360:	46bd      	mov	sp, r7
 8005362:	bd80      	pop	{r7, pc}

08005364 <USBD_ClrCfg>:
* @param  pdev: device instance
* @param  cfgidx: configuration index
* @retval status: USBD_Status
*/
USBD_Status USBD_ClrCfg(USB_OTG_CORE_HANDLE  *pdev, uint8_t cfgidx)
{
 8005364:	b580      	push	{r7, lr}
 8005366:	b082      	sub	sp, #8
 8005368:	af00      	add	r7, sp, #0
 800536a:	6078      	str	r0, [r7, #4]
 800536c:	460b      	mov	r3, r1
 800536e:	70fb      	strb	r3, [r7, #3]
  pdev->dev.class_cb->DeInit(pdev, cfgidx);   
 8005370:	687b      	ldr	r3, [r7, #4]
 8005372:	f8d3 35e4 	ldr.w	r3, [r3, #1508]	; 0x5e4
 8005376:	685b      	ldr	r3, [r3, #4]
 8005378:	78fa      	ldrb	r2, [r7, #3]
 800537a:	4611      	mov	r1, r2
 800537c:	6878      	ldr	r0, [r7, #4]
 800537e:	4798      	blx	r3
  return USBD_OK;
 8005380:	2300      	movs	r3, #0
}
 8005382:	4618      	mov	r0, r3
 8005384:	3708      	adds	r7, #8
 8005386:	46bd      	mov	sp, r7
 8005388:	bd80      	pop	{r7, pc}

0800538a <USBD_IsoINIncomplete>:
*         Handle iso in incomplete event
* @param  pdev: device instance
* @retval status
*/
static uint8_t USBD_IsoINIncomplete(USB_OTG_CORE_HANDLE  *pdev)
{
 800538a:	b580      	push	{r7, lr}
 800538c:	b082      	sub	sp, #8
 800538e:	af00      	add	r7, sp, #0
 8005390:	6078      	str	r0, [r7, #4]
  pdev->dev.class_cb->IsoINIncomplete(pdev);   
 8005392:	687b      	ldr	r3, [r7, #4]
 8005394:	f8d3 35e4 	ldr.w	r3, [r3, #1508]	; 0x5e4
 8005398:	6a1b      	ldr	r3, [r3, #32]
 800539a:	6878      	ldr	r0, [r7, #4]
 800539c:	4798      	blx	r3
  return USBD_OK;
 800539e:	2300      	movs	r3, #0
}
 80053a0:	4618      	mov	r0, r3
 80053a2:	3708      	adds	r7, #8
 80053a4:	46bd      	mov	sp, r7
 80053a6:	bd80      	pop	{r7, pc}

080053a8 <USBD_IsoOUTIncomplete>:
*         Handle iso out incomplete event
* @param  pdev: device instance
* @retval status
*/
static uint8_t USBD_IsoOUTIncomplete(USB_OTG_CORE_HANDLE  *pdev)
{
 80053a8:	b580      	push	{r7, lr}
 80053aa:	b082      	sub	sp, #8
 80053ac:	af00      	add	r7, sp, #0
 80053ae:	6078      	str	r0, [r7, #4]
  pdev->dev.class_cb->IsoOUTIncomplete(pdev);   
 80053b0:	687b      	ldr	r3, [r7, #4]
 80053b2:	f8d3 35e4 	ldr.w	r3, [r3, #1508]	; 0x5e4
 80053b6:	6a5b      	ldr	r3, [r3, #36]	; 0x24
 80053b8:	6878      	ldr	r0, [r7, #4]
 80053ba:	4798      	blx	r3
  return USBD_OK;
 80053bc:	2300      	movs	r3, #0
}
 80053be:	4618      	mov	r0, r3
 80053c0:	3708      	adds	r7, #8
 80053c2:	46bd      	mov	sp, r7
 80053c4:	bd80      	pop	{r7, pc}
	...

080053c8 <USBD_USR_DeviceDescriptor>:
* @param  speed : current device speed
* @param  length : pointer to data length variable
* @retval pointer to descriptor buffer
*/
uint8_t *  USBD_USR_DeviceDescriptor( uint8_t speed , uint16_t *length)
{
 80053c8:	b480      	push	{r7}
 80053ca:	b083      	sub	sp, #12
 80053cc:	af00      	add	r7, sp, #0
 80053ce:	4603      	mov	r3, r0
 80053d0:	6039      	str	r1, [r7, #0]
 80053d2:	71fb      	strb	r3, [r7, #7]
  *length = sizeof(USBD_DeviceDesc);
 80053d4:	683b      	ldr	r3, [r7, #0]
 80053d6:	2212      	movs	r2, #18
 80053d8:	801a      	strh	r2, [r3, #0]
  return USBD_DeviceDesc;
 80053da:	4b03      	ldr	r3, [pc, #12]	; (80053e8 <USBD_USR_DeviceDescriptor+0x20>)
}
 80053dc:	4618      	mov	r0, r3
 80053de:	370c      	adds	r7, #12
 80053e0:	46bd      	mov	sp, r7
 80053e2:	f85d 7b04 	ldr.w	r7, [sp], #4
 80053e6:	4770      	bx	lr
 80053e8:	20007dec 	.word	0x20007dec

080053ec <USBD_USR_LangIDStrDescriptor>:
* @param  speed : current device speed
* @param  length : pointer to data length variable
* @retval pointer to descriptor buffer
*/
uint8_t *  USBD_USR_LangIDStrDescriptor( uint8_t speed , uint16_t *length)
{
 80053ec:	b480      	push	{r7}
 80053ee:	b083      	sub	sp, #12
 80053f0:	af00      	add	r7, sp, #0
 80053f2:	4603      	mov	r3, r0
 80053f4:	6039      	str	r1, [r7, #0]
 80053f6:	71fb      	strb	r3, [r7, #7]
  *length =  sizeof(USBD_LangIDDesc);  
 80053f8:	683b      	ldr	r3, [r7, #0]
 80053fa:	2204      	movs	r2, #4
 80053fc:	801a      	strh	r2, [r3, #0]
  return USBD_LangIDDesc;
 80053fe:	4b03      	ldr	r3, [pc, #12]	; (800540c <USBD_USR_LangIDStrDescriptor+0x20>)
}
 8005400:	4618      	mov	r0, r3
 8005402:	370c      	adds	r7, #12
 8005404:	46bd      	mov	sp, r7
 8005406:	f85d 7b04 	ldr.w	r7, [sp], #4
 800540a:	4770      	bx	lr
 800540c:	20007e00 	.word	0x20007e00

08005410 <USBD_USR_ProductStrDescriptor>:
* @param  speed : current device speed
* @param  length : pointer to data length variable
* @retval pointer to descriptor buffer
*/
uint8_t *  USBD_USR_ProductStrDescriptor( uint8_t speed , uint16_t *length)
{
 8005410:	b580      	push	{r7, lr}
 8005412:	b082      	sub	sp, #8
 8005414:	af00      	add	r7, sp, #0
 8005416:	4603      	mov	r3, r0
 8005418:	6039      	str	r1, [r7, #0]
 800541a:	71fb      	strb	r3, [r7, #7]
  USBD_GetString (USBD_PRODUCT_FS_STRING, USBD_StrDesc, length);    
 800541c:	683a      	ldr	r2, [r7, #0]
 800541e:	4904      	ldr	r1, [pc, #16]	; (8005430 <USBD_USR_ProductStrDescriptor+0x20>)
 8005420:	4804      	ldr	r0, [pc, #16]	; (8005434 <USBD_USR_ProductStrDescriptor+0x24>)
 8005422:	f000 fd24 	bl	8005e6e <USBD_GetString>
  return USBD_StrDesc;
 8005426:	4b02      	ldr	r3, [pc, #8]	; (8005430 <USBD_USR_ProductStrDescriptor+0x20>)
}
 8005428:	4618      	mov	r0, r3
 800542a:	3708      	adds	r7, #8
 800542c:	46bd      	mov	sp, r7
 800542e:	bd80      	pop	{r7, pc}
 8005430:	20008dcc 	.word	0x20008dcc
 8005434:	080064f4 	.word	0x080064f4

08005438 <USBD_USR_ManufacturerStrDescriptor>:
* @param  speed : current device speed
* @param  length : pointer to data length variable
* @retval pointer to descriptor buffer
*/
uint8_t *  USBD_USR_ManufacturerStrDescriptor( uint8_t speed , uint16_t *length)
{
 8005438:	b580      	push	{r7, lr}
 800543a:	b082      	sub	sp, #8
 800543c:	af00      	add	r7, sp, #0
 800543e:	4603      	mov	r3, r0
 8005440:	6039      	str	r1, [r7, #0]
 8005442:	71fb      	strb	r3, [r7, #7]
  USBD_GetString (USBD_MANUFACTURER_STRING, USBD_StrDesc, length);
 8005444:	683a      	ldr	r2, [r7, #0]
 8005446:	4904      	ldr	r1, [pc, #16]	; (8005458 <USBD_USR_ManufacturerStrDescriptor+0x20>)
 8005448:	4804      	ldr	r0, [pc, #16]	; (800545c <USBD_USR_ManufacturerStrDescriptor+0x24>)
 800544a:	f000 fd10 	bl	8005e6e <USBD_GetString>
  return USBD_StrDesc;
 800544e:	4b02      	ldr	r3, [pc, #8]	; (8005458 <USBD_USR_ManufacturerStrDescriptor+0x20>)
}
 8005450:	4618      	mov	r0, r3
 8005452:	3708      	adds	r7, #8
 8005454:	46bd      	mov	sp, r7
 8005456:	bd80      	pop	{r7, pc}
 8005458:	20008dcc 	.word	0x20008dcc
 800545c:	08006518 	.word	0x08006518

08005460 <USBD_USR_SerialStrDescriptor>:
* @param  speed : current device speed
* @param  length : pointer to data length variable
* @retval pointer to descriptor buffer
*/
uint8_t *  USBD_USR_SerialStrDescriptor( uint8_t speed , uint16_t *length)
{
 8005460:	b580      	push	{r7, lr}
 8005462:	b082      	sub	sp, #8
 8005464:	af00      	add	r7, sp, #0
 8005466:	4603      	mov	r3, r0
 8005468:	6039      	str	r1, [r7, #0]
 800546a:	71fb      	strb	r3, [r7, #7]
  USBD_GetString (USBD_SERIALNUMBER_FS_STRING, USBD_StrDesc, length);    
 800546c:	683a      	ldr	r2, [r7, #0]
 800546e:	4904      	ldr	r1, [pc, #16]	; (8005480 <USBD_USR_SerialStrDescriptor+0x20>)
 8005470:	4804      	ldr	r0, [pc, #16]	; (8005484 <USBD_USR_SerialStrDescriptor+0x24>)
 8005472:	f000 fcfc 	bl	8005e6e <USBD_GetString>
  return USBD_StrDesc;
 8005476:	4b02      	ldr	r3, [pc, #8]	; (8005480 <USBD_USR_SerialStrDescriptor+0x20>)
}
 8005478:	4618      	mov	r0, r3
 800547a:	3708      	adds	r7, #8
 800547c:	46bd      	mov	sp, r7
 800547e:	bd80      	pop	{r7, pc}
 8005480:	20008dcc 	.word	0x20008dcc
 8005484:	0800652c 	.word	0x0800652c

08005488 <USBD_USR_ConfigStrDescriptor>:
* @param  speed : current device speed
* @param  length : pointer to data length variable
* @retval pointer to descriptor buffer
*/
uint8_t *  USBD_USR_ConfigStrDescriptor( uint8_t speed , uint16_t *length)
{
 8005488:	b580      	push	{r7, lr}
 800548a:	b082      	sub	sp, #8
 800548c:	af00      	add	r7, sp, #0
 800548e:	4603      	mov	r3, r0
 8005490:	6039      	str	r1, [r7, #0]
 8005492:	71fb      	strb	r3, [r7, #7]
  USBD_GetString (USBD_CONFIGURATION_FS_STRING, USBD_StrDesc, length); 
 8005494:	683a      	ldr	r2, [r7, #0]
 8005496:	4904      	ldr	r1, [pc, #16]	; (80054a8 <USBD_USR_ConfigStrDescriptor+0x20>)
 8005498:	4804      	ldr	r0, [pc, #16]	; (80054ac <USBD_USR_ConfigStrDescriptor+0x24>)
 800549a:	f000 fce8 	bl	8005e6e <USBD_GetString>
  return USBD_StrDesc;  
 800549e:	4b02      	ldr	r3, [pc, #8]	; (80054a8 <USBD_USR_ConfigStrDescriptor+0x20>)
}
 80054a0:	4618      	mov	r0, r3
 80054a2:	3708      	adds	r7, #8
 80054a4:	46bd      	mov	sp, r7
 80054a6:	bd80      	pop	{r7, pc}
 80054a8:	20008dcc 	.word	0x20008dcc
 80054ac:	0800653c 	.word	0x0800653c

080054b0 <USBD_USR_InterfaceStrDescriptor>:
* @param  speed : current device speed
* @param  length : pointer to data length variable
* @retval pointer to descriptor buffer
*/
uint8_t *  USBD_USR_InterfaceStrDescriptor( uint8_t speed , uint16_t *length)
{
 80054b0:	b580      	push	{r7, lr}
 80054b2:	b082      	sub	sp, #8
 80054b4:	af00      	add	r7, sp, #0
 80054b6:	4603      	mov	r3, r0
 80054b8:	6039      	str	r1, [r7, #0]
 80054ba:	71fb      	strb	r3, [r7, #7]
  USBD_GetString (USBD_INTERFACE_FS_STRING, USBD_StrDesc, length);
 80054bc:	683a      	ldr	r2, [r7, #0]
 80054be:	4904      	ldr	r1, [pc, #16]	; (80054d0 <USBD_USR_InterfaceStrDescriptor+0x20>)
 80054c0:	4804      	ldr	r0, [pc, #16]	; (80054d4 <USBD_USR_InterfaceStrDescriptor+0x24>)
 80054c2:	f000 fcd4 	bl	8005e6e <USBD_GetString>
  return USBD_StrDesc;  
 80054c6:	4b02      	ldr	r3, [pc, #8]	; (80054d0 <USBD_USR_InterfaceStrDescriptor+0x20>)
}
 80054c8:	4618      	mov	r0, r3
 80054ca:	3708      	adds	r7, #8
 80054cc:	46bd      	mov	sp, r7
 80054ce:	bd80      	pop	{r7, pc}
 80054d0:	20008dcc 	.word	0x20008dcc
 80054d4:	08006548 	.word	0x08006548

080054d8 <USBD_CtlSendData>:
* @retval status
*/
USBD_Status  USBD_CtlSendData (USB_OTG_CORE_HANDLE  *pdev, 
                               uint8_t *pbuf,
                               uint16_t len)
{
 80054d8:	b580      	push	{r7, lr}
 80054da:	b086      	sub	sp, #24
 80054dc:	af00      	add	r7, sp, #0
 80054de:	60f8      	str	r0, [r7, #12]
 80054e0:	60b9      	str	r1, [r7, #8]
 80054e2:	4613      	mov	r3, r2
 80054e4:	80fb      	strh	r3, [r7, #6]
  USBD_Status ret = USBD_OK;
 80054e6:	2300      	movs	r3, #0
 80054e8:	75fb      	strb	r3, [r7, #23]
  
  pdev->dev.in_ep[0].total_data_len = len;
 80054ea:	88fa      	ldrh	r2, [r7, #6]
 80054ec:	68fb      	ldr	r3, [r7, #12]
 80054ee:	f8c3 213c 	str.w	r2, [r3, #316]	; 0x13c
  pdev->dev.in_ep[0].rem_data_len   = len;
 80054f2:	88fa      	ldrh	r2, [r7, #6]
 80054f4:	68fb      	ldr	r3, [r7, #12]
 80054f6:	f8c3 2138 	str.w	r2, [r3, #312]	; 0x138
  pdev->dev.device_state = USB_OTG_EP0_DATA_IN;
 80054fa:	68fb      	ldr	r3, [r7, #12]
 80054fc:	2202      	movs	r2, #2
 80054fe:	f883 2111 	strb.w	r2, [r3, #273]	; 0x111

  DCD_EP_Tx (pdev, 0, pbuf, len);
 8005502:	88fb      	ldrh	r3, [r7, #6]
 8005504:	68ba      	ldr	r2, [r7, #8]
 8005506:	2100      	movs	r1, #0
 8005508:	68f8      	ldr	r0, [r7, #12]
 800550a:	f7fe fc59 	bl	8003dc0 <DCD_EP_Tx>
 
  return ret;
 800550e:	7dfb      	ldrb	r3, [r7, #23]
}
 8005510:	4618      	mov	r0, r3
 8005512:	3718      	adds	r7, #24
 8005514:	46bd      	mov	sp, r7
 8005516:	bd80      	pop	{r7, pc}

08005518 <USBD_CtlContinueSendData>:
* @retval status
*/
USBD_Status  USBD_CtlContinueSendData (USB_OTG_CORE_HANDLE  *pdev, 
                                       uint8_t *pbuf,
                                       uint16_t len)
{
 8005518:	b580      	push	{r7, lr}
 800551a:	b086      	sub	sp, #24
 800551c:	af00      	add	r7, sp, #0
 800551e:	60f8      	str	r0, [r7, #12]
 8005520:	60b9      	str	r1, [r7, #8]
 8005522:	4613      	mov	r3, r2
 8005524:	80fb      	strh	r3, [r7, #6]
  USBD_Status ret = USBD_OK;
 8005526:	2300      	movs	r3, #0
 8005528:	75fb      	strb	r3, [r7, #23]
  
  DCD_EP_Tx (pdev, 0, pbuf, len);
 800552a:	88fb      	ldrh	r3, [r7, #6]
 800552c:	68ba      	ldr	r2, [r7, #8]
 800552e:	2100      	movs	r1, #0
 8005530:	68f8      	ldr	r0, [r7, #12]
 8005532:	f7fe fc45 	bl	8003dc0 <DCD_EP_Tx>
  
  
  return ret;
 8005536:	7dfb      	ldrb	r3, [r7, #23]
}
 8005538:	4618      	mov	r0, r3
 800553a:	3718      	adds	r7, #24
 800553c:	46bd      	mov	sp, r7
 800553e:	bd80      	pop	{r7, pc}

08005540 <USBD_CtlPrepareRx>:
* @retval status
*/
USBD_Status  USBD_CtlPrepareRx (USB_OTG_CORE_HANDLE  *pdev,
                                  uint8_t *pbuf,                                  
                                  uint16_t len)
{
 8005540:	b580      	push	{r7, lr}
 8005542:	b086      	sub	sp, #24
 8005544:	af00      	add	r7, sp, #0
 8005546:	60f8      	str	r0, [r7, #12]
 8005548:	60b9      	str	r1, [r7, #8]
 800554a:	4613      	mov	r3, r2
 800554c:	80fb      	strh	r3, [r7, #6]
  USBD_Status ret = USBD_OK;
 800554e:	2300      	movs	r3, #0
 8005550:	75fb      	strb	r3, [r7, #23]
  
  pdev->dev.out_ep[0].total_data_len = len;
 8005552:	88fa      	ldrh	r2, [r7, #6]
 8005554:	68fb      	ldr	r3, [r7, #12]
 8005556:	f8c3 2394 	str.w	r2, [r3, #916]	; 0x394
  pdev->dev.out_ep[0].rem_data_len   = len;
 800555a:	88fa      	ldrh	r2, [r7, #6]
 800555c:	68fb      	ldr	r3, [r7, #12]
 800555e:	f8c3 2390 	str.w	r2, [r3, #912]	; 0x390
  pdev->dev.device_state = USB_OTG_EP0_DATA_OUT;
 8005562:	68fb      	ldr	r3, [r7, #12]
 8005564:	2203      	movs	r2, #3
 8005566:	f883 2111 	strb.w	r2, [r3, #273]	; 0x111
  
  DCD_EP_PrepareRx (pdev,
 800556a:	88fb      	ldrh	r3, [r7, #6]
 800556c:	68ba      	ldr	r2, [r7, #8]
 800556e:	2100      	movs	r1, #0
 8005570:	68f8      	ldr	r0, [r7, #12]
 8005572:	f7fe fbe3 	bl	8003d3c <DCD_EP_PrepareRx>
                    0,
                    pbuf,
                    len);
  

  return ret;
 8005576:	7dfb      	ldrb	r3, [r7, #23]
}
 8005578:	4618      	mov	r0, r3
 800557a:	3718      	adds	r7, #24
 800557c:	46bd      	mov	sp, r7
 800557e:	bd80      	pop	{r7, pc}

08005580 <USBD_CtlContinueRx>:
* @retval status
*/
USBD_Status  USBD_CtlContinueRx (USB_OTG_CORE_HANDLE  *pdev, 
                                          uint8_t *pbuf,                                          
                                          uint16_t len)
{
 8005580:	b580      	push	{r7, lr}
 8005582:	b086      	sub	sp, #24
 8005584:	af00      	add	r7, sp, #0
 8005586:	60f8      	str	r0, [r7, #12]
 8005588:	60b9      	str	r1, [r7, #8]
 800558a:	4613      	mov	r3, r2
 800558c:	80fb      	strh	r3, [r7, #6]
  USBD_Status ret = USBD_OK;
 800558e:	2300      	movs	r3, #0
 8005590:	75fb      	strb	r3, [r7, #23]
  
  DCD_EP_PrepareRx (pdev,
 8005592:	88fb      	ldrh	r3, [r7, #6]
 8005594:	68ba      	ldr	r2, [r7, #8]
 8005596:	2100      	movs	r1, #0
 8005598:	68f8      	ldr	r0, [r7, #12]
 800559a:	f7fe fbcf 	bl	8003d3c <DCD_EP_PrepareRx>
                    0,                     
                    pbuf,                         
                    len);
  return ret;
 800559e:	7dfb      	ldrb	r3, [r7, #23]
}
 80055a0:	4618      	mov	r0, r3
 80055a2:	3718      	adds	r7, #24
 80055a4:	46bd      	mov	sp, r7
 80055a6:	bd80      	pop	{r7, pc}

080055a8 <USBD_CtlSendStatus>:
*         send zero lzngth packet on the ctl pipe
* @param  pdev: USB OTG device instance
* @retval status
*/
USBD_Status  USBD_CtlSendStatus (USB_OTG_CORE_HANDLE  *pdev)
{
 80055a8:	b580      	push	{r7, lr}
 80055aa:	b084      	sub	sp, #16
 80055ac:	af00      	add	r7, sp, #0
 80055ae:	6078      	str	r0, [r7, #4]
  USBD_Status ret = USBD_OK;
 80055b0:	2300      	movs	r3, #0
 80055b2:	73fb      	strb	r3, [r7, #15]
  pdev->dev.device_state = USB_OTG_EP0_STATUS_IN;
 80055b4:	687b      	ldr	r3, [r7, #4]
 80055b6:	2204      	movs	r2, #4
 80055b8:	f883 2111 	strb.w	r2, [r3, #273]	; 0x111
  DCD_EP_Tx (pdev,
 80055bc:	2300      	movs	r3, #0
 80055be:	2200      	movs	r2, #0
 80055c0:	2100      	movs	r1, #0
 80055c2:	6878      	ldr	r0, [r7, #4]
 80055c4:	f7fe fbfc 	bl	8003dc0 <DCD_EP_Tx>
             0,
             NULL, 
             0); 
  
  USB_OTG_EP0_OutStart(pdev);  
 80055c8:	6878      	ldr	r0, [r7, #4]
 80055ca:	f7fe fa67 	bl	8003a9c <USB_OTG_EP0_OutStart>
  
  return ret;
 80055ce:	7bfb      	ldrb	r3, [r7, #15]
}
 80055d0:	4618      	mov	r0, r3
 80055d2:	3710      	adds	r7, #16
 80055d4:	46bd      	mov	sp, r7
 80055d6:	bd80      	pop	{r7, pc}

080055d8 <USBD_CtlReceiveStatus>:
*         receive zero lzngth packet on the ctl pipe
* @param  pdev: USB OTG device instance
* @retval status
*/
USBD_Status  USBD_CtlReceiveStatus (USB_OTG_CORE_HANDLE  *pdev)
{
 80055d8:	b580      	push	{r7, lr}
 80055da:	b084      	sub	sp, #16
 80055dc:	af00      	add	r7, sp, #0
 80055de:	6078      	str	r0, [r7, #4]
  USBD_Status ret = USBD_OK;
 80055e0:	2300      	movs	r3, #0
 80055e2:	73fb      	strb	r3, [r7, #15]
  pdev->dev.device_state = USB_OTG_EP0_STATUS_OUT;  
 80055e4:	687b      	ldr	r3, [r7, #4]
 80055e6:	2205      	movs	r2, #5
 80055e8:	f883 2111 	strb.w	r2, [r3, #273]	; 0x111
  DCD_EP_PrepareRx ( pdev,
 80055ec:	2300      	movs	r3, #0
 80055ee:	2200      	movs	r2, #0
 80055f0:	2100      	movs	r1, #0
 80055f2:	6878      	ldr	r0, [r7, #4]
 80055f4:	f7fe fba2 	bl	8003d3c <DCD_EP_PrepareRx>
                    0,
                    NULL,
                    0);  

  USB_OTG_EP0_OutStart(pdev);
 80055f8:	6878      	ldr	r0, [r7, #4]
 80055fa:	f7fe fa4f 	bl	8003a9c <USB_OTG_EP0_OutStart>
  
  return ret;
 80055fe:	7bfb      	ldrb	r3, [r7, #15]
}
 8005600:	4618      	mov	r0, r3
 8005602:	3710      	adds	r7, #16
 8005604:	46bd      	mov	sp, r7
 8005606:	bd80      	pop	{r7, pc}

08005608 <USBD_StdDevReq>:
* @param  pdev: device instance
* @param  req: usb request
* @retval status
*/
USBD_Status  USBD_StdDevReq (USB_OTG_CORE_HANDLE  *pdev, USB_SETUP_REQ  *req)
{
 8005608:	b580      	push	{r7, lr}
 800560a:	b084      	sub	sp, #16
 800560c:	af00      	add	r7, sp, #0
 800560e:	6078      	str	r0, [r7, #4]
 8005610:	6039      	str	r1, [r7, #0]
  USBD_Status ret = USBD_OK;  
 8005612:	2300      	movs	r3, #0
 8005614:	73fb      	strb	r3, [r7, #15]
  
  switch (req->bRequest) 
 8005616:	683b      	ldr	r3, [r7, #0]
 8005618:	785b      	ldrb	r3, [r3, #1]
 800561a:	2b09      	cmp	r3, #9
 800561c:	d839      	bhi.n	8005692 <USBD_StdDevReq+0x8a>
 800561e:	a201      	add	r2, pc, #4	; (adr r2, 8005624 <USBD_StdDevReq+0x1c>)
 8005620:	f852 f023 	ldr.w	pc, [r2, r3, lsl #2]
 8005624:	08005675 	.word	0x08005675
 8005628:	08005689 	.word	0x08005689
 800562c:	08005693 	.word	0x08005693
 8005630:	0800567f 	.word	0x0800567f
 8005634:	08005693 	.word	0x08005693
 8005638:	08005657 	.word	0x08005657
 800563c:	0800564d 	.word	0x0800564d
 8005640:	08005693 	.word	0x08005693
 8005644:	0800566b 	.word	0x0800566b
 8005648:	08005661 	.word	0x08005661
  {
  case USB_REQ_GET_DESCRIPTOR: 
    
    USBD_GetDescriptor (pdev, req) ;
 800564c:	6839      	ldr	r1, [r7, #0]
 800564e:	6878      	ldr	r0, [r7, #4]
 8005650:	f000 f936 	bl	80058c0 <USBD_GetDescriptor>
    break;
 8005654:	e022      	b.n	800569c <USBD_StdDevReq+0x94>
    
  case USB_REQ_SET_ADDRESS:                      
    USBD_SetAddress(pdev, req);
 8005656:	6839      	ldr	r1, [r7, #0]
 8005658:	6878      	ldr	r0, [r7, #4]
 800565a:	f000 fa05 	bl	8005a68 <USBD_SetAddress>
    break;
 800565e:	e01d      	b.n	800569c <USBD_StdDevReq+0x94>
    
  case USB_REQ_SET_CONFIGURATION:                    
    USBD_SetConfig (pdev , req);
 8005660:	6839      	ldr	r1, [r7, #0]
 8005662:	6878      	ldr	r0, [r7, #4]
 8005664:	f000 fa3e 	bl	8005ae4 <USBD_SetConfig>
    break;
 8005668:	e018      	b.n	800569c <USBD_StdDevReq+0x94>
    
  case USB_REQ_GET_CONFIGURATION:                 
    USBD_GetConfig (pdev , req);
 800566a:	6839      	ldr	r1, [r7, #0]
 800566c:	6878      	ldr	r0, [r7, #4]
 800566e:	f000 fab3 	bl	8005bd8 <USBD_GetConfig>
    break;
 8005672:	e013      	b.n	800569c <USBD_StdDevReq+0x94>
    
  case USB_REQ_GET_STATUS:                                  
    USBD_GetStatus (pdev , req);
 8005674:	6839      	ldr	r1, [r7, #0]
 8005676:	6878      	ldr	r0, [r7, #4]
 8005678:	f000 fade 	bl	8005c38 <USBD_GetStatus>
    break;
 800567c:	e00e      	b.n	800569c <USBD_StdDevReq+0x94>
    
    
  case USB_REQ_SET_FEATURE:   
    USBD_SetFeature (pdev , req);    
 800567e:	6839      	ldr	r1, [r7, #0]
 8005680:	6878      	ldr	r0, [r7, #4]
 8005682:	f000 fb03 	bl	8005c8c <USBD_SetFeature>
    break;
 8005686:	e009      	b.n	800569c <USBD_StdDevReq+0x94>
    
  case USB_REQ_CLEAR_FEATURE:                                   
    USBD_ClrFeature (pdev , req);
 8005688:	6839      	ldr	r1, [r7, #0]
 800568a:	6878      	ldr	r0, [r7, #4]
 800568c:	f000 fb6a 	bl	8005d64 <USBD_ClrFeature>
    break;
 8005690:	e004      	b.n	800569c <USBD_StdDevReq+0x94>
    
  default:  
    USBD_CtlError(pdev , req);
 8005692:	6839      	ldr	r1, [r7, #0]
 8005694:	6878      	ldr	r0, [r7, #4]
 8005696:	f000 fbd6 	bl	8005e46 <USBD_CtlError>
    break;
 800569a:	bf00      	nop
  }
  
  return ret;
 800569c:	7bfb      	ldrb	r3, [r7, #15]
}
 800569e:	4618      	mov	r0, r3
 80056a0:	3710      	adds	r7, #16
 80056a2:	46bd      	mov	sp, r7
 80056a4:	bd80      	pop	{r7, pc}
 80056a6:	bf00      	nop

080056a8 <USBD_StdItfReq>:
* @param  pdev: USB OTG device instance
* @param  req: usb request
* @retval status
*/
USBD_Status  USBD_StdItfReq (USB_OTG_CORE_HANDLE  *pdev, USB_SETUP_REQ  *req)
{
 80056a8:	b580      	push	{r7, lr}
 80056aa:	b084      	sub	sp, #16
 80056ac:	af00      	add	r7, sp, #0
 80056ae:	6078      	str	r0, [r7, #4]
 80056b0:	6039      	str	r1, [r7, #0]
  USBD_Status ret = USBD_OK; 
 80056b2:	2300      	movs	r3, #0
 80056b4:	73fb      	strb	r3, [r7, #15]
  
  switch (pdev->dev.device_status) 
 80056b6:	687b      	ldr	r3, [r7, #4]
 80056b8:	f893 3112 	ldrb.w	r3, [r3, #274]	; 0x112
 80056bc:	2b03      	cmp	r3, #3
 80056be:	d11b      	bne.n	80056f8 <USBD_StdItfReq+0x50>
  {
  case USB_OTG_CONFIGURED:
    
    if (LOBYTE(req->wIndex) <= USBD_ITF_MAX_NUM) 
 80056c0:	683b      	ldr	r3, [r7, #0]
 80056c2:	889b      	ldrh	r3, [r3, #4]
 80056c4:	b2db      	uxtb	r3, r3
 80056c6:	2b01      	cmp	r3, #1
 80056c8:	d811      	bhi.n	80056ee <USBD_StdItfReq+0x46>
    {
      pdev->dev.class_cb->Setup (pdev, req); 
 80056ca:	687b      	ldr	r3, [r7, #4]
 80056cc:	f8d3 35e4 	ldr.w	r3, [r3, #1508]	; 0x5e4
 80056d0:	689b      	ldr	r3, [r3, #8]
 80056d2:	6839      	ldr	r1, [r7, #0]
 80056d4:	6878      	ldr	r0, [r7, #4]
 80056d6:	4798      	blx	r3
      
      if((req->wLength == 0)&& (ret == USBD_OK))
 80056d8:	683b      	ldr	r3, [r7, #0]
 80056da:	88db      	ldrh	r3, [r3, #6]
 80056dc:	2b00      	cmp	r3, #0
 80056de:	d110      	bne.n	8005702 <USBD_StdItfReq+0x5a>
 80056e0:	7bfb      	ldrb	r3, [r7, #15]
 80056e2:	2b00      	cmp	r3, #0
 80056e4:	d10d      	bne.n	8005702 <USBD_StdItfReq+0x5a>
      {
         USBD_CtlSendStatus(pdev);
 80056e6:	6878      	ldr	r0, [r7, #4]
 80056e8:	f7ff ff5e 	bl	80055a8 <USBD_CtlSendStatus>
    } 
    else 
    {                                               
       USBD_CtlError(pdev , req);
    }
    break;
 80056ec:	e009      	b.n	8005702 <USBD_StdItfReq+0x5a>
       USBD_CtlError(pdev , req);
 80056ee:	6839      	ldr	r1, [r7, #0]
 80056f0:	6878      	ldr	r0, [r7, #4]
 80056f2:	f000 fba8 	bl	8005e46 <USBD_CtlError>
    break;
 80056f6:	e004      	b.n	8005702 <USBD_StdItfReq+0x5a>
    
  default:
     USBD_CtlError(pdev , req);
 80056f8:	6839      	ldr	r1, [r7, #0]
 80056fa:	6878      	ldr	r0, [r7, #4]
 80056fc:	f000 fba3 	bl	8005e46 <USBD_CtlError>
    break;
 8005700:	e000      	b.n	8005704 <USBD_StdItfReq+0x5c>
    break;
 8005702:	bf00      	nop
  }
  return ret;
 8005704:	7bfb      	ldrb	r3, [r7, #15]
}
 8005706:	4618      	mov	r0, r3
 8005708:	3710      	adds	r7, #16
 800570a:	46bd      	mov	sp, r7
 800570c:	bd80      	pop	{r7, pc}
	...

08005710 <USBD_StdEPReq>:
* @param  pdev: USB OTG device instance
* @param  req: usb request
* @retval status
*/
USBD_Status  USBD_StdEPReq (USB_OTG_CORE_HANDLE  *pdev, USB_SETUP_REQ  *req)
{
 8005710:	b580      	push	{r7, lr}
 8005712:	b084      	sub	sp, #16
 8005714:	af00      	add	r7, sp, #0
 8005716:	6078      	str	r0, [r7, #4]
 8005718:	6039      	str	r1, [r7, #0]
  
  uint8_t   ep_addr;
  USBD_Status ret = USBD_OK; 
 800571a:	2300      	movs	r3, #0
 800571c:	73fb      	strb	r3, [r7, #15]
  
  ep_addr  = LOBYTE(req->wIndex);   
 800571e:	683b      	ldr	r3, [r7, #0]
 8005720:	889b      	ldrh	r3, [r3, #4]
 8005722:	73bb      	strb	r3, [r7, #14]
  
  switch (req->bRequest) 
 8005724:	683b      	ldr	r3, [r7, #0]
 8005726:	785b      	ldrb	r3, [r3, #1]
 8005728:	2b01      	cmp	r3, #1
 800572a:	d039      	beq.n	80057a0 <USBD_StdEPReq+0x90>
 800572c:	2b03      	cmp	r3, #3
 800572e:	d002      	beq.n	8005736 <USBD_StdEPReq+0x26>
 8005730:	2b00      	cmp	r3, #0
 8005732:	d06c      	beq.n	800580e <USBD_StdEPReq+0xfe>
      break;
    }
    break;
    
  default:
    break;
 8005734:	e0bd      	b.n	80058b2 <USBD_StdEPReq+0x1a2>
    switch (pdev->dev.device_status) 
 8005736:	687b      	ldr	r3, [r7, #4]
 8005738:	f893 3112 	ldrb.w	r3, [r3, #274]	; 0x112
 800573c:	2b02      	cmp	r3, #2
 800573e:	d002      	beq.n	8005746 <USBD_StdEPReq+0x36>
 8005740:	2b03      	cmp	r3, #3
 8005742:	d00c      	beq.n	800575e <USBD_StdEPReq+0x4e>
 8005744:	e025      	b.n	8005792 <USBD_StdEPReq+0x82>
      if ((ep_addr != 0x00) && (ep_addr != 0x80)) 
 8005746:	7bbb      	ldrb	r3, [r7, #14]
 8005748:	2b00      	cmp	r3, #0
 800574a:	d027      	beq.n	800579c <USBD_StdEPReq+0x8c>
 800574c:	7bbb      	ldrb	r3, [r7, #14]
 800574e:	2b80      	cmp	r3, #128	; 0x80
 8005750:	d024      	beq.n	800579c <USBD_StdEPReq+0x8c>
        DCD_EP_Stall(pdev , ep_addr);
 8005752:	7bbb      	ldrb	r3, [r7, #14]
 8005754:	4619      	mov	r1, r3
 8005756:	6878      	ldr	r0, [r7, #4]
 8005758:	f7fe fb6e 	bl	8003e38 <DCD_EP_Stall>
      break;	
 800575c:	e01e      	b.n	800579c <USBD_StdEPReq+0x8c>
      if (req->wValue == USB_FEATURE_EP_HALT)
 800575e:	683b      	ldr	r3, [r7, #0]
 8005760:	885b      	ldrh	r3, [r3, #2]
 8005762:	2b00      	cmp	r3, #0
 8005764:	d10a      	bne.n	800577c <USBD_StdEPReq+0x6c>
        if ((ep_addr != 0x00) && (ep_addr != 0x80)) 
 8005766:	7bbb      	ldrb	r3, [r7, #14]
 8005768:	2b00      	cmp	r3, #0
 800576a:	d007      	beq.n	800577c <USBD_StdEPReq+0x6c>
 800576c:	7bbb      	ldrb	r3, [r7, #14]
 800576e:	2b80      	cmp	r3, #128	; 0x80
 8005770:	d004      	beq.n	800577c <USBD_StdEPReq+0x6c>
          DCD_EP_Stall(pdev , ep_addr);
 8005772:	7bbb      	ldrb	r3, [r7, #14]
 8005774:	4619      	mov	r1, r3
 8005776:	6878      	ldr	r0, [r7, #4]
 8005778:	f7fe fb5e 	bl	8003e38 <DCD_EP_Stall>
      pdev->dev.class_cb->Setup (pdev, req);   
 800577c:	687b      	ldr	r3, [r7, #4]
 800577e:	f8d3 35e4 	ldr.w	r3, [r3, #1508]	; 0x5e4
 8005782:	689b      	ldr	r3, [r3, #8]
 8005784:	6839      	ldr	r1, [r7, #0]
 8005786:	6878      	ldr	r0, [r7, #4]
 8005788:	4798      	blx	r3
      USBD_CtlSendStatus(pdev);
 800578a:	6878      	ldr	r0, [r7, #4]
 800578c:	f7ff ff0c 	bl	80055a8 <USBD_CtlSendStatus>
      break;
 8005790:	e005      	b.n	800579e <USBD_StdEPReq+0x8e>
      USBD_CtlError(pdev , req);
 8005792:	6839      	ldr	r1, [r7, #0]
 8005794:	6878      	ldr	r0, [r7, #4]
 8005796:	f000 fb56 	bl	8005e46 <USBD_CtlError>
      break;    
 800579a:	e000      	b.n	800579e <USBD_StdEPReq+0x8e>
      break;	
 800579c:	bf00      	nop
    break;
 800579e:	e088      	b.n	80058b2 <USBD_StdEPReq+0x1a2>
    switch (pdev->dev.device_status) 
 80057a0:	687b      	ldr	r3, [r7, #4]
 80057a2:	f893 3112 	ldrb.w	r3, [r3, #274]	; 0x112
 80057a6:	2b02      	cmp	r3, #2
 80057a8:	d002      	beq.n	80057b0 <USBD_StdEPReq+0xa0>
 80057aa:	2b03      	cmp	r3, #3
 80057ac:	d00c      	beq.n	80057c8 <USBD_StdEPReq+0xb8>
 80057ae:	e025      	b.n	80057fc <USBD_StdEPReq+0xec>
      if ((ep_addr != 0x00) && (ep_addr != 0x80)) 
 80057b0:	7bbb      	ldrb	r3, [r7, #14]
 80057b2:	2b00      	cmp	r3, #0
 80057b4:	d027      	beq.n	8005806 <USBD_StdEPReq+0xf6>
 80057b6:	7bbb      	ldrb	r3, [r7, #14]
 80057b8:	2b80      	cmp	r3, #128	; 0x80
 80057ba:	d024      	beq.n	8005806 <USBD_StdEPReq+0xf6>
        DCD_EP_Stall(pdev , ep_addr);
 80057bc:	7bbb      	ldrb	r3, [r7, #14]
 80057be:	4619      	mov	r1, r3
 80057c0:	6878      	ldr	r0, [r7, #4]
 80057c2:	f7fe fb39 	bl	8003e38 <DCD_EP_Stall>
      break;	
 80057c6:	e01e      	b.n	8005806 <USBD_StdEPReq+0xf6>
      if (req->wValue == USB_FEATURE_EP_HALT)
 80057c8:	683b      	ldr	r3, [r7, #0]
 80057ca:	885b      	ldrh	r3, [r3, #2]
 80057cc:	2b00      	cmp	r3, #0
 80057ce:	d11c      	bne.n	800580a <USBD_StdEPReq+0xfa>
        if ((ep_addr != 0x00) && (ep_addr != 0x80)) 
 80057d0:	7bbb      	ldrb	r3, [r7, #14]
 80057d2:	2b00      	cmp	r3, #0
 80057d4:	d00e      	beq.n	80057f4 <USBD_StdEPReq+0xe4>
 80057d6:	7bbb      	ldrb	r3, [r7, #14]
 80057d8:	2b80      	cmp	r3, #128	; 0x80
 80057da:	d00b      	beq.n	80057f4 <USBD_StdEPReq+0xe4>
          DCD_EP_ClrStall(pdev , ep_addr);
 80057dc:	7bbb      	ldrb	r3, [r7, #14]
 80057de:	4619      	mov	r1, r3
 80057e0:	6878      	ldr	r0, [r7, #4]
 80057e2:	f7fe fb66 	bl	8003eb2 <DCD_EP_ClrStall>
          pdev->dev.class_cb->Setup (pdev, req);
 80057e6:	687b      	ldr	r3, [r7, #4]
 80057e8:	f8d3 35e4 	ldr.w	r3, [r3, #1508]	; 0x5e4
 80057ec:	689b      	ldr	r3, [r3, #8]
 80057ee:	6839      	ldr	r1, [r7, #0]
 80057f0:	6878      	ldr	r0, [r7, #4]
 80057f2:	4798      	blx	r3
        USBD_CtlSendStatus(pdev);
 80057f4:	6878      	ldr	r0, [r7, #4]
 80057f6:	f7ff fed7 	bl	80055a8 <USBD_CtlSendStatus>
      break;
 80057fa:	e006      	b.n	800580a <USBD_StdEPReq+0xfa>
       USBD_CtlError(pdev , req);
 80057fc:	6839      	ldr	r1, [r7, #0]
 80057fe:	6878      	ldr	r0, [r7, #4]
 8005800:	f000 fb21 	bl	8005e46 <USBD_CtlError>
      break;    
 8005804:	e002      	b.n	800580c <USBD_StdEPReq+0xfc>
      break;	
 8005806:	bf00      	nop
 8005808:	e053      	b.n	80058b2 <USBD_StdEPReq+0x1a2>
      break;
 800580a:	bf00      	nop
    break;
 800580c:	e051      	b.n	80058b2 <USBD_StdEPReq+0x1a2>
    switch (pdev->dev.device_status) 
 800580e:	687b      	ldr	r3, [r7, #4]
 8005810:	f893 3112 	ldrb.w	r3, [r3, #274]	; 0x112
 8005814:	2b02      	cmp	r3, #2
 8005816:	d002      	beq.n	800581e <USBD_StdEPReq+0x10e>
 8005818:	2b03      	cmp	r3, #3
 800581a:	d00c      	beq.n	8005836 <USBD_StdEPReq+0x126>
 800581c:	e042      	b.n	80058a4 <USBD_StdEPReq+0x194>
      if ((ep_addr != 0x00) && (ep_addr != 0x80)) 
 800581e:	7bbb      	ldrb	r3, [r7, #14]
 8005820:	2b00      	cmp	r3, #0
 8005822:	d044      	beq.n	80058ae <USBD_StdEPReq+0x19e>
 8005824:	7bbb      	ldrb	r3, [r7, #14]
 8005826:	2b80      	cmp	r3, #128	; 0x80
 8005828:	d041      	beq.n	80058ae <USBD_StdEPReq+0x19e>
        DCD_EP_Stall(pdev , ep_addr);
 800582a:	7bbb      	ldrb	r3, [r7, #14]
 800582c:	4619      	mov	r1, r3
 800582e:	6878      	ldr	r0, [r7, #4]
 8005830:	f7fe fb02 	bl	8003e38 <DCD_EP_Stall>
      break;	
 8005834:	e03b      	b.n	80058ae <USBD_StdEPReq+0x19e>
      if ((ep_addr & 0x80)== 0x80)
 8005836:	f997 300e 	ldrsb.w	r3, [r7, #14]
 800583a:	2b00      	cmp	r3, #0
 800583c:	da15      	bge.n	800586a <USBD_StdEPReq+0x15a>
        if(pdev->dev.in_ep[ep_addr & 0x7F].is_stall)
 800583e:	7bbb      	ldrb	r3, [r7, #14]
 8005840:	f003 027f 	and.w	r2, r3, #127	; 0x7f
 8005844:	6879      	ldr	r1, [r7, #4]
 8005846:	4613      	mov	r3, r2
 8005848:	009b      	lsls	r3, r3, #2
 800584a:	4413      	add	r3, r2
 800584c:	00db      	lsls	r3, r3, #3
 800584e:	440b      	add	r3, r1
 8005850:	f503 738f 	add.w	r3, r3, #286	; 0x11e
 8005854:	781b      	ldrb	r3, [r3, #0]
 8005856:	2b00      	cmp	r3, #0
 8005858:	d003      	beq.n	8005862 <USBD_StdEPReq+0x152>
          USBD_ep_status = 0x0001;     
 800585a:	4b18      	ldr	r3, [pc, #96]	; (80058bc <USBD_StdEPReq+0x1ac>)
 800585c:	2201      	movs	r2, #1
 800585e:	601a      	str	r2, [r3, #0]
 8005860:	e01a      	b.n	8005898 <USBD_StdEPReq+0x188>
          USBD_ep_status = 0x0000;  
 8005862:	4b16      	ldr	r3, [pc, #88]	; (80058bc <USBD_StdEPReq+0x1ac>)
 8005864:	2200      	movs	r2, #0
 8005866:	601a      	str	r2, [r3, #0]
 8005868:	e016      	b.n	8005898 <USBD_StdEPReq+0x188>
      else if ((ep_addr & 0x80)== 0x00)
 800586a:	f997 300e 	ldrsb.w	r3, [r7, #14]
 800586e:	2b00      	cmp	r3, #0
 8005870:	db12      	blt.n	8005898 <USBD_StdEPReq+0x188>
        if(pdev->dev.out_ep[ep_addr].is_stall)
 8005872:	7bba      	ldrb	r2, [r7, #14]
 8005874:	6879      	ldr	r1, [r7, #4]
 8005876:	4613      	mov	r3, r2
 8005878:	009b      	lsls	r3, r3, #2
 800587a:	4413      	add	r3, r2
 800587c:	00db      	lsls	r3, r3, #3
 800587e:	440b      	add	r3, r1
 8005880:	f203 3376 	addw	r3, r3, #886	; 0x376
 8005884:	781b      	ldrb	r3, [r3, #0]
 8005886:	2b00      	cmp	r3, #0
 8005888:	d003      	beq.n	8005892 <USBD_StdEPReq+0x182>
          USBD_ep_status = 0x0001;     
 800588a:	4b0c      	ldr	r3, [pc, #48]	; (80058bc <USBD_StdEPReq+0x1ac>)
 800588c:	2201      	movs	r2, #1
 800588e:	601a      	str	r2, [r3, #0]
 8005890:	e002      	b.n	8005898 <USBD_StdEPReq+0x188>
          USBD_ep_status = 0x0000;     
 8005892:	4b0a      	ldr	r3, [pc, #40]	; (80058bc <USBD_StdEPReq+0x1ac>)
 8005894:	2200      	movs	r2, #0
 8005896:	601a      	str	r2, [r3, #0]
      USBD_CtlSendData (pdev,
 8005898:	2202      	movs	r2, #2
 800589a:	4908      	ldr	r1, [pc, #32]	; (80058bc <USBD_StdEPReq+0x1ac>)
 800589c:	6878      	ldr	r0, [r7, #4]
 800589e:	f7ff fe1b 	bl	80054d8 <USBD_CtlSendData>
      break;
 80058a2:	e005      	b.n	80058b0 <USBD_StdEPReq+0x1a0>
       USBD_CtlError(pdev , req);
 80058a4:	6839      	ldr	r1, [r7, #0]
 80058a6:	6878      	ldr	r0, [r7, #4]
 80058a8:	f000 facd 	bl	8005e46 <USBD_CtlError>
      break;
 80058ac:	e000      	b.n	80058b0 <USBD_StdEPReq+0x1a0>
      break;	
 80058ae:	bf00      	nop
    break;
 80058b0:	bf00      	nop
  }
  return ret;
 80058b2:	7bfb      	ldrb	r3, [r7, #15]
}
 80058b4:	4618      	mov	r0, r3
 80058b6:	3710      	adds	r7, #16
 80058b8:	46bd      	mov	sp, r7
 80058ba:	bd80      	pop	{r7, pc}
 80058bc:	20007ea4 	.word	0x20007ea4

080058c0 <USBD_GetDescriptor>:
* @param  req: usb request
* @retval status
*/
static void USBD_GetDescriptor(USB_OTG_CORE_HANDLE  *pdev, 
                               USB_SETUP_REQ *req)
{
 80058c0:	b580      	push	{r7, lr}
 80058c2:	b084      	sub	sp, #16
 80058c4:	af00      	add	r7, sp, #0
 80058c6:	6078      	str	r0, [r7, #4]
 80058c8:	6039      	str	r1, [r7, #0]
  uint16_t len;
  uint8_t *pbuf;
  
    
  switch (req->wValue >> 8)
 80058ca:	683b      	ldr	r3, [r7, #0]
 80058cc:	885b      	ldrh	r3, [r3, #2]
 80058ce:	0a1b      	lsrs	r3, r3, #8
 80058d0:	b29b      	uxth	r3, r3
 80058d2:	3b01      	subs	r3, #1
 80058d4:	2b06      	cmp	r3, #6
 80058d6:	f200 80a9 	bhi.w	8005a2c <USBD_GetDescriptor+0x16c>
 80058da:	a201      	add	r2, pc, #4	; (adr r2, 80058e0 <USBD_GetDescriptor+0x20>)
 80058dc:	f852 f023 	ldr.w	pc, [r2, r3, lsl #2]
 80058e0:	080058fd 	.word	0x080058fd
 80058e4:	0800592d 	.word	0x0800592d
 80058e8:	08005955 	.word	0x08005955
 80058ec:	08005a2d 	.word	0x08005a2d
 80058f0:	08005a2d 	.word	0x08005a2d
 80058f4:	08005a19 	.word	0x08005a19
 80058f8:	08005a23 	.word	0x08005a23
  {
  case USB_DESC_TYPE_DEVICE:
    pbuf = pdev->dev.usr_device->GetDeviceDescriptor(pdev->cfg.speed, &len);
 80058fc:	687b      	ldr	r3, [r7, #4]
 80058fe:	f8d3 35ec 	ldr.w	r3, [r3, #1516]	; 0x5ec
 8005902:	681b      	ldr	r3, [r3, #0]
 8005904:	687a      	ldr	r2, [r7, #4]
 8005906:	7892      	ldrb	r2, [r2, #2]
 8005908:	f107 010a 	add.w	r1, r7, #10
 800590c:	4610      	mov	r0, r2
 800590e:	4798      	blx	r3
 8005910:	60f8      	str	r0, [r7, #12]
    if ((req->wLength == 64) ||( pdev->dev.device_status == USB_OTG_DEFAULT))  
 8005912:	683b      	ldr	r3, [r7, #0]
 8005914:	88db      	ldrh	r3, [r3, #6]
 8005916:	2b40      	cmp	r3, #64	; 0x40
 8005918:	d005      	beq.n	8005926 <USBD_GetDescriptor+0x66>
 800591a:	687b      	ldr	r3, [r7, #4]
 800591c:	f893 3112 	ldrb.w	r3, [r3, #274]	; 0x112
 8005920:	2b01      	cmp	r3, #1
 8005922:	f040 8088 	bne.w	8005a36 <USBD_GetDescriptor+0x176>
    {                  
      len = 8;
 8005926:	2308      	movs	r3, #8
 8005928:	817b      	strh	r3, [r7, #10]
    }
    break;
 800592a:	e084      	b.n	8005a36 <USBD_GetDescriptor+0x176>
    
  case USB_DESC_TYPE_CONFIGURATION:
      pbuf   = (uint8_t *)pdev->dev.class_cb->GetConfigDescriptor(pdev->cfg.speed, &len);
 800592c:	687b      	ldr	r3, [r7, #4]
 800592e:	f8d3 35e4 	ldr.w	r3, [r3, #1508]	; 0x5e4
 8005932:	6a9b      	ldr	r3, [r3, #40]	; 0x28
 8005934:	687a      	ldr	r2, [r7, #4]
 8005936:	7892      	ldrb	r2, [r2, #2]
 8005938:	f107 010a 	add.w	r1, r7, #10
 800593c:	4610      	mov	r0, r2
 800593e:	4798      	blx	r3
 8005940:	60f8      	str	r0, [r7, #12]
       (pdev->cfg.phy_itface  == USB_OTG_ULPI_PHY))
    {
      pbuf   = (uint8_t *)pdev->dev.class_cb->GetOtherConfigDescriptor(pdev->cfg.speed, &len);
    }
#endif  
    pbuf[1] = USB_DESC_TYPE_CONFIGURATION;
 8005942:	68fb      	ldr	r3, [r7, #12]
 8005944:	3301      	adds	r3, #1
 8005946:	2202      	movs	r2, #2
 8005948:	701a      	strb	r2, [r3, #0]
    pdev->dev.pConfig_descriptor = pbuf;    
 800594a:	687b      	ldr	r3, [r7, #4]
 800594c:	68fa      	ldr	r2, [r7, #12]
 800594e:	f8c3 25f0 	str.w	r2, [r3, #1520]	; 0x5f0
    break;
 8005952:	e071      	b.n	8005a38 <USBD_GetDescriptor+0x178>
    
  case USB_DESC_TYPE_STRING:
    switch ((uint8_t)(req->wValue))
 8005954:	683b      	ldr	r3, [r7, #0]
 8005956:	885b      	ldrh	r3, [r3, #2]
 8005958:	b2db      	uxtb	r3, r3
 800595a:	2b05      	cmp	r3, #5
 800595c:	d856      	bhi.n	8005a0c <USBD_GetDescriptor+0x14c>
 800595e:	a201      	add	r2, pc, #4	; (adr r2, 8005964 <USBD_GetDescriptor+0xa4>)
 8005960:	f852 f023 	ldr.w	pc, [r2, r3, lsl #2]
 8005964:	0800597d 	.word	0x0800597d
 8005968:	08005995 	.word	0x08005995
 800596c:	080059ad 	.word	0x080059ad
 8005970:	080059c5 	.word	0x080059c5
 8005974:	080059dd 	.word	0x080059dd
 8005978:	080059f5 	.word	0x080059f5
    {
    case USBD_IDX_LANGID_STR:
     pbuf = pdev->dev.usr_device->GetLangIDStrDescriptor(pdev->cfg.speed, &len);        
 800597c:	687b      	ldr	r3, [r7, #4]
 800597e:	f8d3 35ec 	ldr.w	r3, [r3, #1516]	; 0x5ec
 8005982:	685b      	ldr	r3, [r3, #4]
 8005984:	687a      	ldr	r2, [r7, #4]
 8005986:	7892      	ldrb	r2, [r2, #2]
 8005988:	f107 010a 	add.w	r1, r7, #10
 800598c:	4610      	mov	r0, r2
 800598e:	4798      	blx	r3
 8005990:	60f8      	str	r0, [r7, #12]
      break;
 8005992:	e040      	b.n	8005a16 <USBD_GetDescriptor+0x156>
      
    case USBD_IDX_MFC_STR:
      pbuf = pdev->dev.usr_device->GetManufacturerStrDescriptor(pdev->cfg.speed, &len);
 8005994:	687b      	ldr	r3, [r7, #4]
 8005996:	f8d3 35ec 	ldr.w	r3, [r3, #1516]	; 0x5ec
 800599a:	689b      	ldr	r3, [r3, #8]
 800599c:	687a      	ldr	r2, [r7, #4]
 800599e:	7892      	ldrb	r2, [r2, #2]
 80059a0:	f107 010a 	add.w	r1, r7, #10
 80059a4:	4610      	mov	r0, r2
 80059a6:	4798      	blx	r3
 80059a8:	60f8      	str	r0, [r7, #12]
      break;
 80059aa:	e034      	b.n	8005a16 <USBD_GetDescriptor+0x156>
      
    case USBD_IDX_PRODUCT_STR:
      pbuf = pdev->dev.usr_device->GetProductStrDescriptor(pdev->cfg.speed, &len);
 80059ac:	687b      	ldr	r3, [r7, #4]
 80059ae:	f8d3 35ec 	ldr.w	r3, [r3, #1516]	; 0x5ec
 80059b2:	68db      	ldr	r3, [r3, #12]
 80059b4:	687a      	ldr	r2, [r7, #4]
 80059b6:	7892      	ldrb	r2, [r2, #2]
 80059b8:	f107 010a 	add.w	r1, r7, #10
 80059bc:	4610      	mov	r0, r2
 80059be:	4798      	blx	r3
 80059c0:	60f8      	str	r0, [r7, #12]
      break;
 80059c2:	e028      	b.n	8005a16 <USBD_GetDescriptor+0x156>
      
    case USBD_IDX_SERIAL_STR:
      pbuf = pdev->dev.usr_device->GetSerialStrDescriptor(pdev->cfg.speed, &len);
 80059c4:	687b      	ldr	r3, [r7, #4]
 80059c6:	f8d3 35ec 	ldr.w	r3, [r3, #1516]	; 0x5ec
 80059ca:	691b      	ldr	r3, [r3, #16]
 80059cc:	687a      	ldr	r2, [r7, #4]
 80059ce:	7892      	ldrb	r2, [r2, #2]
 80059d0:	f107 010a 	add.w	r1, r7, #10
 80059d4:	4610      	mov	r0, r2
 80059d6:	4798      	blx	r3
 80059d8:	60f8      	str	r0, [r7, #12]
      break;
 80059da:	e01c      	b.n	8005a16 <USBD_GetDescriptor+0x156>
      
    case USBD_IDX_CONFIG_STR:
      pbuf = pdev->dev.usr_device->GetConfigurationStrDescriptor(pdev->cfg.speed, &len);
 80059dc:	687b      	ldr	r3, [r7, #4]
 80059de:	f8d3 35ec 	ldr.w	r3, [r3, #1516]	; 0x5ec
 80059e2:	695b      	ldr	r3, [r3, #20]
 80059e4:	687a      	ldr	r2, [r7, #4]
 80059e6:	7892      	ldrb	r2, [r2, #2]
 80059e8:	f107 010a 	add.w	r1, r7, #10
 80059ec:	4610      	mov	r0, r2
 80059ee:	4798      	blx	r3
 80059f0:	60f8      	str	r0, [r7, #12]
      break;
 80059f2:	e010      	b.n	8005a16 <USBD_GetDescriptor+0x156>
      
    case USBD_IDX_INTERFACE_STR:
      pbuf = pdev->dev.usr_device->GetInterfaceStrDescriptor(pdev->cfg.speed, &len);
 80059f4:	687b      	ldr	r3, [r7, #4]
 80059f6:	f8d3 35ec 	ldr.w	r3, [r3, #1516]	; 0x5ec
 80059fa:	699b      	ldr	r3, [r3, #24]
 80059fc:	687a      	ldr	r2, [r7, #4]
 80059fe:	7892      	ldrb	r2, [r2, #2]
 8005a00:	f107 010a 	add.w	r1, r7, #10
 8005a04:	4610      	mov	r0, r2
 8005a06:	4798      	blx	r3
 8005a08:	60f8      	str	r0, [r7, #12]
      break;
 8005a0a:	e004      	b.n	8005a16 <USBD_GetDescriptor+0x156>
    default:
#ifdef USB_SUPPORT_USER_STRING_DESC
      pbuf = pdev->dev.class_cb->GetUsrStrDescriptor(pdev->cfg.speed, (req->wValue) , &len);
      break;
#else      
       USBD_CtlError(pdev , req);
 8005a0c:	6839      	ldr	r1, [r7, #0]
 8005a0e:	6878      	ldr	r0, [r7, #4]
 8005a10:	f000 fa19 	bl	8005e46 <USBD_CtlError>
      return;
 8005a14:	e025      	b.n	8005a62 <USBD_GetDescriptor+0x1a2>
#endif /* USBD_CtlError(pdev , req); */      
    }
    break;
 8005a16:	e00f      	b.n	8005a38 <USBD_GetDescriptor+0x178>
    {
      USBD_CtlError(pdev , req);
      return;
    }
#else
      USBD_CtlError(pdev , req);
 8005a18:	6839      	ldr	r1, [r7, #0]
 8005a1a:	6878      	ldr	r0, [r7, #4]
 8005a1c:	f000 fa13 	bl	8005e46 <USBD_CtlError>
      return;
 8005a20:	e01f      	b.n	8005a62 <USBD_GetDescriptor+0x1a2>
    {
      USBD_CtlError(pdev , req);
      return;
    }
#else
      USBD_CtlError(pdev , req);
 8005a22:	6839      	ldr	r1, [r7, #0]
 8005a24:	6878      	ldr	r0, [r7, #4]
 8005a26:	f000 fa0e 	bl	8005e46 <USBD_CtlError>
      return;
 8005a2a:	e01a      	b.n	8005a62 <USBD_GetDescriptor+0x1a2>
#endif     

    
  default: 
     USBD_CtlError(pdev , req);
 8005a2c:	6839      	ldr	r1, [r7, #0]
 8005a2e:	6878      	ldr	r0, [r7, #4]
 8005a30:	f000 fa09 	bl	8005e46 <USBD_CtlError>
    return;
 8005a34:	e015      	b.n	8005a62 <USBD_GetDescriptor+0x1a2>
    break;
 8005a36:	bf00      	nop
  }
  
  if((len != 0)&& (req->wLength != 0))
 8005a38:	897b      	ldrh	r3, [r7, #10]
 8005a3a:	2b00      	cmp	r3, #0
 8005a3c:	d011      	beq.n	8005a62 <USBD_GetDescriptor+0x1a2>
 8005a3e:	683b      	ldr	r3, [r7, #0]
 8005a40:	88db      	ldrh	r3, [r3, #6]
 8005a42:	2b00      	cmp	r3, #0
 8005a44:	d00d      	beq.n	8005a62 <USBD_GetDescriptor+0x1a2>
  {
    
    len = MIN(len , req->wLength);
 8005a46:	683b      	ldr	r3, [r7, #0]
 8005a48:	88da      	ldrh	r2, [r3, #6]
 8005a4a:	897b      	ldrh	r3, [r7, #10]
 8005a4c:	4293      	cmp	r3, r2
 8005a4e:	bf28      	it	cs
 8005a50:	4613      	movcs	r3, r2
 8005a52:	b29b      	uxth	r3, r3
 8005a54:	817b      	strh	r3, [r7, #10]
    
    USBD_CtlSendData (pdev, 
 8005a56:	897b      	ldrh	r3, [r7, #10]
 8005a58:	461a      	mov	r2, r3
 8005a5a:	68f9      	ldr	r1, [r7, #12]
 8005a5c:	6878      	ldr	r0, [r7, #4]
 8005a5e:	f7ff fd3b 	bl	80054d8 <USBD_CtlSendData>
                      pbuf,
                      len);
  }
  
}
 8005a62:	3710      	adds	r7, #16
 8005a64:	46bd      	mov	sp, r7
 8005a66:	bd80      	pop	{r7, pc}

08005a68 <USBD_SetAddress>:
* @param  req: usb request
* @retval status
*/
static void USBD_SetAddress(USB_OTG_CORE_HANDLE  *pdev, 
                            USB_SETUP_REQ *req)
{
 8005a68:	b580      	push	{r7, lr}
 8005a6a:	b084      	sub	sp, #16
 8005a6c:	af00      	add	r7, sp, #0
 8005a6e:	6078      	str	r0, [r7, #4]
 8005a70:	6039      	str	r1, [r7, #0]
  uint8_t  dev_addr; 
  
  if ((req->wIndex == 0) && (req->wLength == 0)) 
 8005a72:	683b      	ldr	r3, [r7, #0]
 8005a74:	889b      	ldrh	r3, [r3, #4]
 8005a76:	2b00      	cmp	r3, #0
 8005a78:	d12c      	bne.n	8005ad4 <USBD_SetAddress+0x6c>
 8005a7a:	683b      	ldr	r3, [r7, #0]
 8005a7c:	88db      	ldrh	r3, [r3, #6]
 8005a7e:	2b00      	cmp	r3, #0
 8005a80:	d128      	bne.n	8005ad4 <USBD_SetAddress+0x6c>
  {
    dev_addr = (uint8_t)(req->wValue) & 0x7F;     
 8005a82:	683b      	ldr	r3, [r7, #0]
 8005a84:	885b      	ldrh	r3, [r3, #2]
 8005a86:	b2db      	uxtb	r3, r3
 8005a88:	f003 037f 	and.w	r3, r3, #127	; 0x7f
 8005a8c:	73fb      	strb	r3, [r7, #15]
    
    if (pdev->dev.device_status == USB_OTG_CONFIGURED) 
 8005a8e:	687b      	ldr	r3, [r7, #4]
 8005a90:	f893 3112 	ldrb.w	r3, [r3, #274]	; 0x112
 8005a94:	2b03      	cmp	r3, #3
 8005a96:	d104      	bne.n	8005aa2 <USBD_SetAddress+0x3a>
    {
      USBD_CtlError(pdev , req);
 8005a98:	6839      	ldr	r1, [r7, #0]
 8005a9a:	6878      	ldr	r0, [r7, #4]
 8005a9c:	f000 f9d3 	bl	8005e46 <USBD_CtlError>
    if (pdev->dev.device_status == USB_OTG_CONFIGURED) 
 8005aa0:	e01c      	b.n	8005adc <USBD_SetAddress+0x74>
    } 
    else 
    {
      pdev->dev.device_address = dev_addr;
 8005aa2:	687b      	ldr	r3, [r7, #4]
 8005aa4:	7bfa      	ldrb	r2, [r7, #15]
 8005aa6:	f883 2114 	strb.w	r2, [r3, #276]	; 0x114
      DCD_EP_SetAddress(pdev, dev_addr);               
 8005aaa:	7bfb      	ldrb	r3, [r7, #15]
 8005aac:	4619      	mov	r1, r3
 8005aae:	6878      	ldr	r0, [r7, #4]
 8005ab0:	f7fe fa3c 	bl	8003f2c <DCD_EP_SetAddress>
      USBD_CtlSendStatus(pdev);                         
 8005ab4:	6878      	ldr	r0, [r7, #4]
 8005ab6:	f7ff fd77 	bl	80055a8 <USBD_CtlSendStatus>
      
      if (dev_addr != 0) 
 8005aba:	7bfb      	ldrb	r3, [r7, #15]
 8005abc:	2b00      	cmp	r3, #0
 8005abe:	d004      	beq.n	8005aca <USBD_SetAddress+0x62>
      {
        pdev->dev.device_status  = USB_OTG_ADDRESSED;
 8005ac0:	687b      	ldr	r3, [r7, #4]
 8005ac2:	2202      	movs	r2, #2
 8005ac4:	f883 2112 	strb.w	r2, [r3, #274]	; 0x112
    if (pdev->dev.device_status == USB_OTG_CONFIGURED) 
 8005ac8:	e008      	b.n	8005adc <USBD_SetAddress+0x74>
      } 
      else 
      {
        pdev->dev.device_status  = USB_OTG_DEFAULT; 
 8005aca:	687b      	ldr	r3, [r7, #4]
 8005acc:	2201      	movs	r2, #1
 8005ace:	f883 2112 	strb.w	r2, [r3, #274]	; 0x112
    if (pdev->dev.device_status == USB_OTG_CONFIGURED) 
 8005ad2:	e003      	b.n	8005adc <USBD_SetAddress+0x74>
      }
    }
  } 
  else 
  {
     USBD_CtlError(pdev , req);                        
 8005ad4:	6839      	ldr	r1, [r7, #0]
 8005ad6:	6878      	ldr	r0, [r7, #4]
 8005ad8:	f000 f9b5 	bl	8005e46 <USBD_CtlError>
  } 
}
 8005adc:	bf00      	nop
 8005ade:	3710      	adds	r7, #16
 8005ae0:	46bd      	mov	sp, r7
 8005ae2:	bd80      	pop	{r7, pc}

08005ae4 <USBD_SetConfig>:
* @param  req: usb request
* @retval status
*/
static void USBD_SetConfig(USB_OTG_CORE_HANDLE  *pdev, 
                           USB_SETUP_REQ *req)
{
 8005ae4:	b580      	push	{r7, lr}
 8005ae6:	b082      	sub	sp, #8
 8005ae8:	af00      	add	r7, sp, #0
 8005aea:	6078      	str	r0, [r7, #4]
 8005aec:	6039      	str	r1, [r7, #0]
  
  static uint8_t  cfgidx;
  
  cfgidx = (uint8_t)(req->wValue);                 
 8005aee:	683b      	ldr	r3, [r7, #0]
 8005af0:	885b      	ldrh	r3, [r3, #2]
 8005af2:	b2da      	uxtb	r2, r3
 8005af4:	4b37      	ldr	r3, [pc, #220]	; (8005bd4 <USBD_SetConfig+0xf0>)
 8005af6:	701a      	strb	r2, [r3, #0]
  
  if (cfgidx > USBD_CFG_MAX_NUM ) 
 8005af8:	4b36      	ldr	r3, [pc, #216]	; (8005bd4 <USBD_SetConfig+0xf0>)
 8005afa:	781b      	ldrb	r3, [r3, #0]
 8005afc:	2b01      	cmp	r3, #1
 8005afe:	d904      	bls.n	8005b0a <USBD_SetConfig+0x26>
  {            
     USBD_CtlError(pdev , req);                              
 8005b00:	6839      	ldr	r1, [r7, #0]
 8005b02:	6878      	ldr	r0, [r7, #4]
 8005b04:	f000 f99f 	bl	8005e46 <USBD_CtlError>
    default:					
       USBD_CtlError(pdev , req);                     
      break;
    }
  }
}
 8005b08:	e05f      	b.n	8005bca <USBD_SetConfig+0xe6>
    switch (pdev->dev.device_status) 
 8005b0a:	687b      	ldr	r3, [r7, #4]
 8005b0c:	f893 3112 	ldrb.w	r3, [r3, #274]	; 0x112
 8005b10:	2b02      	cmp	r3, #2
 8005b12:	d002      	beq.n	8005b1a <USBD_SetConfig+0x36>
 8005b14:	2b03      	cmp	r3, #3
 8005b16:	d01b      	beq.n	8005b50 <USBD_SetConfig+0x6c>
 8005b18:	e052      	b.n	8005bc0 <USBD_SetConfig+0xdc>
      if (cfgidx) 
 8005b1a:	4b2e      	ldr	r3, [pc, #184]	; (8005bd4 <USBD_SetConfig+0xf0>)
 8005b1c:	781b      	ldrb	r3, [r3, #0]
 8005b1e:	2b00      	cmp	r3, #0
 8005b20:	d012      	beq.n	8005b48 <USBD_SetConfig+0x64>
        pdev->dev.device_config = cfgidx;
 8005b22:	4b2c      	ldr	r3, [pc, #176]	; (8005bd4 <USBD_SetConfig+0xf0>)
 8005b24:	781a      	ldrb	r2, [r3, #0]
 8005b26:	687b      	ldr	r3, [r7, #4]
 8005b28:	f883 2110 	strb.w	r2, [r3, #272]	; 0x110
        pdev->dev.device_status = USB_OTG_CONFIGURED;
 8005b2c:	687b      	ldr	r3, [r7, #4]
 8005b2e:	2203      	movs	r2, #3
 8005b30:	f883 2112 	strb.w	r2, [r3, #274]	; 0x112
        USBD_SetCfg(pdev , cfgidx);
 8005b34:	4b27      	ldr	r3, [pc, #156]	; (8005bd4 <USBD_SetConfig+0xf0>)
 8005b36:	781b      	ldrb	r3, [r3, #0]
 8005b38:	4619      	mov	r1, r3
 8005b3a:	6878      	ldr	r0, [r7, #4]
 8005b3c:	f7ff fbfa 	bl	8005334 <USBD_SetCfg>
        USBD_CtlSendStatus(pdev);
 8005b40:	6878      	ldr	r0, [r7, #4]
 8005b42:	f7ff fd31 	bl	80055a8 <USBD_CtlSendStatus>
      break;
 8005b46:	e040      	b.n	8005bca <USBD_SetConfig+0xe6>
         USBD_CtlSendStatus(pdev);
 8005b48:	6878      	ldr	r0, [r7, #4]
 8005b4a:	f7ff fd2d 	bl	80055a8 <USBD_CtlSendStatus>
      break;
 8005b4e:	e03c      	b.n	8005bca <USBD_SetConfig+0xe6>
      if (cfgidx == 0) 
 8005b50:	4b20      	ldr	r3, [pc, #128]	; (8005bd4 <USBD_SetConfig+0xf0>)
 8005b52:	781b      	ldrb	r3, [r3, #0]
 8005b54:	2b00      	cmp	r3, #0
 8005b56:	d112      	bne.n	8005b7e <USBD_SetConfig+0x9a>
        pdev->dev.device_status = USB_OTG_ADDRESSED;
 8005b58:	687b      	ldr	r3, [r7, #4]
 8005b5a:	2202      	movs	r2, #2
 8005b5c:	f883 2112 	strb.w	r2, [r3, #274]	; 0x112
        pdev->dev.device_config = cfgidx;          
 8005b60:	4b1c      	ldr	r3, [pc, #112]	; (8005bd4 <USBD_SetConfig+0xf0>)
 8005b62:	781a      	ldrb	r2, [r3, #0]
 8005b64:	687b      	ldr	r3, [r7, #4]
 8005b66:	f883 2110 	strb.w	r2, [r3, #272]	; 0x110
        USBD_ClrCfg(pdev , cfgidx);
 8005b6a:	4b1a      	ldr	r3, [pc, #104]	; (8005bd4 <USBD_SetConfig+0xf0>)
 8005b6c:	781b      	ldrb	r3, [r3, #0]
 8005b6e:	4619      	mov	r1, r3
 8005b70:	6878      	ldr	r0, [r7, #4]
 8005b72:	f7ff fbf7 	bl	8005364 <USBD_ClrCfg>
        USBD_CtlSendStatus(pdev);
 8005b76:	6878      	ldr	r0, [r7, #4]
 8005b78:	f7ff fd16 	bl	80055a8 <USBD_CtlSendStatus>
      break;
 8005b7c:	e025      	b.n	8005bca <USBD_SetConfig+0xe6>
      else  if (cfgidx != pdev->dev.device_config) 
 8005b7e:	687b      	ldr	r3, [r7, #4]
 8005b80:	f893 2110 	ldrb.w	r2, [r3, #272]	; 0x110
 8005b84:	4b13      	ldr	r3, [pc, #76]	; (8005bd4 <USBD_SetConfig+0xf0>)
 8005b86:	781b      	ldrb	r3, [r3, #0]
 8005b88:	429a      	cmp	r2, r3
 8005b8a:	d015      	beq.n	8005bb8 <USBD_SetConfig+0xd4>
        USBD_ClrCfg(pdev , pdev->dev.device_config);
 8005b8c:	687b      	ldr	r3, [r7, #4]
 8005b8e:	f893 3110 	ldrb.w	r3, [r3, #272]	; 0x110
 8005b92:	4619      	mov	r1, r3
 8005b94:	6878      	ldr	r0, [r7, #4]
 8005b96:	f7ff fbe5 	bl	8005364 <USBD_ClrCfg>
        pdev->dev.device_config = cfgidx;
 8005b9a:	4b0e      	ldr	r3, [pc, #56]	; (8005bd4 <USBD_SetConfig+0xf0>)
 8005b9c:	781a      	ldrb	r2, [r3, #0]
 8005b9e:	687b      	ldr	r3, [r7, #4]
 8005ba0:	f883 2110 	strb.w	r2, [r3, #272]	; 0x110
        USBD_SetCfg(pdev , cfgidx);
 8005ba4:	4b0b      	ldr	r3, [pc, #44]	; (8005bd4 <USBD_SetConfig+0xf0>)
 8005ba6:	781b      	ldrb	r3, [r3, #0]
 8005ba8:	4619      	mov	r1, r3
 8005baa:	6878      	ldr	r0, [r7, #4]
 8005bac:	f7ff fbc2 	bl	8005334 <USBD_SetCfg>
        USBD_CtlSendStatus(pdev);
 8005bb0:	6878      	ldr	r0, [r7, #4]
 8005bb2:	f7ff fcf9 	bl	80055a8 <USBD_CtlSendStatus>
      break;
 8005bb6:	e008      	b.n	8005bca <USBD_SetConfig+0xe6>
        USBD_CtlSendStatus(pdev);
 8005bb8:	6878      	ldr	r0, [r7, #4]
 8005bba:	f7ff fcf5 	bl	80055a8 <USBD_CtlSendStatus>
      break;
 8005bbe:	e004      	b.n	8005bca <USBD_SetConfig+0xe6>
       USBD_CtlError(pdev , req);                     
 8005bc0:	6839      	ldr	r1, [r7, #0]
 8005bc2:	6878      	ldr	r0, [r7, #4]
 8005bc4:	f000 f93f 	bl	8005e46 <USBD_CtlError>
      break;
 8005bc8:	bf00      	nop
}
 8005bca:	bf00      	nop
 8005bcc:	3708      	adds	r7, #8
 8005bce:	46bd      	mov	sp, r7
 8005bd0:	bd80      	pop	{r7, pc}
 8005bd2:	bf00      	nop
 8005bd4:	20007eb0 	.word	0x20007eb0

08005bd8 <USBD_GetConfig>:
* @param  req: usb request
* @retval status
*/
static void USBD_GetConfig(USB_OTG_CORE_HANDLE  *pdev, 
                           USB_SETUP_REQ *req)
{
 8005bd8:	b580      	push	{r7, lr}
 8005bda:	b082      	sub	sp, #8
 8005bdc:	af00      	add	r7, sp, #0
 8005bde:	6078      	str	r0, [r7, #4]
 8005be0:	6039      	str	r1, [r7, #0]
 
  if (req->wLength != 1) 
 8005be2:	683b      	ldr	r3, [r7, #0]
 8005be4:	88db      	ldrh	r3, [r3, #6]
 8005be6:	2b01      	cmp	r3, #1
 8005be8:	d004      	beq.n	8005bf4 <USBD_GetConfig+0x1c>
  {                   
     USBD_CtlError(pdev , req);
 8005bea:	6839      	ldr	r1, [r7, #0]
 8005bec:	6878      	ldr	r0, [r7, #4]
 8005bee:	f000 f92a 	bl	8005e46 <USBD_CtlError>
    default:
       USBD_CtlError(pdev , req);
      break;
    }
  }
}
 8005bf2:	e01b      	b.n	8005c2c <USBD_GetConfig+0x54>
    switch (pdev->dev.device_status )  
 8005bf4:	687b      	ldr	r3, [r7, #4]
 8005bf6:	f893 3112 	ldrb.w	r3, [r3, #274]	; 0x112
 8005bfa:	2b02      	cmp	r3, #2
 8005bfc:	d002      	beq.n	8005c04 <USBD_GetConfig+0x2c>
 8005bfe:	2b03      	cmp	r3, #3
 8005c00:	d006      	beq.n	8005c10 <USBD_GetConfig+0x38>
 8005c02:	e00e      	b.n	8005c22 <USBD_GetConfig+0x4a>
      USBD_CtlSendData (pdev, 
 8005c04:	2201      	movs	r2, #1
 8005c06:	490b      	ldr	r1, [pc, #44]	; (8005c34 <USBD_GetConfig+0x5c>)
 8005c08:	6878      	ldr	r0, [r7, #4]
 8005c0a:	f7ff fc65 	bl	80054d8 <USBD_CtlSendData>
      break;
 8005c0e:	e00d      	b.n	8005c2c <USBD_GetConfig+0x54>
      USBD_CtlSendData (pdev, 
 8005c10:	687b      	ldr	r3, [r7, #4]
 8005c12:	f503 7388 	add.w	r3, r3, #272	; 0x110
 8005c16:	2201      	movs	r2, #1
 8005c18:	4619      	mov	r1, r3
 8005c1a:	6878      	ldr	r0, [r7, #4]
 8005c1c:	f7ff fc5c 	bl	80054d8 <USBD_CtlSendData>
      break;
 8005c20:	e004      	b.n	8005c2c <USBD_GetConfig+0x54>
       USBD_CtlError(pdev , req);
 8005c22:	6839      	ldr	r1, [r7, #0]
 8005c24:	6878      	ldr	r0, [r7, #4]
 8005c26:	f000 f90e 	bl	8005e46 <USBD_CtlError>
      break;
 8005c2a:	bf00      	nop
}
 8005c2c:	bf00      	nop
 8005c2e:	3708      	adds	r7, #8
 8005c30:	46bd      	mov	sp, r7
 8005c32:	bd80      	pop	{r7, pc}
 8005c34:	20007ea8 	.word	0x20007ea8

08005c38 <USBD_GetStatus>:
* @param  req: usb request
* @retval status
*/
static void USBD_GetStatus(USB_OTG_CORE_HANDLE  *pdev, 
                           USB_SETUP_REQ *req)
{
 8005c38:	b580      	push	{r7, lr}
 8005c3a:	b082      	sub	sp, #8
 8005c3c:	af00      	add	r7, sp, #0
 8005c3e:	6078      	str	r0, [r7, #4]
 8005c40:	6039      	str	r1, [r7, #0]
  
    
  switch (pdev->dev.device_status) 
 8005c42:	687b      	ldr	r3, [r7, #4]
 8005c44:	f893 3112 	ldrb.w	r3, [r3, #274]	; 0x112
 8005c48:	3b02      	subs	r3, #2
 8005c4a:	2b01      	cmp	r3, #1
 8005c4c:	d813      	bhi.n	8005c76 <USBD_GetStatus+0x3e>
  {
  case USB_OTG_ADDRESSED:
  case USB_OTG_CONFIGURED:
    
#ifdef USBD_SELF_POWERED
    USBD_cfg_status = USB_CONFIG_SELF_POWERED;                                    
 8005c4e:	4b0e      	ldr	r3, [pc, #56]	; (8005c88 <USBD_GetStatus+0x50>)
 8005c50:	2201      	movs	r2, #1
 8005c52:	601a      	str	r2, [r3, #0]
#else
    USBD_cfg_status = 0x00;                                    
#endif
                      
    if (pdev->dev.DevRemoteWakeup) 
 8005c54:	687b      	ldr	r3, [r7, #4]
 8005c56:	f8d3 3118 	ldr.w	r3, [r3, #280]	; 0x118
 8005c5a:	2b00      	cmp	r3, #0
 8005c5c:	d005      	beq.n	8005c6a <USBD_GetStatus+0x32>
    {
      USBD_cfg_status |= USB_CONFIG_REMOTE_WAKEUP;                                
 8005c5e:	4b0a      	ldr	r3, [pc, #40]	; (8005c88 <USBD_GetStatus+0x50>)
 8005c60:	681b      	ldr	r3, [r3, #0]
 8005c62:	f043 0302 	orr.w	r3, r3, #2
 8005c66:	4a08      	ldr	r2, [pc, #32]	; (8005c88 <USBD_GetStatus+0x50>)
 8005c68:	6013      	str	r3, [r2, #0]
    }
    
    USBD_CtlSendData (pdev, 
 8005c6a:	2202      	movs	r2, #2
 8005c6c:	4906      	ldr	r1, [pc, #24]	; (8005c88 <USBD_GetStatus+0x50>)
 8005c6e:	6878      	ldr	r0, [r7, #4]
 8005c70:	f7ff fc32 	bl	80054d8 <USBD_CtlSendData>
                      (uint8_t *)&USBD_cfg_status,
                      2);
    break;
 8005c74:	e004      	b.n	8005c80 <USBD_GetStatus+0x48>
    
  default :
    USBD_CtlError(pdev , req);                        
 8005c76:	6839      	ldr	r1, [r7, #0]
 8005c78:	6878      	ldr	r0, [r7, #4]
 8005c7a:	f000 f8e4 	bl	8005e46 <USBD_CtlError>
    break;
 8005c7e:	bf00      	nop
  }
}
 8005c80:	bf00      	nop
 8005c82:	3708      	adds	r7, #8
 8005c84:	46bd      	mov	sp, r7
 8005c86:	bd80      	pop	{r7, pc}
 8005c88:	20007eac 	.word	0x20007eac

08005c8c <USBD_SetFeature>:
* @param  req: usb request
* @retval status
*/
static void USBD_SetFeature(USB_OTG_CORE_HANDLE  *pdev, 
                            USB_SETUP_REQ *req)
{
 8005c8c:	b580      	push	{r7, lr}
 8005c8e:	b084      	sub	sp, #16
 8005c90:	af00      	add	r7, sp, #0
 8005c92:	6078      	str	r0, [r7, #4]
 8005c94:	6039      	str	r1, [r7, #0]

  USB_OTG_DCTL_TypeDef     dctl;
  uint8_t test_mode = 0;
 8005c96:	2300      	movs	r3, #0
 8005c98:	73fb      	strb	r3, [r7, #15]
 
  if (req->wValue == USB_FEATURE_REMOTE_WAKEUP)
 8005c9a:	683b      	ldr	r3, [r7, #0]
 8005c9c:	885b      	ldrh	r3, [r3, #2]
 8005c9e:	2b01      	cmp	r3, #1
 8005ca0:	d10e      	bne.n	8005cc0 <USBD_SetFeature+0x34>
  {
    pdev->dev.DevRemoteWakeup = 1;  
 8005ca2:	687b      	ldr	r3, [r7, #4]
 8005ca4:	2201      	movs	r2, #1
 8005ca6:	f8c3 2118 	str.w	r2, [r3, #280]	; 0x118
    pdev->dev.class_cb->Setup (pdev, req);   
 8005caa:	687b      	ldr	r3, [r7, #4]
 8005cac:	f8d3 35e4 	ldr.w	r3, [r3, #1508]	; 0x5e4
 8005cb0:	689b      	ldr	r3, [r3, #8]
 8005cb2:	6839      	ldr	r1, [r7, #0]
 8005cb4:	6878      	ldr	r0, [r7, #4]
 8005cb6:	4798      	blx	r3
    USBD_CtlSendStatus(pdev);
 8005cb8:	6878      	ldr	r0, [r7, #4]
 8005cba:	f7ff fc75 	bl	80055a8 <USBD_CtlSendStatus>
    SET_TEST_MODE = dctl;
    pdev->dev.test_mode = 1;
    USBD_CtlSendStatus(pdev);
  }

}
 8005cbe:	e04b      	b.n	8005d58 <USBD_SetFeature+0xcc>
  else if ((req->wValue == USB_FEATURE_TEST_MODE) && 
 8005cc0:	683b      	ldr	r3, [r7, #0]
 8005cc2:	885b      	ldrh	r3, [r3, #2]
 8005cc4:	2b02      	cmp	r3, #2
 8005cc6:	d147      	bne.n	8005d58 <USBD_SetFeature+0xcc>
           ((req->wIndex & 0xFF) == 0))
 8005cc8:	683b      	ldr	r3, [r7, #0]
 8005cca:	889b      	ldrh	r3, [r3, #4]
 8005ccc:	b2db      	uxtb	r3, r3
  else if ((req->wValue == USB_FEATURE_TEST_MODE) && 
 8005cce:	2b00      	cmp	r3, #0
 8005cd0:	d142      	bne.n	8005d58 <USBD_SetFeature+0xcc>
    dctl.d32 = USB_OTG_READ_REG32(&pdev->regs.DREGS->DCTL);
 8005cd2:	687b      	ldr	r3, [r7, #4]
 8005cd4:	691b      	ldr	r3, [r3, #16]
 8005cd6:	685b      	ldr	r3, [r3, #4]
 8005cd8:	60bb      	str	r3, [r7, #8]
    test_mode = req->wIndex >> 8;
 8005cda:	683b      	ldr	r3, [r7, #0]
 8005cdc:	889b      	ldrh	r3, [r3, #4]
 8005cde:	0a1b      	lsrs	r3, r3, #8
 8005ce0:	b29b      	uxth	r3, r3
 8005ce2:	73fb      	strb	r3, [r7, #15]
    switch (test_mode) 
 8005ce4:	7bfb      	ldrb	r3, [r7, #15]
 8005ce6:	3b01      	subs	r3, #1
 8005ce8:	2b04      	cmp	r3, #4
 8005cea:	d82b      	bhi.n	8005d44 <USBD_SetFeature+0xb8>
 8005cec:	a201      	add	r2, pc, #4	; (adr r2, 8005cf4 <USBD_SetFeature+0x68>)
 8005cee:	f852 f023 	ldr.w	pc, [r2, r3, lsl #2]
 8005cf2:	bf00      	nop
 8005cf4:	08005d09 	.word	0x08005d09
 8005cf8:	08005d15 	.word	0x08005d15
 8005cfc:	08005d21 	.word	0x08005d21
 8005d00:	08005d2d 	.word	0x08005d2d
 8005d04:	08005d39 	.word	0x08005d39
      dctl.b.tstctl = 1;
 8005d08:	7a3b      	ldrb	r3, [r7, #8]
 8005d0a:	2201      	movs	r2, #1
 8005d0c:	f362 1306 	bfi	r3, r2, #4, #3
 8005d10:	723b      	strb	r3, [r7, #8]
      break;
 8005d12:	e017      	b.n	8005d44 <USBD_SetFeature+0xb8>
      dctl.b.tstctl = 2;
 8005d14:	7a3b      	ldrb	r3, [r7, #8]
 8005d16:	2202      	movs	r2, #2
 8005d18:	f362 1306 	bfi	r3, r2, #4, #3
 8005d1c:	723b      	strb	r3, [r7, #8]
      break;
 8005d1e:	e011      	b.n	8005d44 <USBD_SetFeature+0xb8>
      dctl.b.tstctl = 3;
 8005d20:	7a3b      	ldrb	r3, [r7, #8]
 8005d22:	2203      	movs	r2, #3
 8005d24:	f362 1306 	bfi	r3, r2, #4, #3
 8005d28:	723b      	strb	r3, [r7, #8]
      break;
 8005d2a:	e00b      	b.n	8005d44 <USBD_SetFeature+0xb8>
      dctl.b.tstctl = 4;
 8005d2c:	7a3b      	ldrb	r3, [r7, #8]
 8005d2e:	2204      	movs	r2, #4
 8005d30:	f362 1306 	bfi	r3, r2, #4, #3
 8005d34:	723b      	strb	r3, [r7, #8]
      break;
 8005d36:	e005      	b.n	8005d44 <USBD_SetFeature+0xb8>
      dctl.b.tstctl = 5;
 8005d38:	7a3b      	ldrb	r3, [r7, #8]
 8005d3a:	2205      	movs	r2, #5
 8005d3c:	f362 1306 	bfi	r3, r2, #4, #3
 8005d40:	723b      	strb	r3, [r7, #8]
      break;
 8005d42:	bf00      	nop
    SET_TEST_MODE = dctl;
 8005d44:	4a06      	ldr	r2, [pc, #24]	; (8005d60 <USBD_SetFeature+0xd4>)
 8005d46:	68bb      	ldr	r3, [r7, #8]
 8005d48:	6013      	str	r3, [r2, #0]
    pdev->dev.test_mode = 1;
 8005d4a:	687b      	ldr	r3, [r7, #4]
 8005d4c:	2201      	movs	r2, #1
 8005d4e:	f883 2116 	strb.w	r2, [r3, #278]	; 0x116
    USBD_CtlSendStatus(pdev);
 8005d52:	6878      	ldr	r0, [r7, #4]
 8005d54:	f7ff fc28 	bl	80055a8 <USBD_CtlSendStatus>
}
 8005d58:	bf00      	nop
 8005d5a:	3710      	adds	r7, #16
 8005d5c:	46bd      	mov	sp, r7
 8005d5e:	bd80      	pop	{r7, pc}
 8005d60:	20008dc8 	.word	0x20008dc8

08005d64 <USBD_ClrFeature>:
* @param  req: usb request
* @retval status
*/
static void USBD_ClrFeature(USB_OTG_CORE_HANDLE  *pdev, 
                            USB_SETUP_REQ *req)
{
 8005d64:	b580      	push	{r7, lr}
 8005d66:	b082      	sub	sp, #8
 8005d68:	af00      	add	r7, sp, #0
 8005d6a:	6078      	str	r0, [r7, #4]
 8005d6c:	6039      	str	r1, [r7, #0]
  switch (pdev->dev.device_status)
 8005d6e:	687b      	ldr	r3, [r7, #4]
 8005d70:	f893 3112 	ldrb.w	r3, [r3, #274]	; 0x112
 8005d74:	3b02      	subs	r3, #2
 8005d76:	2b01      	cmp	r3, #1
 8005d78:	d812      	bhi.n	8005da0 <USBD_ClrFeature+0x3c>
  {
  case USB_OTG_ADDRESSED:
  case USB_OTG_CONFIGURED:
    if (req->wValue == USB_FEATURE_REMOTE_WAKEUP) 
 8005d7a:	683b      	ldr	r3, [r7, #0]
 8005d7c:	885b      	ldrh	r3, [r3, #2]
 8005d7e:	2b01      	cmp	r3, #1
 8005d80:	d113      	bne.n	8005daa <USBD_ClrFeature+0x46>
    {
      pdev->dev.DevRemoteWakeup = 0; 
 8005d82:	687b      	ldr	r3, [r7, #4]
 8005d84:	2200      	movs	r2, #0
 8005d86:	f8c3 2118 	str.w	r2, [r3, #280]	; 0x118
      pdev->dev.class_cb->Setup (pdev, req);   
 8005d8a:	687b      	ldr	r3, [r7, #4]
 8005d8c:	f8d3 35e4 	ldr.w	r3, [r3, #1508]	; 0x5e4
 8005d90:	689b      	ldr	r3, [r3, #8]
 8005d92:	6839      	ldr	r1, [r7, #0]
 8005d94:	6878      	ldr	r0, [r7, #4]
 8005d96:	4798      	blx	r3
      USBD_CtlSendStatus(pdev);
 8005d98:	6878      	ldr	r0, [r7, #4]
 8005d9a:	f7ff fc05 	bl	80055a8 <USBD_CtlSendStatus>
    }
    break;
 8005d9e:	e004      	b.n	8005daa <USBD_ClrFeature+0x46>
    
  default :
     USBD_CtlError(pdev , req);
 8005da0:	6839      	ldr	r1, [r7, #0]
 8005da2:	6878      	ldr	r0, [r7, #4]
 8005da4:	f000 f84f 	bl	8005e46 <USBD_CtlError>
    break;
 8005da8:	e000      	b.n	8005dac <USBD_ClrFeature+0x48>
    break;
 8005daa:	bf00      	nop
  }
}
 8005dac:	bf00      	nop
 8005dae:	3708      	adds	r7, #8
 8005db0:	46bd      	mov	sp, r7
 8005db2:	bd80      	pop	{r7, pc}

08005db4 <USBD_ParseSetupRequest>:
* @retval None
*/

void USBD_ParseSetupRequest( USB_OTG_CORE_HANDLE  *pdev,
                            USB_SETUP_REQ *req)
{
 8005db4:	b480      	push	{r7}
 8005db6:	b083      	sub	sp, #12
 8005db8:	af00      	add	r7, sp, #0
 8005dba:	6078      	str	r0, [r7, #4]
 8005dbc:	6039      	str	r1, [r7, #0]
  req->bmRequest     = *(uint8_t *)  (pdev->dev.setup_packet);
 8005dbe:	687b      	ldr	r3, [r7, #4]
 8005dc0:	f893 25cc 	ldrb.w	r2, [r3, #1484]	; 0x5cc
 8005dc4:	683b      	ldr	r3, [r7, #0]
 8005dc6:	701a      	strb	r2, [r3, #0]
  req->bRequest      = *(uint8_t *)  (pdev->dev.setup_packet +  1);
 8005dc8:	687b      	ldr	r3, [r7, #4]
 8005dca:	f893 25cd 	ldrb.w	r2, [r3, #1485]	; 0x5cd
 8005dce:	683b      	ldr	r3, [r7, #0]
 8005dd0:	705a      	strb	r2, [r3, #1]
  req->wValue        = SWAPBYTE      (pdev->dev.setup_packet +  2);
 8005dd2:	687b      	ldr	r3, [r7, #4]
 8005dd4:	f893 35ce 	ldrb.w	r3, [r3, #1486]	; 0x5ce
 8005dd8:	b29a      	uxth	r2, r3
 8005dda:	687b      	ldr	r3, [r7, #4]
 8005ddc:	f893 35cf 	ldrb.w	r3, [r3, #1487]	; 0x5cf
 8005de0:	b29b      	uxth	r3, r3
 8005de2:	021b      	lsls	r3, r3, #8
 8005de4:	b29b      	uxth	r3, r3
 8005de6:	4413      	add	r3, r2
 8005de8:	b29a      	uxth	r2, r3
 8005dea:	683b      	ldr	r3, [r7, #0]
 8005dec:	805a      	strh	r2, [r3, #2]
  req->wIndex        = SWAPBYTE      (pdev->dev.setup_packet +  4);
 8005dee:	687b      	ldr	r3, [r7, #4]
 8005df0:	f893 35d0 	ldrb.w	r3, [r3, #1488]	; 0x5d0
 8005df4:	b29a      	uxth	r2, r3
 8005df6:	687b      	ldr	r3, [r7, #4]
 8005df8:	f893 35d1 	ldrb.w	r3, [r3, #1489]	; 0x5d1
 8005dfc:	b29b      	uxth	r3, r3
 8005dfe:	021b      	lsls	r3, r3, #8
 8005e00:	b29b      	uxth	r3, r3
 8005e02:	4413      	add	r3, r2
 8005e04:	b29a      	uxth	r2, r3
 8005e06:	683b      	ldr	r3, [r7, #0]
 8005e08:	809a      	strh	r2, [r3, #4]
  req->wLength       = SWAPBYTE      (pdev->dev.setup_packet +  6);
 8005e0a:	687b      	ldr	r3, [r7, #4]
 8005e0c:	f893 35d2 	ldrb.w	r3, [r3, #1490]	; 0x5d2
 8005e10:	b29a      	uxth	r2, r3
 8005e12:	687b      	ldr	r3, [r7, #4]
 8005e14:	f893 35d3 	ldrb.w	r3, [r3, #1491]	; 0x5d3
 8005e18:	b29b      	uxth	r3, r3
 8005e1a:	021b      	lsls	r3, r3, #8
 8005e1c:	b29b      	uxth	r3, r3
 8005e1e:	4413      	add	r3, r2
 8005e20:	b29a      	uxth	r2, r3
 8005e22:	683b      	ldr	r3, [r7, #0]
 8005e24:	80da      	strh	r2, [r3, #6]
  
  pdev->dev.in_ep[0].ctl_data_len = req->wLength  ;
 8005e26:	683b      	ldr	r3, [r7, #0]
 8005e28:	88db      	ldrh	r3, [r3, #6]
 8005e2a:	461a      	mov	r2, r3
 8005e2c:	687b      	ldr	r3, [r7, #4]
 8005e2e:	f8c3 2140 	str.w	r2, [r3, #320]	; 0x140
  pdev->dev.device_state = USB_OTG_EP0_SETUP;
 8005e32:	687b      	ldr	r3, [r7, #4]
 8005e34:	2201      	movs	r2, #1
 8005e36:	f883 2111 	strb.w	r2, [r3, #273]	; 0x111
}
 8005e3a:	bf00      	nop
 8005e3c:	370c      	adds	r7, #12
 8005e3e:	46bd      	mov	sp, r7
 8005e40:	f85d 7b04 	ldr.w	r7, [sp], #4
 8005e44:	4770      	bx	lr

08005e46 <USBD_CtlError>:
* @retval None
*/

void USBD_CtlError( USB_OTG_CORE_HANDLE  *pdev,
                            USB_SETUP_REQ *req)
{
 8005e46:	b580      	push	{r7, lr}
 8005e48:	b082      	sub	sp, #8
 8005e4a:	af00      	add	r7, sp, #0
 8005e4c:	6078      	str	r0, [r7, #4]
 8005e4e:	6039      	str	r1, [r7, #0]
  
  DCD_EP_Stall(pdev , 0x80);
 8005e50:	2180      	movs	r1, #128	; 0x80
 8005e52:	6878      	ldr	r0, [r7, #4]
 8005e54:	f7fd fff0 	bl	8003e38 <DCD_EP_Stall>
  DCD_EP_Stall(pdev , 0);
 8005e58:	2100      	movs	r1, #0
 8005e5a:	6878      	ldr	r0, [r7, #4]
 8005e5c:	f7fd ffec 	bl	8003e38 <DCD_EP_Stall>
  USB_OTG_EP0_OutStart(pdev);  
 8005e60:	6878      	ldr	r0, [r7, #4]
 8005e62:	f7fd fe1b 	bl	8003a9c <USB_OTG_EP0_OutStart>
}
 8005e66:	bf00      	nop
 8005e68:	3708      	adds	r7, #8
 8005e6a:	46bd      	mov	sp, r7
 8005e6c:	bd80      	pop	{r7, pc}

08005e6e <USBD_GetString>:
  * @param  unicode : Formatted string buffer (unicode)
  * @param  len : descriptor length
  * @retval None
  */
void USBD_GetString(uint8_t *desc, uint8_t *unicode, uint16_t *len)
{
 8005e6e:	b580      	push	{r7, lr}
 8005e70:	b086      	sub	sp, #24
 8005e72:	af00      	add	r7, sp, #0
 8005e74:	60f8      	str	r0, [r7, #12]
 8005e76:	60b9      	str	r1, [r7, #8]
 8005e78:	607a      	str	r2, [r7, #4]
  uint8_t idx = 0;
 8005e7a:	2300      	movs	r3, #0
 8005e7c:	75fb      	strb	r3, [r7, #23]
  
  if (desc != NULL) 
 8005e7e:	68fb      	ldr	r3, [r7, #12]
 8005e80:	2b00      	cmp	r3, #0
 8005e82:	d033      	beq.n	8005eec <USBD_GetString+0x7e>
  {
    *len =  USBD_GetLen(desc) * 2 + 2;    
 8005e84:	68f8      	ldr	r0, [r7, #12]
 8005e86:	f000 f835 	bl	8005ef4 <USBD_GetLen>
 8005e8a:	4603      	mov	r3, r0
 8005e8c:	3301      	adds	r3, #1
 8005e8e:	b29b      	uxth	r3, r3
 8005e90:	005b      	lsls	r3, r3, #1
 8005e92:	b29a      	uxth	r2, r3
 8005e94:	687b      	ldr	r3, [r7, #4]
 8005e96:	801a      	strh	r2, [r3, #0]
    unicode[idx++] = *len;
 8005e98:	7dfb      	ldrb	r3, [r7, #23]
 8005e9a:	1c5a      	adds	r2, r3, #1
 8005e9c:	75fa      	strb	r2, [r7, #23]
 8005e9e:	461a      	mov	r2, r3
 8005ea0:	68bb      	ldr	r3, [r7, #8]
 8005ea2:	4413      	add	r3, r2
 8005ea4:	687a      	ldr	r2, [r7, #4]
 8005ea6:	8812      	ldrh	r2, [r2, #0]
 8005ea8:	b2d2      	uxtb	r2, r2
 8005eaa:	701a      	strb	r2, [r3, #0]
    unicode[idx++] =  USB_DESC_TYPE_STRING;
 8005eac:	7dfb      	ldrb	r3, [r7, #23]
 8005eae:	1c5a      	adds	r2, r3, #1
 8005eb0:	75fa      	strb	r2, [r7, #23]
 8005eb2:	461a      	mov	r2, r3
 8005eb4:	68bb      	ldr	r3, [r7, #8]
 8005eb6:	4413      	add	r3, r2
 8005eb8:	2203      	movs	r2, #3
 8005eba:	701a      	strb	r2, [r3, #0]
    
    while (*desc != NULL) 
 8005ebc:	e012      	b.n	8005ee4 <USBD_GetString+0x76>
    {
      unicode[idx++] = *desc++;
 8005ebe:	7dfb      	ldrb	r3, [r7, #23]
 8005ec0:	1c5a      	adds	r2, r3, #1
 8005ec2:	75fa      	strb	r2, [r7, #23]
 8005ec4:	461a      	mov	r2, r3
 8005ec6:	68bb      	ldr	r3, [r7, #8]
 8005ec8:	441a      	add	r2, r3
 8005eca:	68fb      	ldr	r3, [r7, #12]
 8005ecc:	1c59      	adds	r1, r3, #1
 8005ece:	60f9      	str	r1, [r7, #12]
 8005ed0:	781b      	ldrb	r3, [r3, #0]
 8005ed2:	7013      	strb	r3, [r2, #0]
      unicode[idx++] =  0x00;
 8005ed4:	7dfb      	ldrb	r3, [r7, #23]
 8005ed6:	1c5a      	adds	r2, r3, #1
 8005ed8:	75fa      	strb	r2, [r7, #23]
 8005eda:	461a      	mov	r2, r3
 8005edc:	68bb      	ldr	r3, [r7, #8]
 8005ede:	4413      	add	r3, r2
 8005ee0:	2200      	movs	r2, #0
 8005ee2:	701a      	strb	r2, [r3, #0]
    while (*desc != NULL) 
 8005ee4:	68fb      	ldr	r3, [r7, #12]
 8005ee6:	781b      	ldrb	r3, [r3, #0]
 8005ee8:	2b00      	cmp	r3, #0
 8005eea:	d1e8      	bne.n	8005ebe <USBD_GetString+0x50>
    }
  } 
}
 8005eec:	bf00      	nop
 8005eee:	3718      	adds	r7, #24
 8005ef0:	46bd      	mov	sp, r7
 8005ef2:	bd80      	pop	{r7, pc}

08005ef4 <USBD_GetLen>:
  *         return the string length
   * @param  buf : pointer to the ascii string buffer
  * @retval string length
  */
static uint8_t USBD_GetLen(uint8_t *buf)
{
 8005ef4:	b480      	push	{r7}
 8005ef6:	b085      	sub	sp, #20
 8005ef8:	af00      	add	r7, sp, #0
 8005efa:	6078      	str	r0, [r7, #4]
    uint8_t  len = 0;
 8005efc:	2300      	movs	r3, #0
 8005efe:	73fb      	strb	r3, [r7, #15]

    while (*buf != NULL) 
 8005f00:	e005      	b.n	8005f0e <USBD_GetLen+0x1a>
    {
        len++;
 8005f02:	7bfb      	ldrb	r3, [r7, #15]
 8005f04:	3301      	adds	r3, #1
 8005f06:	73fb      	strb	r3, [r7, #15]
        buf++;
 8005f08:	687b      	ldr	r3, [r7, #4]
 8005f0a:	3301      	adds	r3, #1
 8005f0c:	607b      	str	r3, [r7, #4]
    while (*buf != NULL) 
 8005f0e:	687b      	ldr	r3, [r7, #4]
 8005f10:	781b      	ldrb	r3, [r3, #0]
 8005f12:	2b00      	cmp	r3, #0
 8005f14:	d1f5      	bne.n	8005f02 <USBD_GetLen+0xe>
    }

    return len;
 8005f16:	7bfb      	ldrb	r3, [r7, #15]
}
 8005f18:	4618      	mov	r0, r3
 8005f1a:	3714      	adds	r7, #20
 8005f1c:	46bd      	mov	sp, r7
 8005f1e:	f85d 7b04 	ldr.w	r7, [sp], #4
 8005f22:	4770      	bx	lr

08005f24 <USBD_USR_Init>:
  USBD_USR_DeviceResumed,
  USBD_USR_DeviceConnected,
  USBD_USR_DeviceDisconnected,    
};

void USBD_USR_Init(void) {
 8005f24:	b480      	push	{r7}
 8005f26:	af00      	add	r7, sp, #0
	TM_USB_VCP_INT_Status = TM_USB_VCP_NOT_CONNECTED;
 8005f28:	4b03      	ldr	r3, [pc, #12]	; (8005f38 <USBD_USR_Init+0x14>)
 8005f2a:	2205      	movs	r2, #5
 8005f2c:	701a      	strb	r2, [r3, #0]
}
 8005f2e:	bf00      	nop
 8005f30:	46bd      	mov	sp, r7
 8005f32:	f85d 7b04 	ldr.w	r7, [sp], #4
 8005f36:	4770      	bx	lr
 8005f38:	20007e04 	.word	0x20007e04

08005f3c <USBD_USR_DeviceReset>:

void USBD_USR_DeviceReset(uint8_t speed ) {
 8005f3c:	b480      	push	{r7}
 8005f3e:	b083      	sub	sp, #12
 8005f40:	af00      	add	r7, sp, #0
 8005f42:	4603      	mov	r3, r0
 8005f44:	71fb      	strb	r3, [r7, #7]
	TM_USB_VCP_INT_Status = TM_USB_VCP_NOT_CONNECTED;
 8005f46:	4b04      	ldr	r3, [pc, #16]	; (8005f58 <USBD_USR_DeviceReset+0x1c>)
 8005f48:	2205      	movs	r2, #5
 8005f4a:	701a      	strb	r2, [r3, #0]
}
 8005f4c:	bf00      	nop
 8005f4e:	370c      	adds	r7, #12
 8005f50:	46bd      	mov	sp, r7
 8005f52:	f85d 7b04 	ldr.w	r7, [sp], #4
 8005f56:	4770      	bx	lr
 8005f58:	20007e04 	.word	0x20007e04

08005f5c <USBD_USR_DeviceConfigured>:

void USBD_USR_DeviceConfigured (void) {
 8005f5c:	b480      	push	{r7}
 8005f5e:	af00      	add	r7, sp, #0
	TM_USB_VCP_INT_Status = TM_USB_VCP_CONNECTED;
 8005f60:	4b03      	ldr	r3, [pc, #12]	; (8005f70 <USBD_USR_DeviceConfigured+0x14>)
 8005f62:	2206      	movs	r2, #6
 8005f64:	701a      	strb	r2, [r3, #0]
}
 8005f66:	bf00      	nop
 8005f68:	46bd      	mov	sp, r7
 8005f6a:	f85d 7b04 	ldr.w	r7, [sp], #4
 8005f6e:	4770      	bx	lr
 8005f70:	20007e04 	.word	0x20007e04

08005f74 <USBD_USR_DeviceSuspended>:

void USBD_USR_DeviceSuspended(void) {
 8005f74:	b480      	push	{r7}
 8005f76:	af00      	add	r7, sp, #0
	TM_USB_VCP_INT_Status = TM_USB_VCP_NOT_CONNECTED;
 8005f78:	4b03      	ldr	r3, [pc, #12]	; (8005f88 <USBD_USR_DeviceSuspended+0x14>)
 8005f7a:	2205      	movs	r2, #5
 8005f7c:	701a      	strb	r2, [r3, #0]
}
 8005f7e:	bf00      	nop
 8005f80:	46bd      	mov	sp, r7
 8005f82:	f85d 7b04 	ldr.w	r7, [sp], #4
 8005f86:	4770      	bx	lr
 8005f88:	20007e04 	.word	0x20007e04

08005f8c <USBD_USR_DeviceResumed>:

void USBD_USR_DeviceResumed(void) {
 8005f8c:	b480      	push	{r7}
 8005f8e:	af00      	add	r7, sp, #0
	TM_USB_VCP_INT_Status = TM_USB_VCP_NOT_CONNECTED;
 8005f90:	4b03      	ldr	r3, [pc, #12]	; (8005fa0 <USBD_USR_DeviceResumed+0x14>)
 8005f92:	2205      	movs	r2, #5
 8005f94:	701a      	strb	r2, [r3, #0]
}
 8005f96:	bf00      	nop
 8005f98:	46bd      	mov	sp, r7
 8005f9a:	f85d 7b04 	ldr.w	r7, [sp], #4
 8005f9e:	4770      	bx	lr
 8005fa0:	20007e04 	.word	0x20007e04

08005fa4 <USBD_USR_DeviceConnected>:

void USBD_USR_DeviceConnected (void) {
 8005fa4:	b480      	push	{r7}
 8005fa6:	af00      	add	r7, sp, #0
	TM_USB_VCP_INT_Status = TM_USB_VCP_NOT_CONNECTED;
 8005fa8:	4b03      	ldr	r3, [pc, #12]	; (8005fb8 <USBD_USR_DeviceConnected+0x14>)
 8005faa:	2205      	movs	r2, #5
 8005fac:	701a      	strb	r2, [r3, #0]
}
 8005fae:	bf00      	nop
 8005fb0:	46bd      	mov	sp, r7
 8005fb2:	f85d 7b04 	ldr.w	r7, [sp], #4
 8005fb6:	4770      	bx	lr
 8005fb8:	20007e04 	.word	0x20007e04

08005fbc <USBD_USR_DeviceDisconnected>:

void USBD_USR_DeviceDisconnected (void) {
 8005fbc:	b480      	push	{r7}
 8005fbe:	af00      	add	r7, sp, #0
	TM_USB_VCP_INT_Status = TM_USB_VCP_NOT_CONNECTED;
 8005fc0:	4b03      	ldr	r3, [pc, #12]	; (8005fd0 <USBD_USR_DeviceDisconnected+0x14>)
 8005fc2:	2205      	movs	r2, #5
 8005fc4:	701a      	strb	r2, [r3, #0]
}
 8005fc6:	bf00      	nop
 8005fc8:	46bd      	mov	sp, r7
 8005fca:	f85d 7b04 	ldr.w	r7, [sp], #4
 8005fce:	4770      	bx	lr
 8005fd0:	20007e04 	.word	0x20007e04
 8005fd4:	00000000 	.word	0x00000000

08005fd8 <checkUSB>:
uint8_t c;
/* Private function prototypes */
void checkUSB(void);
void SysInit(void);
/* Private functions */
void checkUSB(void){
 8005fd8:	b580      	push	{r7, lr}
 8005fda:	af00      	add	r7, sp, #0
	if (TM_USB_VCP_Getc(&c) == TM_USB_VCP_DATA_OK) {
 8005fdc:	4834      	ldr	r0, [pc, #208]	; (80060b0 <checkUSB+0xd8>)
 8005fde:	f7fc fb41 	bl	8002664 <TM_USB_VCP_Getc>
 8005fe2:	4603      	mov	r3, r0
 8005fe4:	2b03      	cmp	r3, #3
 8005fe6:	d15b      	bne.n	80060a0 <checkUSB+0xc8>
		if(c=='1'){
 8005fe8:	4b31      	ldr	r3, [pc, #196]	; (80060b0 <checkUSB+0xd8>)
 8005fea:	781b      	ldrb	r3, [r3, #0]
 8005fec:	2b31      	cmp	r3, #49	; 0x31
 8005fee:	d129      	bne.n	8006044 <checkUSB+0x6c>
			TM_DISCO_LedOn(LED_BLUE);
 8005ff0:	4b30      	ldr	r3, [pc, #192]	; (80060b4 <checkUSB+0xdc>)
 8005ff2:	f44f 4200 	mov.w	r2, #32768	; 0x8000
 8005ff6:	831a      	strh	r2, [r3, #24]
			TM_DISCO_LedOn(LED_RED);
 8005ff8:	4b2e      	ldr	r3, [pc, #184]	; (80060b4 <checkUSB+0xdc>)
 8005ffa:	f44f 4280 	mov.w	r2, #16384	; 0x4000
 8005ffe:	831a      	strh	r2, [r3, #24]
			TM_DISCO_LedOn(LED_GREEN);
 8006000:	4b2c      	ldr	r3, [pc, #176]	; (80060b4 <checkUSB+0xdc>)
 8006002:	f44f 5280 	mov.w	r2, #4096	; 0x1000
 8006006:	831a      	strh	r2, [r3, #24]
			TM_DISCO_LedOn(LED_ORANGE);
 8006008:	4b2a      	ldr	r3, [pc, #168]	; (80060b4 <checkUSB+0xdc>)
 800600a:	f44f 5200 	mov.w	r2, #8192	; 0x2000
 800600e:	831a      	strh	r2, [r3, #24]
			DMAcounter=0;
 8006010:	4b29      	ldr	r3, [pc, #164]	; (80060b8 <checkUSB+0xe0>)
 8006012:	2200      	movs	r2, #0
 8006014:	701a      	strb	r2, [r3, #0]
			ADCcounter=0;
 8006016:	4b29      	ldr	r3, [pc, #164]	; (80060bc <checkUSB+0xe4>)
 8006018:	2200      	movs	r2, #0
 800601a:	701a      	strb	r2, [r3, #0]
			TM_DAC_SIGNAL_Init(TM_DAC1, TIM4);
 800601c:	4928      	ldr	r1, [pc, #160]	; (80060c0 <checkUSB+0xe8>)
 800601e:	2000      	movs	r0, #0
 8006020:	f7fb fc04 	bl	800182c <TM_DAC_SIGNAL_Init>
			ADC_Cmd (ADC1, ENABLE);
 8006024:	2101      	movs	r1, #1
 8006026:	4827      	ldr	r0, [pc, #156]	; (80060c4 <checkUSB+0xec>)
 8006028:	f7fa fe34 	bl	8000c94 <ADC_Cmd>
			TM_DAC_SIGNAL_SetSignal(TM_DAC1, TM_DAC_SIGNAL_Signal_Chirp, 160000);
 800602c:	ed9f 0b1e 	vldr	d0, [pc, #120]	; 80060a8 <checkUSB+0xd0>
 8006030:	2100      	movs	r1, #0
 8006032:	2000      	movs	r0, #0
 8006034:	f7fb fc4c 	bl	80018d0 <TM_DAC_SIGNAL_SetSignal>
			ADC_SoftwareStartConv(ADC1);
 8006038:	4822      	ldr	r0, [pc, #136]	; (80060c4 <checkUSB+0xec>)
 800603a:	f7fa ff11 	bl	8000e60 <ADC_SoftwareStartConv>
			TM_DMA_EnableInterrupts(DAC_SIGNAL_DMA_DAC1_STREAM);
 800603e:	4822      	ldr	r0, [pc, #136]	; (80060c8 <checkUSB+0xf0>)
 8006040:	f7fb fede 	bl	8001e00 <TM_DMA_EnableInterrupts>
		}
		if(c=='2'){
 8006044:	4b1a      	ldr	r3, [pc, #104]	; (80060b0 <checkUSB+0xd8>)
 8006046:	781b      	ldrb	r3, [r3, #0]
 8006048:	2b32      	cmp	r3, #50	; 0x32
 800604a:	d129      	bne.n	80060a0 <checkUSB+0xc8>
			TM_DISCO_LedOn(LED_BLUE);
 800604c:	4b19      	ldr	r3, [pc, #100]	; (80060b4 <checkUSB+0xdc>)
 800604e:	f44f 4200 	mov.w	r2, #32768	; 0x8000
 8006052:	831a      	strh	r2, [r3, #24]
			TM_DISCO_LedOn(LED_RED);
 8006054:	4b17      	ldr	r3, [pc, #92]	; (80060b4 <checkUSB+0xdc>)
 8006056:	f44f 4280 	mov.w	r2, #16384	; 0x4000
 800605a:	831a      	strh	r2, [r3, #24]
			TM_DISCO_LedOn(LED_GREEN);
 800605c:	4b15      	ldr	r3, [pc, #84]	; (80060b4 <checkUSB+0xdc>)
 800605e:	f44f 5280 	mov.w	r2, #4096	; 0x1000
 8006062:	831a      	strh	r2, [r3, #24]
			TM_DISCO_LedOn(LED_ORANGE);
 8006064:	4b13      	ldr	r3, [pc, #76]	; (80060b4 <checkUSB+0xdc>)
 8006066:	f44f 5200 	mov.w	r2, #8192	; 0x2000
 800606a:	831a      	strh	r2, [r3, #24]
			DMAcounter=0;
 800606c:	4b12      	ldr	r3, [pc, #72]	; (80060b8 <checkUSB+0xe0>)
 800606e:	2200      	movs	r2, #0
 8006070:	701a      	strb	r2, [r3, #0]
			ADCcounter=0;
 8006072:	4b12      	ldr	r3, [pc, #72]	; (80060bc <checkUSB+0xe4>)
 8006074:	2200      	movs	r2, #0
 8006076:	701a      	strb	r2, [r3, #0]
			TM_DAC_SIGNAL_Init(TM_DAC1, TIM4);
 8006078:	4911      	ldr	r1, [pc, #68]	; (80060c0 <checkUSB+0xe8>)
 800607a:	2000      	movs	r0, #0
 800607c:	f7fb fbd6 	bl	800182c <TM_DAC_SIGNAL_Init>
			ADC_Cmd (ADC1, ENABLE);
 8006080:	2101      	movs	r1, #1
 8006082:	4810      	ldr	r0, [pc, #64]	; (80060c4 <checkUSB+0xec>)
 8006084:	f7fa fe06 	bl	8000c94 <ADC_Cmd>
			TM_DAC_SIGNAL_SetSignal(TM_DAC1, TM_DAC_SIGNAL_Signal_Sinus, 160000);
 8006088:	ed9f 0b07 	vldr	d0, [pc, #28]	; 80060a8 <checkUSB+0xd0>
 800608c:	2101      	movs	r1, #1
 800608e:	2000      	movs	r0, #0
 8006090:	f7fb fc1e 	bl	80018d0 <TM_DAC_SIGNAL_SetSignal>
			ADC_SoftwareStartConv(ADC1);
 8006094:	480b      	ldr	r0, [pc, #44]	; (80060c4 <checkUSB+0xec>)
 8006096:	f7fa fee3 	bl	8000e60 <ADC_SoftwareStartConv>
			TM_DMA_EnableInterrupts(DAC_SIGNAL_DMA_DAC1_STREAM);
 800609a:	480b      	ldr	r0, [pc, #44]	; (80060c8 <checkUSB+0xf0>)
 800609c:	f7fb feb0 	bl	8001e00 <TM_DMA_EnableInterrupts>
		}
	}
}
 80060a0:	bf00      	nop
 80060a2:	bd80      	pop	{r7, pc}
 80060a4:	f3af 8000 	nop.w
 80060a8:	00000000 	.word	0x00000000
 80060ac:	41038800 	.word	0x41038800
 80060b0:	20008ece 	.word	0x20008ece
 80060b4:	40020c00 	.word	0x40020c00
 80060b8:	20007eb1 	.word	0x20007eb1
 80060bc:	20007eb2 	.word	0x20007eb2
 80060c0:	40000800 	.word	0x40000800
 80060c4:	40012000 	.word	0x40012000
 80060c8:	40026088 	.word	0x40026088

080060cc <SysInit>:

void SysInit(void){
 80060cc:	b580      	push	{r7, lr}
 80060ce:	b08e      	sub	sp, #56	; 0x38
 80060d0:	af00      	add	r7, sp, #0
	TM_USB_VCP_Init();
 80060d2:	f7fc fa9b 	bl	800260c <TM_USB_VCP_Init>
	TM_DISCO_LedInit();
 80060d6:	f7fb fde3 	bl	8001ca0 <TM_DISCO_LedInit>

    RCC_AHB1PeriphClockCmd(RCC_AHB1Periph_GPIOA, ENABLE);
 80060da:	2101      	movs	r1, #1
 80060dc:	2001      	movs	r0, #1
 80060de:	f7fb fa83 	bl	80015e8 <RCC_AHB1PeriphClockCmd>
	RCC_APB2PeriphClockCmd(RCC_APB2Periph_ADC1, ENABLE);
 80060e2:	2101      	movs	r1, #1
 80060e4:	f44f 7080 	mov.w	r0, #256	; 0x100
 80060e8:	f7fb fabe 	bl	8001668 <RCC_APB2PeriphClockCmd>

	GPIO_InitTypeDef      GPIO_InitStructure;
	GPIO_InitStructure.GPIO_Pin =  GPIO_Pin_0;
 80060ec:	2301      	movs	r3, #1
 80060ee:	633b      	str	r3, [r7, #48]	; 0x30
	GPIO_InitStructure.GPIO_Mode = GPIO_Mode_AN;
 80060f0:	2303      	movs	r3, #3
 80060f2:	f887 3034 	strb.w	r3, [r7, #52]	; 0x34
	GPIO_InitStructure.GPIO_PuPd = GPIO_PuPd_NOPULL ;
 80060f6:	2300      	movs	r3, #0
 80060f8:	f887 3037 	strb.w	r3, [r7, #55]	; 0x37
	GPIO_Init(GPIOA, &GPIO_InitStructure);
 80060fc:	f107 0330 	add.w	r3, r7, #48	; 0x30
 8006100:	4619      	mov	r1, r3
 8006102:	4823      	ldr	r0, [pc, #140]	; (8006190 <SysInit+0xc4>)
 8006104:	f7fb f8f0 	bl	80012e8 <GPIO_Init>

	NVIC_InitTypeDef NVIC_InitStruct;

	NVIC_InitStruct.NVIC_IRQChannel = ADC_IRQn;
 8006108:	2312      	movs	r3, #18
 800610a:	f887 302c 	strb.w	r3, [r7, #44]	; 0x2c
	NVIC_InitStruct.NVIC_IRQChannelCmd = ENABLE;
 800610e:	2301      	movs	r3, #1
 8006110:	f887 302f 	strb.w	r3, [r7, #47]	; 0x2f
	NVIC_InitStruct.NVIC_IRQChannelPreemptionPriority = 1;
 8006114:	2301      	movs	r3, #1
 8006116:	f887 302d 	strb.w	r3, [r7, #45]	; 0x2d
	NVIC_InitStruct.NVIC_IRQChannelSubPriority = 0;
 800611a:	2300      	movs	r3, #0
 800611c:	f887 302e 	strb.w	r3, [r7, #46]	; 0x2e
	NVIC_Init(&NVIC_InitStruct);
 8006120:	f107 032c 	add.w	r3, r7, #44	; 0x2c
 8006124:	4618      	mov	r0, r3
 8006126:	f7fa fcd5 	bl	8000ad4 <NVIC_Init>

	ADC_ITConfig(ADC1, ADC_IT_EOC, ENABLE);
 800612a:	2201      	movs	r2, #1
 800612c:	f240 2105 	movw	r1, #517	; 0x205
 8006130:	4818      	ldr	r0, [pc, #96]	; (8006194 <SysInit+0xc8>)
 8006132:	f7fa feb2 	bl	8000e9a <ADC_ITConfig>

	ADC_InitTypeDef       ADC_InitStructure;
	ADC_InitStructure.ADC_Resolution = ADC_Resolution_12b;
 8006136:	2300      	movs	r3, #0
 8006138:	617b      	str	r3, [r7, #20]
	ADC_InitStructure.ADC_ScanConvMode = DISABLE;
 800613a:	2300      	movs	r3, #0
 800613c:	763b      	strb	r3, [r7, #24]
	ADC_InitStructure.ADC_ContinuousConvMode = ENABLE;
 800613e:	2301      	movs	r3, #1
 8006140:	767b      	strb	r3, [r7, #25]
	ADC_InitStructure.ADC_ExternalTrigConv = DISABLE;
 8006142:	2300      	movs	r3, #0
 8006144:	623b      	str	r3, [r7, #32]
	ADC_InitStructure.ADC_ExternalTrigConvEdge = ADC_ExternalTrigConvEdge_None;
 8006146:	2300      	movs	r3, #0
 8006148:	61fb      	str	r3, [r7, #28]
	ADC_InitStructure.ADC_DataAlign = ADC_DataAlign_Right;
 800614a:	2300      	movs	r3, #0
 800614c:	627b      	str	r3, [r7, #36]	; 0x24
	ADC_InitStructure.ADC_NbrOfConversion = 1;
 800614e:	2301      	movs	r3, #1
 8006150:	f887 3028 	strb.w	r3, [r7, #40]	; 0x28
	ADC_Init(ADC1, &ADC_InitStructure);
 8006154:	f107 0314 	add.w	r3, r7, #20
 8006158:	4619      	mov	r1, r3
 800615a:	480e      	ldr	r0, [pc, #56]	; (8006194 <SysInit+0xc8>)
 800615c:	f7fa fd1c 	bl	8000b98 <ADC_Init>

	ADC_CommonInitTypeDef ADC_CommonInitStructure;
	ADC_CommonInitStructure.ADC_Mode = ADC_Mode_Independent;
 8006160:	2300      	movs	r3, #0
 8006162:	607b      	str	r3, [r7, #4]
	ADC_CommonInitStructure.ADC_Prescaler = ADC_Prescaler_Div8;
 8006164:	f44f 3340 	mov.w	r3, #196608	; 0x30000
 8006168:	60bb      	str	r3, [r7, #8]
	ADC_CommonInitStructure.ADC_DMAAccessMode = ADC_DMAAccessMode_Disabled;
 800616a:	2300      	movs	r3, #0
 800616c:	60fb      	str	r3, [r7, #12]
	ADC_CommonInitStructure.ADC_TwoSamplingDelay = ADC_TwoSamplingDelay_5Cycles;
 800616e:	2300      	movs	r3, #0
 8006170:	613b      	str	r3, [r7, #16]
	ADC_CommonInit(&ADC_CommonInitStructure);
 8006172:	1d3b      	adds	r3, r7, #4
 8006174:	4618      	mov	r0, r3
 8006176:	f7fa fd65 	bl	8000c44 <ADC_CommonInit>
	ADC_RegularChannelConfig(ADC1, ADC_Channel_0, 1, ADC_SampleTime_112Cycles);
 800617a:	2305      	movs	r3, #5
 800617c:	2201      	movs	r2, #1
 800617e:	2100      	movs	r1, #0
 8006180:	4804      	ldr	r0, [pc, #16]	; (8006194 <SysInit+0xc8>)
 8006182:	f7fa fda3 	bl	8000ccc <ADC_RegularChannelConfig>
}
 8006186:	bf00      	nop
 8006188:	3738      	adds	r7, #56	; 0x38
 800618a:	46bd      	mov	sp, r7
 800618c:	bd80      	pop	{r7, pc}
 800618e:	bf00      	nop
 8006190:	40020000 	.word	0x40020000
 8006194:	40012000 	.word	0x40012000

08006198 <ADC_IRQHandler>:

void ADC_IRQHandler(void){
 8006198:	b580      	push	{r7, lr}
 800619a:	af00      	add	r7, sp, #0
	ADC_ClearITPendingBit(ADC1, ADC_IT_EOC);
 800619c:	f240 2105 	movw	r1, #517	; 0x205
 80061a0:	4818      	ldr	r0, [pc, #96]	; (8006204 <ADC_IRQHandler+0x6c>)
 80061a2:	f7fa fea3 	bl	8000eec <ADC_ClearITPendingBit>
	if (ADCcounter == numsamples){
 80061a6:	4b18      	ldr	r3, [pc, #96]	; (8006208 <ADC_IRQHandler+0x70>)
 80061a8:	781b      	ldrb	r3, [r3, #0]
 80061aa:	461a      	mov	r2, r3
 80061ac:	4b17      	ldr	r3, [pc, #92]	; (800620c <ADC_IRQHandler+0x74>)
 80061ae:	681b      	ldr	r3, [r3, #0]
 80061b0:	429a      	cmp	r2, r3
 80061b2:	d107      	bne.n	80061c4 <ADC_IRQHandler+0x2c>
			TM_USB_VCP_Puts(done);
 80061b4:	4816      	ldr	r0, [pc, #88]	; (8006210 <ADC_IRQHandler+0x78>)
 80061b6:	f7fc fa9e 	bl	80026f6 <TM_USB_VCP_Puts>
			ADC_Cmd (ADC1, DISABLE);
 80061ba:	2100      	movs	r1, #0
 80061bc:	4811      	ldr	r0, [pc, #68]	; (8006204 <ADC_IRQHandler+0x6c>)
 80061be:	f7fa fd69 	bl	8000c94 <ADC_Cmd>
		ADCval_Split[0]=(uint8_t)(ADCval >> 8);
		ADCval_Split[1]=(uint8_t)(ADCval & 0b000011111111);
		TM_USB_VCP_Send(ADCval_Split,2);
		ADCcounter++;
	}
}
 80061c2:	e01c      	b.n	80061fe <ADC_IRQHandler+0x66>
		ADCval = ADC_GetConversionValue(ADC1);
 80061c4:	480f      	ldr	r0, [pc, #60]	; (8006204 <ADC_IRQHandler+0x6c>)
 80061c6:	f7fa fe5b 	bl	8000e80 <ADC_GetConversionValue>
 80061ca:	4603      	mov	r3, r0
 80061cc:	461a      	mov	r2, r3
 80061ce:	4b11      	ldr	r3, [pc, #68]	; (8006214 <ADC_IRQHandler+0x7c>)
 80061d0:	801a      	strh	r2, [r3, #0]
		ADCval_Split[0]=(uint8_t)(ADCval >> 8);
 80061d2:	4b10      	ldr	r3, [pc, #64]	; (8006214 <ADC_IRQHandler+0x7c>)
 80061d4:	881b      	ldrh	r3, [r3, #0]
 80061d6:	0a1b      	lsrs	r3, r3, #8
 80061d8:	b29b      	uxth	r3, r3
 80061da:	b2da      	uxtb	r2, r3
 80061dc:	4b0e      	ldr	r3, [pc, #56]	; (8006218 <ADC_IRQHandler+0x80>)
 80061de:	701a      	strb	r2, [r3, #0]
		ADCval_Split[1]=(uint8_t)(ADCval & 0b000011111111);
 80061e0:	4b0c      	ldr	r3, [pc, #48]	; (8006214 <ADC_IRQHandler+0x7c>)
 80061e2:	881b      	ldrh	r3, [r3, #0]
 80061e4:	b2da      	uxtb	r2, r3
 80061e6:	4b0c      	ldr	r3, [pc, #48]	; (8006218 <ADC_IRQHandler+0x80>)
 80061e8:	705a      	strb	r2, [r3, #1]
		TM_USB_VCP_Send(ADCval_Split,2);
 80061ea:	2102      	movs	r1, #2
 80061ec:	480a      	ldr	r0, [pc, #40]	; (8006218 <ADC_IRQHandler+0x80>)
 80061ee:	f7fc fa97 	bl	8002720 <TM_USB_VCP_Send>
		ADCcounter++;
 80061f2:	4b05      	ldr	r3, [pc, #20]	; (8006208 <ADC_IRQHandler+0x70>)
 80061f4:	781b      	ldrb	r3, [r3, #0]
 80061f6:	3301      	adds	r3, #1
 80061f8:	b2da      	uxtb	r2, r3
 80061fa:	4b03      	ldr	r3, [pc, #12]	; (8006208 <ADC_IRQHandler+0x70>)
 80061fc:	701a      	strb	r2, [r3, #0]
}
 80061fe:	bf00      	nop
 8006200:	bd80      	pop	{r7, pc}
 8006202:	bf00      	nop
 8006204:	40012000 	.word	0x40012000
 8006208:	20007eb2 	.word	0x20007eb2
 800620c:	20007e2c 	.word	0x20007e2c
 8006210:	20007e24 	.word	0x20007e24
 8006214:	20008ed0 	.word	0x20008ed0
 8006218:	20008ecc 	.word	0x20008ecc

0800621c <TM_DMA_TransferCompleteHandler>:

void TM_DMA_TransferCompleteHandler(DMA_Stream_TypeDef* DMA_Stream) {
 800621c:	b580      	push	{r7, lr}
 800621e:	b082      	sub	sp, #8
 8006220:	af00      	add	r7, sp, #0
 8006222:	6078      	str	r0, [r7, #4]
	if (DMAcounter>=numpulses){
 8006224:	4b11      	ldr	r3, [pc, #68]	; (800626c <TM_DMA_TransferCompleteHandler+0x50>)
 8006226:	781b      	ldrb	r3, [r3, #0]
 8006228:	461a      	mov	r2, r3
 800622a:	4b11      	ldr	r3, [pc, #68]	; (8006270 <TM_DMA_TransferCompleteHandler+0x54>)
 800622c:	681b      	ldr	r3, [r3, #0]
 800622e:	429a      	cmp	r2, r3
 8006230:	db12      	blt.n	8006258 <TM_DMA_TransferCompleteHandler+0x3c>
		DAC_DeInit();
 8006232:	f7fa fe71 	bl	8000f18 <DAC_DeInit>
		TM_DISCO_LedOff(LED_BLUE);
 8006236:	4b0f      	ldr	r3, [pc, #60]	; (8006274 <TM_DMA_TransferCompleteHandler+0x58>)
 8006238:	f44f 4200 	mov.w	r2, #32768	; 0x8000
 800623c:	835a      	strh	r2, [r3, #26]
		TM_DISCO_LedOff(LED_RED);
 800623e:	4b0d      	ldr	r3, [pc, #52]	; (8006274 <TM_DMA_TransferCompleteHandler+0x58>)
 8006240:	f44f 4280 	mov.w	r2, #16384	; 0x4000
 8006244:	835a      	strh	r2, [r3, #26]
		TM_DISCO_LedOff(LED_GREEN);
 8006246:	4b0b      	ldr	r3, [pc, #44]	; (8006274 <TM_DMA_TransferCompleteHandler+0x58>)
 8006248:	f44f 5280 	mov.w	r2, #4096	; 0x1000
 800624c:	835a      	strh	r2, [r3, #26]
		TM_DISCO_LedOff(LED_ORANGE);
 800624e:	4b09      	ldr	r3, [pc, #36]	; (8006274 <TM_DMA_TransferCompleteHandler+0x58>)
 8006250:	f44f 5200 	mov.w	r2, #8192	; 0x2000
 8006254:	835a      	strh	r2, [r3, #26]
	}
	else{
		DMAcounter++;
	}
}
 8006256:	e005      	b.n	8006264 <TM_DMA_TransferCompleteHandler+0x48>
		DMAcounter++;
 8006258:	4b04      	ldr	r3, [pc, #16]	; (800626c <TM_DMA_TransferCompleteHandler+0x50>)
 800625a:	781b      	ldrb	r3, [r3, #0]
 800625c:	3301      	adds	r3, #1
 800625e:	b2da      	uxtb	r2, r3
 8006260:	4b02      	ldr	r3, [pc, #8]	; (800626c <TM_DMA_TransferCompleteHandler+0x50>)
 8006262:	701a      	strb	r2, [r3, #0]
}
 8006264:	bf00      	nop
 8006266:	3708      	adds	r7, #8
 8006268:	46bd      	mov	sp, r7
 800626a:	bd80      	pop	{r7, pc}
 800626c:	20007eb1 	.word	0x20007eb1
 8006270:	20007e28 	.word	0x20007e28
 8006274:	40020c00 	.word	0x40020c00

08006278 <main>:
**  Abstract: main program
**
**===========================================================================
*/
int main(void)
{
 8006278:	b580      	push	{r7, lr}
 800627a:	af00      	add	r7, sp, #0
	SystemInit();
 800627c:	f000 f858 	bl	8006330 <SystemInit>
	SysInit();
 8006280:	f7ff ff24 	bl	80060cc <SysInit>
	while(1){
		checkUSB();
 8006284:	f7ff fea8 	bl	8005fd8 <checkUSB>
 8006288:	e7fc      	b.n	8006284 <main+0xc>
	...

0800628c <Reset_Handler>:

    .section  .text.Reset_Handler
  .weak  Reset_Handler
  .type  Reset_Handler, %function
Reset_Handler:  
  ldr   sp, =_estack    /* Atollic update: set stack pointer */
 800628c:	f8df d034 	ldr.w	sp, [pc, #52]	; 80062c4 <LoopFillZerobss+0x14>

/* Copy the data segment initializers from flash to SRAM */  
  movs  r1, #0
 8006290:	2100      	movs	r1, #0
  b  LoopCopyDataInit
 8006292:	e003      	b.n	800629c <LoopCopyDataInit>

08006294 <CopyDataInit>:

CopyDataInit:
  ldr  r3, =_sidata
 8006294:	4b0c      	ldr	r3, [pc, #48]	; (80062c8 <LoopFillZerobss+0x18>)
  ldr  r3, [r3, r1]
 8006296:	585b      	ldr	r3, [r3, r1]
  str  r3, [r0, r1]
 8006298:	5043      	str	r3, [r0, r1]
  adds  r1, r1, #4
 800629a:	3104      	adds	r1, #4

0800629c <LoopCopyDataInit>:
    
LoopCopyDataInit:
  ldr  r0, =_sdata
 800629c:	480b      	ldr	r0, [pc, #44]	; (80062cc <LoopFillZerobss+0x1c>)
  ldr  r3, =_edata
 800629e:	4b0c      	ldr	r3, [pc, #48]	; (80062d0 <LoopFillZerobss+0x20>)
  adds  r2, r0, r1
 80062a0:	1842      	adds	r2, r0, r1
  cmp  r2, r3
 80062a2:	429a      	cmp	r2, r3
  bcc  CopyDataInit
 80062a4:	d3f6      	bcc.n	8006294 <CopyDataInit>
  ldr  r2, =_sbss
 80062a6:	4a0b      	ldr	r2, [pc, #44]	; (80062d4 <LoopFillZerobss+0x24>)
  b  LoopFillZerobss
 80062a8:	e002      	b.n	80062b0 <LoopFillZerobss>

080062aa <FillZerobss>:
/* Zero fill the bss segment. */  
FillZerobss:
  movs  r3, #0
 80062aa:	2300      	movs	r3, #0
  str  r3, [r2], #4
 80062ac:	f842 3b04 	str.w	r3, [r2], #4

080062b0 <LoopFillZerobss>:
    
LoopFillZerobss:
  ldr  r3, = _ebss
 80062b0:	4b09      	ldr	r3, [pc, #36]	; (80062d8 <LoopFillZerobss+0x28>)
  cmp  r2, r3
 80062b2:	429a      	cmp	r2, r3
  bcc  FillZerobss
 80062b4:	d3f9      	bcc.n	80062aa <FillZerobss>

/* Call the clock system intitialization function.*/
  bl  SystemInit   
 80062b6:	f000 f83b 	bl	8006330 <SystemInit>
/* Call static constructors */
    bl __libc_init_array
 80062ba:	f000 f8eb 	bl	8006494 <__libc_init_array>
/* Call the application's entry point.*/
  bl  main
 80062be:	f7ff ffdb 	bl	8006278 <main>
  bx  lr    
 80062c2:	4770      	bx	lr
  ldr   sp, =_estack    /* Atollic update: set stack pointer */
 80062c4:	20020000 	.word	0x20020000
  ldr  r3, =_sidata
 80062c8:	08006574 	.word	0x08006574
  ldr  r0, =_sdata
 80062cc:	20000000 	.word	0x20000000
  ldr  r3, =_edata
 80062d0:	20007e30 	.word	0x20007e30
  ldr  r2, =_sbss
 80062d4:	20007e30 	.word	0x20007e30
  ldr  r3, = _ebss
 80062d8:	20008ed4 	.word	0x20008ed4

080062dc <CAN1_RX0_IRQHandler>:
 * @retval None       
*/
    .section  .text.Default_Handler,"ax",%progbits
Default_Handler:
Infinite_Loop:
  b  Infinite_Loop
 80062dc:	e7fe      	b.n	80062dc <CAN1_RX0_IRQHandler>

080062de <NMI_Handler>:
  * @brief   This function handles NMI exception.
  * @param  None
  * @retval None
  */
void NMI_Handler(void)
{
 80062de:	b480      	push	{r7}
 80062e0:	af00      	add	r7, sp, #0
}
 80062e2:	bf00      	nop
 80062e4:	46bd      	mov	sp, r7
 80062e6:	f85d 7b04 	ldr.w	r7, [sp], #4
 80062ea:	4770      	bx	lr

080062ec <HardFault_Handler>:
  * @brief  This function handles Hard Fault exception.
  * @param  None
  * @retval None
  */
void HardFault_Handler(void)
{
 80062ec:	b480      	push	{r7}
 80062ee:	af00      	add	r7, sp, #0
  /* Go to infinite loop when Hard Fault exception occurs */
  while (1)
 80062f0:	e7fe      	b.n	80062f0 <HardFault_Handler+0x4>

080062f2 <MemManage_Handler>:
  * @brief  This function handles Memory Manage exception.
  * @param  None
  * @retval None
  */
void MemManage_Handler(void)
{
 80062f2:	b480      	push	{r7}
 80062f4:	af00      	add	r7, sp, #0
  /* Go to infinite loop when Memory Manage exception occurs */
  while (1)
 80062f6:	e7fe      	b.n	80062f6 <MemManage_Handler+0x4>

080062f8 <BusFault_Handler>:
  * @brief  This function handles Bus Fault exception.
  * @param  None
  * @retval None
  */
void BusFault_Handler(void)
{
 80062f8:	b480      	push	{r7}
 80062fa:	af00      	add	r7, sp, #0
  /* Go to infinite loop when Bus Fault exception occurs */
  while (1)
 80062fc:	e7fe      	b.n	80062fc <BusFault_Handler+0x4>

080062fe <UsageFault_Handler>:
  * @brief  This function handles Usage Fault exception.
  * @param  None
  * @retval None
  */
void UsageFault_Handler(void)
{
 80062fe:	b480      	push	{r7}
 8006300:	af00      	add	r7, sp, #0
  /* Go to infinite loop when Usage Fault exception occurs */
  while (1)
 8006302:	e7fe      	b.n	8006302 <UsageFault_Handler+0x4>

08006304 <SVC_Handler>:
  * @brief  This function handles SVCall exception.
  * @param  None
  * @retval None
  */
void SVC_Handler(void)
{
 8006304:	b480      	push	{r7}
 8006306:	af00      	add	r7, sp, #0
}
 8006308:	bf00      	nop
 800630a:	46bd      	mov	sp, r7
 800630c:	f85d 7b04 	ldr.w	r7, [sp], #4
 8006310:	4770      	bx	lr

08006312 <DebugMon_Handler>:
  * @brief  This function handles Debug Monitor exception.
  * @param  None
  * @retval None
  */
void DebugMon_Handler(void)
{
 8006312:	b480      	push	{r7}
 8006314:	af00      	add	r7, sp, #0
}
 8006316:	bf00      	nop
 8006318:	46bd      	mov	sp, r7
 800631a:	f85d 7b04 	ldr.w	r7, [sp], #4
 800631e:	4770      	bx	lr

08006320 <PendSV_Handler>:
  * @brief  This function handles PendSVC exception.
  * @param  None
  * @retval None
  */
void PendSV_Handler(void)
{
 8006320:	b480      	push	{r7}
 8006322:	af00      	add	r7, sp, #0
}
 8006324:	bf00      	nop
 8006326:	46bd      	mov	sp, r7
 8006328:	f85d 7b04 	ldr.w	r7, [sp], #4
 800632c:	4770      	bx	lr
	...

08006330 <SystemInit>:
  *         SystemFrequency variable.
  * @param  None
  * @retval None
  */
void SystemInit(void)
{
 8006330:	b580      	push	{r7, lr}
 8006332:	af00      	add	r7, sp, #0
  /* FPU settings ------------------------------------------------------------*/
  #if (__FPU_PRESENT == 1) && (__FPU_USED == 1)
	SCB->CPACR |= ((3UL << 10*2)|(3UL << 11*2));  /* set CP10 and CP11 Full Access */
 8006334:	4a16      	ldr	r2, [pc, #88]	; (8006390 <SystemInit+0x60>)
 8006336:	4b16      	ldr	r3, [pc, #88]	; (8006390 <SystemInit+0x60>)
 8006338:	f8d3 3088 	ldr.w	r3, [r3, #136]	; 0x88
 800633c:	f443 0370 	orr.w	r3, r3, #15728640	; 0xf00000
 8006340:	f8c2 3088 	str.w	r3, [r2, #136]	; 0x88
  #endif

  /* Reset the RCC clock configuration to the default reset state ------------*/
  /* Set HSION bit */
  RCC->CR |= (uint32_t)0x00000001;
 8006344:	4a13      	ldr	r2, [pc, #76]	; (8006394 <SystemInit+0x64>)
 8006346:	4b13      	ldr	r3, [pc, #76]	; (8006394 <SystemInit+0x64>)
 8006348:	681b      	ldr	r3, [r3, #0]
 800634a:	f043 0301 	orr.w	r3, r3, #1
 800634e:	6013      	str	r3, [r2, #0]

  /* Reset CFGR register */
  RCC->CFGR = 0x00000000;
 8006350:	4b10      	ldr	r3, [pc, #64]	; (8006394 <SystemInit+0x64>)
 8006352:	2200      	movs	r2, #0
 8006354:	609a      	str	r2, [r3, #8]

  /* Reset HSEON, CSSON and PLLON bits */
  RCC->CR &= (uint32_t)0xFEF6FFFF;
 8006356:	4a0f      	ldr	r2, [pc, #60]	; (8006394 <SystemInit+0x64>)
 8006358:	4b0e      	ldr	r3, [pc, #56]	; (8006394 <SystemInit+0x64>)
 800635a:	681b      	ldr	r3, [r3, #0]
 800635c:	f023 7384 	bic.w	r3, r3, #17301504	; 0x1080000
 8006360:	f423 3380 	bic.w	r3, r3, #65536	; 0x10000
 8006364:	6013      	str	r3, [r2, #0]

  /* Reset PLLCFGR register */
  RCC->PLLCFGR = 0x24003010;
 8006366:	4b0b      	ldr	r3, [pc, #44]	; (8006394 <SystemInit+0x64>)
 8006368:	4a0b      	ldr	r2, [pc, #44]	; (8006398 <SystemInit+0x68>)
 800636a:	605a      	str	r2, [r3, #4]

  /* Reset HSEBYP bit */
  RCC->CR &= (uint32_t)0xFFFBFFFF;
 800636c:	4a09      	ldr	r2, [pc, #36]	; (8006394 <SystemInit+0x64>)
 800636e:	4b09      	ldr	r3, [pc, #36]	; (8006394 <SystemInit+0x64>)
 8006370:	681b      	ldr	r3, [r3, #0]
 8006372:	f423 2380 	bic.w	r3, r3, #262144	; 0x40000
 8006376:	6013      	str	r3, [r2, #0]

  /* Disable all interrupts */
  RCC->CIR = 0x00000000;
 8006378:	4b06      	ldr	r3, [pc, #24]	; (8006394 <SystemInit+0x64>)
 800637a:	2200      	movs	r2, #0
 800637c:	60da      	str	r2, [r3, #12]
  SystemInit_ExtMemCtl(); 
#endif /* DATA_IN_ExtSRAM */
         
  /* Configure the System clock source, PLL Multiplier and Divider factors, 
     AHB/APBx prescalers and Flash settings ----------------------------------*/
  SetSysClock();
 800637e:	f000 f80d 	bl	800639c <SetSysClock>

  /* Configure the Vector Table location add offset address ------------------*/
#ifdef VECT_TAB_SRAM
  SCB->VTOR = SRAM_BASE | VECT_TAB_OFFSET; /* Vector Table Relocation in Internal SRAM */
#else
  SCB->VTOR = FLASH_BASE | VECT_TAB_OFFSET; /* Vector Table Relocation in Internal FLASH */
 8006382:	4b03      	ldr	r3, [pc, #12]	; (8006390 <SystemInit+0x60>)
 8006384:	f04f 6200 	mov.w	r2, #134217728	; 0x8000000
 8006388:	609a      	str	r2, [r3, #8]
#endif
}
 800638a:	bf00      	nop
 800638c:	bd80      	pop	{r7, pc}
 800638e:	bf00      	nop
 8006390:	e000ed00 	.word	0xe000ed00
 8006394:	40023800 	.word	0x40023800
 8006398:	24003010 	.word	0x24003010

0800639c <SetSysClock>:
  *         is reset to the default reset state (done in SystemInit() function).   
  * @param  None
  * @retval None
  */
static void SetSysClock(void)
{
 800639c:	b480      	push	{r7}
 800639e:	b083      	sub	sp, #12
 80063a0:	af00      	add	r7, sp, #0
/******************************************************************************/
/*            PLL (clocked by HSE) used as System clock source                */
/******************************************************************************/
  __IO uint32_t StartUpCounter = 0, HSEStatus = 0;
 80063a2:	2300      	movs	r3, #0
 80063a4:	607b      	str	r3, [r7, #4]
 80063a6:	2300      	movs	r3, #0
 80063a8:	603b      	str	r3, [r7, #0]
  
  /* Enable HSE */
  RCC->CR |= ((uint32_t)RCC_CR_HSEON);
 80063aa:	4a36      	ldr	r2, [pc, #216]	; (8006484 <SetSysClock+0xe8>)
 80063ac:	4b35      	ldr	r3, [pc, #212]	; (8006484 <SetSysClock+0xe8>)
 80063ae:	681b      	ldr	r3, [r3, #0]
 80063b0:	f443 3380 	orr.w	r3, r3, #65536	; 0x10000
 80063b4:	6013      	str	r3, [r2, #0]
 
  /* Wait till HSE is ready and if Time out is reached exit */
  do
  {
    HSEStatus = RCC->CR & RCC_CR_HSERDY;
 80063b6:	4b33      	ldr	r3, [pc, #204]	; (8006484 <SetSysClock+0xe8>)
 80063b8:	681b      	ldr	r3, [r3, #0]
 80063ba:	f403 3300 	and.w	r3, r3, #131072	; 0x20000
 80063be:	603b      	str	r3, [r7, #0]
    StartUpCounter++;
 80063c0:	687b      	ldr	r3, [r7, #4]
 80063c2:	3301      	adds	r3, #1
 80063c4:	607b      	str	r3, [r7, #4]
  } while((HSEStatus == 0) && (StartUpCounter != HSE_STARTUP_TIMEOUT));
 80063c6:	683b      	ldr	r3, [r7, #0]
 80063c8:	2b00      	cmp	r3, #0
 80063ca:	d103      	bne.n	80063d4 <SetSysClock+0x38>
 80063cc:	687b      	ldr	r3, [r7, #4]
 80063ce:	f5b3 6fa0 	cmp.w	r3, #1280	; 0x500
 80063d2:	d1f0      	bne.n	80063b6 <SetSysClock+0x1a>

  if ((RCC->CR & RCC_CR_HSERDY) != RESET)
 80063d4:	4b2b      	ldr	r3, [pc, #172]	; (8006484 <SetSysClock+0xe8>)
 80063d6:	681b      	ldr	r3, [r3, #0]
 80063d8:	f403 3300 	and.w	r3, r3, #131072	; 0x20000
 80063dc:	2b00      	cmp	r3, #0
 80063de:	d002      	beq.n	80063e6 <SetSysClock+0x4a>
  {
    HSEStatus = (uint32_t)0x01;
 80063e0:	2301      	movs	r3, #1
 80063e2:	603b      	str	r3, [r7, #0]
 80063e4:	e001      	b.n	80063ea <SetSysClock+0x4e>
  }
  else
  {
    HSEStatus = (uint32_t)0x00;
 80063e6:	2300      	movs	r3, #0
 80063e8:	603b      	str	r3, [r7, #0]
  }

  if (HSEStatus == (uint32_t)0x01)
 80063ea:	683b      	ldr	r3, [r7, #0]
 80063ec:	2b01      	cmp	r3, #1
 80063ee:	d142      	bne.n	8006476 <SetSysClock+0xda>
  {
    /* Enable high performance mode, System frequency up to 168 MHz */
    RCC->APB1ENR |= RCC_APB1ENR_PWREN;
 80063f0:	4a24      	ldr	r2, [pc, #144]	; (8006484 <SetSysClock+0xe8>)
 80063f2:	4b24      	ldr	r3, [pc, #144]	; (8006484 <SetSysClock+0xe8>)
 80063f4:	6c1b      	ldr	r3, [r3, #64]	; 0x40
 80063f6:	f043 5380 	orr.w	r3, r3, #268435456	; 0x10000000
 80063fa:	6413      	str	r3, [r2, #64]	; 0x40
    PWR->CR |= PWR_CR_PMODE;  
 80063fc:	4a22      	ldr	r2, [pc, #136]	; (8006488 <SetSysClock+0xec>)
 80063fe:	4b22      	ldr	r3, [pc, #136]	; (8006488 <SetSysClock+0xec>)
 8006400:	681b      	ldr	r3, [r3, #0]
 8006402:	f443 4340 	orr.w	r3, r3, #49152	; 0xc000
 8006406:	6013      	str	r3, [r2, #0]

    /* HCLK = SYSCLK / 1*/
    RCC->CFGR |= RCC_CFGR_HPRE_DIV1;
 8006408:	4a1e      	ldr	r2, [pc, #120]	; (8006484 <SetSysClock+0xe8>)
 800640a:	4b1e      	ldr	r3, [pc, #120]	; (8006484 <SetSysClock+0xe8>)
 800640c:	689b      	ldr	r3, [r3, #8]
 800640e:	6093      	str	r3, [r2, #8]
      
    /* PCLK2 = HCLK / 2*/
    RCC->CFGR |= RCC_CFGR_PPRE2_DIV2;
 8006410:	4a1c      	ldr	r2, [pc, #112]	; (8006484 <SetSysClock+0xe8>)
 8006412:	4b1c      	ldr	r3, [pc, #112]	; (8006484 <SetSysClock+0xe8>)
 8006414:	689b      	ldr	r3, [r3, #8]
 8006416:	f443 4300 	orr.w	r3, r3, #32768	; 0x8000
 800641a:	6093      	str	r3, [r2, #8]
    
    /* PCLK1 = HCLK / 4*/
    RCC->CFGR |= RCC_CFGR_PPRE1_DIV4;
 800641c:	4a19      	ldr	r2, [pc, #100]	; (8006484 <SetSysClock+0xe8>)
 800641e:	4b19      	ldr	r3, [pc, #100]	; (8006484 <SetSysClock+0xe8>)
 8006420:	689b      	ldr	r3, [r3, #8]
 8006422:	f443 53a0 	orr.w	r3, r3, #5120	; 0x1400
 8006426:	6093      	str	r3, [r2, #8]

    /* Configure the main PLL */
    RCC->PLLCFGR = PLL_M | (PLL_N << 6) | (((PLL_P >> 1) -1) << 16) |
 8006428:	4b16      	ldr	r3, [pc, #88]	; (8006484 <SetSysClock+0xe8>)
 800642a:	4a18      	ldr	r2, [pc, #96]	; (800648c <SetSysClock+0xf0>)
 800642c:	605a      	str	r2, [r3, #4]
                   (RCC_PLLCFGR_PLLSRC_HSE) | (PLL_Q << 24);

    /* Enable the main PLL */
    RCC->CR |= RCC_CR_PLLON;
 800642e:	4a15      	ldr	r2, [pc, #84]	; (8006484 <SetSysClock+0xe8>)
 8006430:	4b14      	ldr	r3, [pc, #80]	; (8006484 <SetSysClock+0xe8>)
 8006432:	681b      	ldr	r3, [r3, #0]
 8006434:	f043 7380 	orr.w	r3, r3, #16777216	; 0x1000000
 8006438:	6013      	str	r3, [r2, #0]

    /* Wait till the main PLL is ready */
    while((RCC->CR & RCC_CR_PLLRDY) == 0)
 800643a:	bf00      	nop
 800643c:	4b11      	ldr	r3, [pc, #68]	; (8006484 <SetSysClock+0xe8>)
 800643e:	681b      	ldr	r3, [r3, #0]
 8006440:	f003 7300 	and.w	r3, r3, #33554432	; 0x2000000
 8006444:	2b00      	cmp	r3, #0
 8006446:	d0f9      	beq.n	800643c <SetSysClock+0xa0>
    {
    }
   
    /* Configure Flash prefetch, Instruction cache, Data cache and wait state */
    FLASH->ACR = FLASH_ACR_ICEN |FLASH_ACR_DCEN |FLASH_ACR_LATENCY_5WS;
 8006448:	4b11      	ldr	r3, [pc, #68]	; (8006490 <SetSysClock+0xf4>)
 800644a:	f240 6205 	movw	r2, #1541	; 0x605
 800644e:	601a      	str	r2, [r3, #0]

    /* Select the main PLL as system clock source */
    RCC->CFGR &= (uint32_t)((uint32_t)~(RCC_CFGR_SW));
 8006450:	4a0c      	ldr	r2, [pc, #48]	; (8006484 <SetSysClock+0xe8>)
 8006452:	4b0c      	ldr	r3, [pc, #48]	; (8006484 <SetSysClock+0xe8>)
 8006454:	689b      	ldr	r3, [r3, #8]
 8006456:	f023 0303 	bic.w	r3, r3, #3
 800645a:	6093      	str	r3, [r2, #8]
    RCC->CFGR |= RCC_CFGR_SW_PLL;
 800645c:	4a09      	ldr	r2, [pc, #36]	; (8006484 <SetSysClock+0xe8>)
 800645e:	4b09      	ldr	r3, [pc, #36]	; (8006484 <SetSysClock+0xe8>)
 8006460:	689b      	ldr	r3, [r3, #8]
 8006462:	f043 0302 	orr.w	r3, r3, #2
 8006466:	6093      	str	r3, [r2, #8]

    /* Wait till the main PLL is used as system clock source */
    while ((RCC->CFGR & (uint32_t)RCC_CFGR_SWS ) != RCC_CFGR_SWS_PLL);
 8006468:	bf00      	nop
 800646a:	4b06      	ldr	r3, [pc, #24]	; (8006484 <SetSysClock+0xe8>)
 800646c:	689b      	ldr	r3, [r3, #8]
 800646e:	f003 030c 	and.w	r3, r3, #12
 8006472:	2b08      	cmp	r3, #8
 8006474:	d1f9      	bne.n	800646a <SetSysClock+0xce>
  else
  { /* If HSE fails to start-up, the application will have wrong clock
         configuration. User can add here some code to deal with this error */
  }

}
 8006476:	bf00      	nop
 8006478:	370c      	adds	r7, #12
 800647a:	46bd      	mov	sp, r7
 800647c:	f85d 7b04 	ldr.w	r7, [sp], #4
 8006480:	4770      	bx	lr
 8006482:	bf00      	nop
 8006484:	40023800 	.word	0x40023800
 8006488:	40007000 	.word	0x40007000
 800648c:	07405408 	.word	0x07405408
 8006490:	40023c00 	.word	0x40023c00

08006494 <__libc_init_array>:
 8006494:	b570      	push	{r4, r5, r6, lr}
 8006496:	4e0d      	ldr	r6, [pc, #52]	; (80064cc <__libc_init_array+0x38>)
 8006498:	4c0d      	ldr	r4, [pc, #52]	; (80064d0 <__libc_init_array+0x3c>)
 800649a:	1ba4      	subs	r4, r4, r6
 800649c:	10a4      	asrs	r4, r4, #2
 800649e:	2500      	movs	r5, #0
 80064a0:	42a5      	cmp	r5, r4
 80064a2:	d109      	bne.n	80064b8 <__libc_init_array+0x24>
 80064a4:	4e0b      	ldr	r6, [pc, #44]	; (80064d4 <__libc_init_array+0x40>)
 80064a6:	4c0c      	ldr	r4, [pc, #48]	; (80064d8 <__libc_init_array+0x44>)
 80064a8:	f000 f818 	bl	80064dc <_init>
 80064ac:	1ba4      	subs	r4, r4, r6
 80064ae:	10a4      	asrs	r4, r4, #2
 80064b0:	2500      	movs	r5, #0
 80064b2:	42a5      	cmp	r5, r4
 80064b4:	d105      	bne.n	80064c2 <__libc_init_array+0x2e>
 80064b6:	bd70      	pop	{r4, r5, r6, pc}
 80064b8:	f856 3025 	ldr.w	r3, [r6, r5, lsl #2]
 80064bc:	4798      	blx	r3
 80064be:	3501      	adds	r5, #1
 80064c0:	e7ee      	b.n	80064a0 <__libc_init_array+0xc>
 80064c2:	f856 3025 	ldr.w	r3, [r6, r5, lsl #2]
 80064c6:	4798      	blx	r3
 80064c8:	3501      	adds	r5, #1
 80064ca:	e7f2      	b.n	80064b2 <__libc_init_array+0x1e>
 80064cc:	0800656c 	.word	0x0800656c
 80064d0:	0800656c 	.word	0x0800656c
 80064d4:	0800656c 	.word	0x0800656c
 80064d8:	08006570 	.word	0x08006570

080064dc <_init>:
 80064dc:	b5f8      	push	{r3, r4, r5, r6, r7, lr}
 80064de:	bf00      	nop
 80064e0:	bcf8      	pop	{r3, r4, r5, r6, r7}
 80064e2:	bc08      	pop	{r3}
 80064e4:	469e      	mov	lr, r3
 80064e6:	4770      	bx	lr

080064e8 <_fini>:
 80064e8:	b5f8      	push	{r3, r4, r5, r6, r7, lr}
 80064ea:	bf00      	nop
 80064ec:	bcf8      	pop	{r3, r4, r5, r6, r7}
 80064ee:	bc08      	pop	{r3}
 80064f0:	469e      	mov	lr, r3
 80064f2:	4770      	bx	lr
